---
triple:          'arm64-apple-darwin'
binary-path:     room_scheduler
relocations:
  - { offset: 0x9ECF, size: 0x8, addend: 0x0, symName: __ZNSt3__118__constexpr_strlenB8ne180100EPKc, symObjAddr: 0x3F4, symBinAddr: 0x10000349C, symSize: 0x24 }
  - { offset: 0x9F88, size: 0x8, addend: 0x0, symName: __ZNSt3__112__destroy_atB8ne180100INS_11__hash_nodeINS_17__hash_value_typeINS_12basic_stringIcNS_11char_traitsIcEENS_9allocatorIcEEEEP8BuildingEEPvEELi0EEEvPT_, symObjAddr: 0xCD4, symBinAddr: 0x100003D7C, symSize: 0x24 }
  - { offset: 0x9FF2, size: 0x8, addend: 0x0, symName: __ZNSt3__112__destroy_atB8ne180100INS_4pairIKNS_12basic_stringIcNS_11char_traitsIcEENS_9allocatorIcEEEEP8BuildingEELi0EEEvPT_, symObjAddr: 0xD78, symBinAddr: 0x100003E20, symSize: 0x24 }
  - { offset: 0xA029, size: 0x8, addend: 0x0, symName: __ZNSt3__17launderB8ne180100INS_4pairIKNS_12basic_stringIcNS_11char_traitsIcEENS_9allocatorIcEEEEP8BuildingEEEEPT_SD_, symObjAddr: 0xE18, symBinAddr: 0x100003EC0, symSize: 0x24 }
  - { offset: 0xA060, size: 0x8, addend: 0x0, symName: __ZNSt3__19__launderB8ne180100INS_4pairIKNS_12basic_stringIcNS_11char_traitsIcEENS_9allocatorIcEEEEP8BuildingEEEEPT_SD_, symObjAddr: 0xE3C, symBinAddr: 0x100003EE4, symSize: 0x14 }
  - { offset: 0xA097, size: 0x8, addend: 0x0, symName: __ZNSt3__119__libcpp_deallocateB8ne180100EPvmm, symObjAddr: 0xED4, symBinAddr: 0x100003F7C, symSize: 0x60 }
  - { offset: 0xA0FC, size: 0x8, addend: 0x0, symName: __ZNSt3__124__is_overaligned_for_newB8ne180100Em, symObjAddr: 0xF34, symBinAddr: 0x100003FDC, symSize: 0x20 }
  - { offset: 0xA12A, size: 0x8, addend: 0x0, symName: __ZNSt3__127__do_deallocate_handle_sizeB8ne180100IJSt11align_val_tEEEvPvmDpT_, symObjAddr: 0xF54, symBinAddr: 0x100003FFC, symSize: 0x30 }
  - { offset: 0xA17D, size: 0x8, addend: 0x0, symName: __ZNSt3__127__do_deallocate_handle_sizeB8ne180100IJEEEvPvmDpT_, symObjAddr: 0xF84, symBinAddr: 0x10000402C, symSize: 0x28 }
  - { offset: 0xA1BB, size: 0x8, addend: 0x0, symName: __ZNSt3__124__libcpp_operator_deleteB8ne180100IJPvSt11align_val_tEEEvDpT_, symObjAddr: 0xFAC, symBinAddr: 0x100004054, symSize: 0x2C }
  - { offset: 0xA204, size: 0x8, addend: 0x0, symName: __ZNSt3__124__libcpp_operator_deleteB8ne180100IJPvEEEvDpT_, symObjAddr: 0xFD8, symBinAddr: 0x100004080, symSize: 0x24 }
  - { offset: 0xA29F, size: 0x8, addend: 0x0, symName: __ZNSt3__112__to_addressB8ne180100IP4RoomEEPT_S4_, symObjAddr: 0x1690, symBinAddr: 0x100004738, symSize: 0x14 }
  - { offset: 0x13960, size: 0x8, addend: 0x0, symName: _main, symObjAddr: 0x0, symBinAddr: 0x1000030A8, symSize: 0x154 }
  - { offset: 0x139AD, size: 0x8, addend: 0x0, symName: __ZNSt3__112basic_stringIcNS_11char_traitsIcEENS_9allocatorIcEEEC1B8ne180100ILi0EEEPKc, symObjAddr: 0x154, symBinAddr: 0x1000031FC, symSize: 0x34 }
  - { offset: 0x13AA0, size: 0x8, addend: 0x0, symName: __ZNSt3__113unordered_mapINS_12basic_stringIcNS_11char_traitsIcEENS_9allocatorIcEEEEP8BuildingNS_4hashIS6_EENS_8equal_toIS6_EENS4_INS_4pairIKS6_S8_EEEEEC1B8ne180100Ev, symObjAddr: 0x188, symBinAddr: 0x100003230, symSize: 0x2C }
  - { offset: 0x13ACA, size: 0x8, addend: 0x0, symName: __ZNSt3__113unordered_mapINS_12basic_stringIcNS_11char_traitsIcEENS_9allocatorIcEEEEP8BuildingNS_4hashIS6_EENS_8equal_toIS6_EENS4_INS_4pairIKS6_S8_EEEEE5beginB8ne180100Ev, symObjAddr: 0x1B4, symBinAddr: 0x10000325C, symSize: 0x38 }
  - { offset: 0x13AF0, size: 0x8, addend: 0x0, symName: __ZNKSt3__119__hash_map_iteratorINS_15__hash_iteratorIPNS_11__hash_nodeINS_17__hash_value_typeINS_12basic_stringIcNS_11char_traitsIcEENS_9allocatorIcEEEEP8BuildingEEPvEEEEEptB8ne180100Ev, symObjAddr: 0x1EC, symBinAddr: 0x100003294, symSize: 0x2C }
  - { offset: 0x13B16, size: 0x8, addend: 0x0, symName: __ZNSt3__16vectorIP4RoomNS_9allocatorIS2_EEED1B8ne180100Ev, symObjAddr: 0x218, symBinAddr: 0x1000032C0, symSize: 0x2C }
  - { offset: 0x13B40, size: 0x8, addend: 0x0, symName: __ZNSt3__113unordered_mapINS_12basic_stringIcNS_11char_traitsIcEENS_9allocatorIcEEEEP8BuildingNS_4hashIS6_EENS_8equal_toIS6_EENS4_INS_4pairIKS6_S8_EEEEED1B8ne180100Ev, symObjAddr: 0x244, symBinAddr: 0x1000032EC, symSize: 0x2C }
  - { offset: 0x13B6A, size: 0x8, addend: 0x0, symName: __ZNSt3__112basic_stringIcNS_11char_traitsIcEENS_9allocatorIcEEEC2B8ne180100ILi0EEEPKc, symObjAddr: 0x270, symBinAddr: 0x100003318, symSize: 0x58 }
  - { offset: 0x13BAF, size: 0x8, addend: 0x0, symName: __ZNSt3__117__compressed_pairINS_12basic_stringIcNS_11char_traitsIcEENS_9allocatorIcEEE5__repES5_EC1B8ne180100INS_18__default_init_tagESA_EEOT_OT0_, symObjAddr: 0x2C8, symBinAddr: 0x100003370, symSize: 0x3C }
  - { offset: 0x13C07, size: 0x8, addend: 0x0, symName: __ZNSt3__111char_traitsIcE6lengthB8ne180100EPKc, symObjAddr: 0x304, symBinAddr: 0x1000033AC, symSize: 0x34 }
  - { offset: 0x13C2A, size: 0x8, addend: 0x0, symName: __ZNSt3__117__compressed_pairINS_12basic_stringIcNS_11char_traitsIcEENS_9allocatorIcEEE5__repES5_EC2B8ne180100INS_18__default_init_tagESA_EEOT_OT0_, symObjAddr: 0x338, symBinAddr: 0x1000033E0, symSize: 0x3C }
  - { offset: 0x13C82, size: 0x8, addend: 0x0, symName: __ZNSt3__122__compressed_pair_elemINS_12basic_stringIcNS_11char_traitsIcEENS_9allocatorIcEEE5__repELi0ELb0EEC2B8ne180100ENS_18__default_init_tagE, symObjAddr: 0x374, symBinAddr: 0x10000341C, symSize: 0x14 }
  - { offset: 0x13CB7, size: 0x8, addend: 0x0, symName: __ZNSt3__122__compressed_pair_elemINS_9allocatorIcEELi1ELb1EEC2B8ne180100ENS_18__default_init_tagE, symObjAddr: 0x388, symBinAddr: 0x100003430, symSize: 0x2C }
  - { offset: 0x13CEC, size: 0x8, addend: 0x0, symName: __ZNSt3__19allocatorIcEC2B8ne180100Ev, symObjAddr: 0x3B4, symBinAddr: 0x10000345C, symSize: 0x2C }
  - { offset: 0x13D16, size: 0x8, addend: 0x0, symName: __ZNSt3__116__non_trivial_ifILb1ENS_9allocatorIcEEEC2B8ne180100Ev, symObjAddr: 0x3E0, symBinAddr: 0x100003488, symSize: 0x14 }
  - { offset: 0x13D40, size: 0x8, addend: 0x0, symName: __ZNSt3__113unordered_mapINS_12basic_stringIcNS_11char_traitsIcEENS_9allocatorIcEEEEP8BuildingNS_4hashIS6_EENS_8equal_toIS6_EENS4_INS_4pairIKS6_S8_EEEEEC2B8ne180100Ev, symObjAddr: 0x428, symBinAddr: 0x1000034D0, symSize: 0x2C }
  - { offset: 0x13D6A, size: 0x8, addend: 0x0, symName: __ZNSt3__112__hash_tableINS_17__hash_value_typeINS_12basic_stringIcNS_11char_traitsIcEENS_9allocatorIcEEEEP8BuildingEENS_22__unordered_map_hasherIS7_SA_NS_4hashIS7_EENS_8equal_toIS7_EELb1EEENS_21__unordered_map_equalIS7_SA_SF_SD_Lb1EEENS5_ISA_EEEC1Ev, symObjAddr: 0x454, symBinAddr: 0x1000034FC, symSize: 0x2C }
  - { offset: 0x13D96, size: 0x8, addend: 0x0, symName: __ZNSt3__112__hash_tableINS_17__hash_value_typeINS_12basic_stringIcNS_11char_traitsIcEENS_9allocatorIcEEEEP8BuildingEENS_22__unordered_map_hasherIS7_SA_NS_4hashIS7_EENS_8equal_toIS7_EELb1EEENS_21__unordered_map_equalIS7_SA_SF_SD_Lb1EEENS5_ISA_EEEC2Ev, symObjAddr: 0x480, symBinAddr: 0x100003528, symSize: 0x7C }
  - { offset: 0x13DC2, size: 0x8, addend: 0x0, symName: __ZNSt3__110unique_ptrIA_PNS_16__hash_node_baseIPNS_11__hash_nodeINS_17__hash_value_typeINS_12basic_stringIcNS_11char_traitsIcEENS_9allocatorIcEEEEP8BuildingEEPvEEEENS_25__bucket_list_deallocatorINS7_ISH_EEEEEC1B8ne180100ILb1EvEEv, symObjAddr: 0x4FC, symBinAddr: 0x1000035A4, symSize: 0x2C }
  - { offset: 0x13DF7, size: 0x8, addend: 0x0, symName: __ZNSt3__117__compressed_pairINS_16__hash_node_baseIPNS_11__hash_nodeINS_17__hash_value_typeINS_12basic_stringIcNS_11char_traitsIcEENS_9allocatorIcEEEEP8BuildingEEPvEEEENS7_ISE_EEEC1B8ne180100ILb1EvEEv, symObjAddr: 0x528, symBinAddr: 0x1000035D0, symSize: 0x2C }
  - { offset: 0x13E32, size: 0x8, addend: 0x0, symName: __ZNSt3__117__compressed_pairImNS_22__unordered_map_hasherINS_12basic_stringIcNS_11char_traitsIcEENS_9allocatorIcEEEENS_17__hash_value_typeIS7_P8BuildingEENS_4hashIS7_EENS_8equal_toIS7_EELb1EEEEC1B8ne180100IiNS_18__default_init_tagEEEOT_OT0_, symObjAddr: 0x554, symBinAddr: 0x1000035FC, symSize: 0x3C }
  - { offset: 0x13E90, size: 0x8, addend: 0x0, symName: __ZNSt3__117__compressed_pairIfNS_21__unordered_map_equalINS_12basic_stringIcNS_11char_traitsIcEENS_9allocatorIcEEEENS_17__hash_value_typeIS7_P8BuildingEENS_8equal_toIS7_EENS_4hashIS7_EELb1EEEEC1B8ne180100IfNS_18__default_init_tagEEEOT_OT0_, symObjAddr: 0x590, symBinAddr: 0x100003638, symSize: 0x3C }
  - { offset: 0x13EE8, size: 0x8, addend: 0x0, symName: __ZNSt3__110unique_ptrIA_PNS_16__hash_node_baseIPNS_11__hash_nodeINS_17__hash_value_typeINS_12basic_stringIcNS_11char_traitsIcEENS_9allocatorIcEEEEP8BuildingEEPvEEEENS_25__bucket_list_deallocatorINS7_ISH_EEEEEC2B8ne180100ILb1EvEEv, symObjAddr: 0x5CC, symBinAddr: 0x100003674, symSize: 0x3C }
  - { offset: 0x13F23, size: 0x8, addend: 0x0, symName: __ZNSt3__117__compressed_pairIPPNS_16__hash_node_baseIPNS_11__hash_nodeINS_17__hash_value_typeINS_12basic_stringIcNS_11char_traitsIcEENS_9allocatorIcEEEEP8BuildingEEPvEEEENS_25__bucket_list_deallocatorINS7_ISH_EEEEEC1B8ne180100INS_16__value_init_tagESO_EEOT_OT0_, symObjAddr: 0x608, symBinAddr: 0x1000036B0, symSize: 0x3C }
  - { offset: 0x13F7B, size: 0x8, addend: 0x0, symName: __ZNSt3__117__compressed_pairIPPNS_16__hash_node_baseIPNS_11__hash_nodeINS_17__hash_value_typeINS_12basic_stringIcNS_11char_traitsIcEENS_9allocatorIcEEEEP8BuildingEEPvEEEENS_25__bucket_list_deallocatorINS7_ISH_EEEEEC2B8ne180100INS_16__value_init_tagESO_EEOT_OT0_, symObjAddr: 0x644, symBinAddr: 0x1000036EC, symSize: 0x40 }
  - { offset: 0x13FD3, size: 0x8, addend: 0x0, symName: __ZNSt3__122__compressed_pair_elemIPPNS_16__hash_node_baseIPNS_11__hash_nodeINS_17__hash_value_typeINS_12basic_stringIcNS_11char_traitsIcEENS_9allocatorIcEEEEP8BuildingEEPvEEEELi0ELb0EEC2B8ne180100ENS_16__value_init_tagE, symObjAddr: 0x684, symBinAddr: 0x10000372C, symSize: 0x18 }
  - { offset: 0x14008, size: 0x8, addend: 0x0, symName: __ZNSt3__122__compressed_pair_elemINS_25__bucket_list_deallocatorINS_9allocatorIPNS_16__hash_node_baseIPNS_11__hash_nodeINS_17__hash_value_typeINS_12basic_stringIcNS_11char_traitsIcEENS2_IcEEEEP8BuildingEEPvEEEEEEEELi1ELb0EEC2B8ne180100ENS_16__value_init_tagE, symObjAddr: 0x69C, symBinAddr: 0x100003744, symSize: 0x2C }
  - { offset: 0x1403D, size: 0x8, addend: 0x0, symName: __ZNSt3__125__bucket_list_deallocatorINS_9allocatorIPNS_16__hash_node_baseIPNS_11__hash_nodeINS_17__hash_value_typeINS_12basic_stringIcNS_11char_traitsIcEENS1_IcEEEEP8BuildingEEPvEEEEEEEC1B8ne180100Ev, symObjAddr: 0x6C8, symBinAddr: 0x100003770, symSize: 0x2C }
  - { offset: 0x14067, size: 0x8, addend: 0x0, symName: __ZNSt3__125__bucket_list_deallocatorINS_9allocatorIPNS_16__hash_node_baseIPNS_11__hash_nodeINS_17__hash_value_typeINS_12basic_stringIcNS_11char_traitsIcEENS1_IcEEEEP8BuildingEEPvEEEEEEEC2B8ne180100Ev, symObjAddr: 0x6F4, symBinAddr: 0x10000379C, symSize: 0x40 }
  - { offset: 0x14091, size: 0x8, addend: 0x0, symName: __ZNSt3__117__compressed_pairImNS_9allocatorIPNS_16__hash_node_baseIPNS_11__hash_nodeINS_17__hash_value_typeINS_12basic_stringIcNS_11char_traitsIcEENS1_IcEEEEP8BuildingEEPvEEEEEEEC1B8ne180100IiNS_18__default_init_tagEEEOT_OT0_, symObjAddr: 0x734, symBinAddr: 0x1000037DC, symSize: 0x3C }
  - { offset: 0x140E9, size: 0x8, addend: 0x0, symName: __ZNSt3__117__compressed_pairImNS_9allocatorIPNS_16__hash_node_baseIPNS_11__hash_nodeINS_17__hash_value_typeINS_12basic_stringIcNS_11char_traitsIcEENS1_IcEEEEP8BuildingEEPvEEEEEEEC2B8ne180100IiNS_18__default_init_tagEEEOT_OT0_, symObjAddr: 0x770, symBinAddr: 0x100003818, symSize: 0x40 }
  - { offset: 0x14141, size: 0x8, addend: 0x0, symName: __ZNSt3__122__compressed_pair_elemImLi0ELb0EEC2B8ne180100IivEEOT_, symObjAddr: 0x7B0, symBinAddr: 0x100003858, symSize: 0x24 }
  - { offset: 0x14183, size: 0x8, addend: 0x0, symName: __ZNSt3__122__compressed_pair_elemINS_9allocatorIPNS_16__hash_node_baseIPNS_11__hash_nodeINS_17__hash_value_typeINS_12basic_stringIcNS_11char_traitsIcEENS1_IcEEEEP8BuildingEEPvEEEEEELi1ELb1EEC2B8ne180100ENS_18__default_init_tagE, symObjAddr: 0x7D4, symBinAddr: 0x10000387C, symSize: 0x2C }
  - { offset: 0x141B8, size: 0x8, addend: 0x0, symName: __ZNSt3__19allocatorIPNS_16__hash_node_baseIPNS_11__hash_nodeINS_17__hash_value_typeINS_12basic_stringIcNS_11char_traitsIcEENS0_IcEEEEP8BuildingEEPvEEEEEC2B8ne180100Ev, symObjAddr: 0x800, symBinAddr: 0x1000038A8, symSize: 0x2C }
  - { offset: 0x141E2, size: 0x8, addend: 0x0, symName: __ZNSt3__116__non_trivial_ifILb1ENS_9allocatorIPNS_16__hash_node_baseIPNS_11__hash_nodeINS_17__hash_value_typeINS_12basic_stringIcNS_11char_traitsIcEENS1_IcEEEEP8BuildingEEPvEEEEEEEC2B8ne180100Ev, symObjAddr: 0x82C, symBinAddr: 0x1000038D4, symSize: 0x14 }
  - { offset: 0x1420C, size: 0x8, addend: 0x0, symName: __ZNSt3__117__compressed_pairINS_16__hash_node_baseIPNS_11__hash_nodeINS_17__hash_value_typeINS_12basic_stringIcNS_11char_traitsIcEENS_9allocatorIcEEEEP8BuildingEEPvEEEENS7_ISE_EEEC2B8ne180100ILb1EvEEv, symObjAddr: 0x840, symBinAddr: 0x1000038E8, symSize: 0x34 }
  - { offset: 0x14241, size: 0x8, addend: 0x0, symName: __ZNSt3__122__compressed_pair_elemINS_16__hash_node_baseIPNS_11__hash_nodeINS_17__hash_value_typeINS_12basic_stringIcNS_11char_traitsIcEENS_9allocatorIcEEEEP8BuildingEEPvEEEELi0ELb0EEC2B8ne180100ENS_16__value_init_tagE, symObjAddr: 0x874, symBinAddr: 0x10000391C, symSize: 0x2C }
  - { offset: 0x14276, size: 0x8, addend: 0x0, symName: __ZNSt3__122__compressed_pair_elemINS_9allocatorINS_11__hash_nodeINS_17__hash_value_typeINS_12basic_stringIcNS_11char_traitsIcEENS1_IcEEEEP8BuildingEEPvEEEELi1ELb1EEC2B8ne180100ENS_16__value_init_tagE, symObjAddr: 0x8A0, symBinAddr: 0x100003948, symSize: 0x2C }
  - { offset: 0x142AB, size: 0x8, addend: 0x0, symName: __ZNSt3__116__hash_node_baseIPNS_11__hash_nodeINS_17__hash_value_typeINS_12basic_stringIcNS_11char_traitsIcEENS_9allocatorIcEEEEP8BuildingEEPvEEEC1B8ne180100Ev, symObjAddr: 0x8CC, symBinAddr: 0x100003974, symSize: 0x2C }
  - { offset: 0x142D5, size: 0x8, addend: 0x0, symName: __ZNSt3__116__hash_node_baseIPNS_11__hash_nodeINS_17__hash_value_typeINS_12basic_stringIcNS_11char_traitsIcEENS_9allocatorIcEEEEP8BuildingEEPvEEEC2B8ne180100Ev, symObjAddr: 0x8F8, symBinAddr: 0x1000039A0, symSize: 0x18 }
  - { offset: 0x142FF, size: 0x8, addend: 0x0, symName: __ZNSt3__19allocatorINS_11__hash_nodeINS_17__hash_value_typeINS_12basic_stringIcNS_11char_traitsIcEENS0_IcEEEEP8BuildingEEPvEEEC2B8ne180100Ev, symObjAddr: 0x910, symBinAddr: 0x1000039B8, symSize: 0x2C }
  - { offset: 0x14329, size: 0x8, addend: 0x0, symName: __ZNSt3__116__non_trivial_ifILb1ENS_9allocatorINS_11__hash_nodeINS_17__hash_value_typeINS_12basic_stringIcNS_11char_traitsIcEENS1_IcEEEEP8BuildingEEPvEEEEEC2B8ne180100Ev, symObjAddr: 0x93C, symBinAddr: 0x1000039E4, symSize: 0x14 }
  - { offset: 0x14353, size: 0x8, addend: 0x0, symName: __ZNSt3__117__compressed_pairImNS_22__unordered_map_hasherINS_12basic_stringIcNS_11char_traitsIcEENS_9allocatorIcEEEENS_17__hash_value_typeIS7_P8BuildingEENS_4hashIS7_EENS_8equal_toIS7_EELb1EEEEC2B8ne180100IiNS_18__default_init_tagEEEOT_OT0_, symObjAddr: 0x950, symBinAddr: 0x1000039F8, symSize: 0x40 }
  - { offset: 0x143AB, size: 0x8, addend: 0x0, symName: __ZNSt3__122__compressed_pair_elemINS_22__unordered_map_hasherINS_12basic_stringIcNS_11char_traitsIcEENS_9allocatorIcEEEENS_17__hash_value_typeIS7_P8BuildingEENS_4hashIS7_EENS_8equal_toIS7_EELb1EEELi1ELb1EEC2B8ne180100ENS_18__default_init_tagE, symObjAddr: 0x990, symBinAddr: 0x100003A38, symSize: 0x2C }
  - { offset: 0x143E0, size: 0x8, addend: 0x0, symName: __ZNSt3__122__unordered_map_hasherINS_12basic_stringIcNS_11char_traitsIcEENS_9allocatorIcEEEENS_17__hash_value_typeIS6_P8BuildingEENS_4hashIS6_EENS_8equal_toIS6_EELb1EEC2B8ne180100Ev, symObjAddr: 0x9BC, symBinAddr: 0x100003A64, symSize: 0x14 }
  - { offset: 0x1440A, size: 0x8, addend: 0x0, symName: __ZNSt3__117__compressed_pairIfNS_21__unordered_map_equalINS_12basic_stringIcNS_11char_traitsIcEENS_9allocatorIcEEEENS_17__hash_value_typeIS7_P8BuildingEENS_8equal_toIS7_EENS_4hashIS7_EELb1EEEEC2B8ne180100IfNS_18__default_init_tagEEEOT_OT0_, symObjAddr: 0x9D0, symBinAddr: 0x100003A78, symSize: 0x40 }
  - { offset: 0x14462, size: 0x8, addend: 0x0, symName: __ZNSt3__122__compressed_pair_elemIfLi0ELb0EEC2B8ne180100IfvEEOT_, symObjAddr: 0xA10, symBinAddr: 0x100003AB8, symSize: 0x24 }
  - { offset: 0x144A4, size: 0x8, addend: 0x0, symName: __ZNSt3__122__compressed_pair_elemINS_21__unordered_map_equalINS_12basic_stringIcNS_11char_traitsIcEENS_9allocatorIcEEEENS_17__hash_value_typeIS7_P8BuildingEENS_8equal_toIS7_EENS_4hashIS7_EELb1EEELi1ELb1EEC2B8ne180100ENS_18__default_init_tagE, symObjAddr: 0xA34, symBinAddr: 0x100003ADC, symSize: 0x2C }
  - { offset: 0x144D9, size: 0x8, addend: 0x0, symName: __ZNSt3__121__unordered_map_equalINS_12basic_stringIcNS_11char_traitsIcEENS_9allocatorIcEEEENS_17__hash_value_typeIS6_P8BuildingEENS_8equal_toIS6_EENS_4hashIS6_EELb1EEC2B8ne180100Ev, symObjAddr: 0xA60, symBinAddr: 0x100003B08, symSize: 0x14 }
  - { offset: 0x14503, size: 0x8, addend: 0x0, symName: __ZNSt3__113unordered_mapINS_12basic_stringIcNS_11char_traitsIcEENS_9allocatorIcEEEEP8BuildingNS_4hashIS6_EENS_8equal_toIS6_EENS4_INS_4pairIKS6_S8_EEEEED2B8ne180100Ev, symObjAddr: 0xA74, symBinAddr: 0x100003B1C, symSize: 0x2C }
  - { offset: 0x1452D, size: 0x8, addend: 0x0, symName: __ZNSt3__112__hash_tableINS_17__hash_value_typeINS_12basic_stringIcNS_11char_traitsIcEENS_9allocatorIcEEEEP8BuildingEENS_22__unordered_map_hasherIS7_SA_NS_4hashIS7_EENS_8equal_toIS7_EELb1EEENS_21__unordered_map_equalIS7_SA_SF_SD_Lb1EEENS5_ISA_EEED1Ev, symObjAddr: 0xAA0, symBinAddr: 0x100003B48, symSize: 0x2C }
  - { offset: 0x14559, size: 0x8, addend: 0x0, symName: __ZNSt3__112__hash_tableINS_17__hash_value_typeINS_12basic_stringIcNS_11char_traitsIcEENS_9allocatorIcEEEEP8BuildingEENS_22__unordered_map_hasherIS7_SA_NS_4hashIS7_EENS_8equal_toIS7_EELb1EEENS_21__unordered_map_equalIS7_SA_SF_SD_Lb1EEENS5_ISA_EEED2Ev, symObjAddr: 0xACC, symBinAddr: 0x100003B74, symSize: 0x48 }
  - { offset: 0x14585, size: 0x8, addend: 0x0, symName: __ZNSt3__112__hash_tableINS_17__hash_value_typeINS_12basic_stringIcNS_11char_traitsIcEENS_9allocatorIcEEEEP8BuildingEENS_22__unordered_map_hasherIS7_SA_NS_4hashIS7_EENS_8equal_toIS7_EELb1EEENS_21__unordered_map_equalIS7_SA_SF_SD_Lb1EEENS5_ISA_EEE17__deallocate_nodeEPNS_16__hash_node_baseIPNS_11__hash_nodeISA_PvEEEE, symObjAddr: 0xB14, symBinAddr: 0x100003BBC, symSize: 0xC0 }
  - { offset: 0x145F0, size: 0x8, addend: 0x0, symName: __ZNSt3__117__compressed_pairINS_16__hash_node_baseIPNS_11__hash_nodeINS_17__hash_value_typeINS_12basic_stringIcNS_11char_traitsIcEENS_9allocatorIcEEEEP8BuildingEEPvEEEENS7_ISE_EEE5firstB8ne180100Ev, symObjAddr: 0xBD4, symBinAddr: 0x100003C7C, symSize: 0x24 }
  - { offset: 0x14616, size: 0x8, addend: 0x0, symName: __ZNSt3__110unique_ptrIA_PNS_16__hash_node_baseIPNS_11__hash_nodeINS_17__hash_value_typeINS_12basic_stringIcNS_11char_traitsIcEENS_9allocatorIcEEEEP8BuildingEEPvEEEENS_25__bucket_list_deallocatorINS7_ISH_EEEEED1B8ne180100Ev, symObjAddr: 0xBF8, symBinAddr: 0x100003CA0, symSize: 0x2C }
  - { offset: 0x14640, size: 0x8, addend: 0x0, symName: __ZNSt3__112__hash_tableINS_17__hash_value_typeINS_12basic_stringIcNS_11char_traitsIcEENS_9allocatorIcEEEEP8BuildingEENS_22__unordered_map_hasherIS7_SA_NS_4hashIS7_EENS_8equal_toIS7_EELb1EEENS_21__unordered_map_equalIS7_SA_SF_SD_Lb1EEENS5_ISA_EEE12__node_allocB8ne180100Ev, symObjAddr: 0xC24, symBinAddr: 0x100003CCC, symSize: 0x28 }
  - { offset: 0x14666, size: 0x8, addend: 0x0, symName: __ZNSt3__116__hash_node_baseIPNS_11__hash_nodeINS_17__hash_value_typeINS_12basic_stringIcNS_11char_traitsIcEENS_9allocatorIcEEEEP8BuildingEEPvEEE8__upcastB8ne180100Ev, symObjAddr: 0xC4C, symBinAddr: 0x100003CF4, symSize: 0x24 }
  - { offset: 0x14692, size: 0x8, addend: 0x0, symName: __ZNSt3__116allocator_traitsINS_9allocatorINS_11__hash_nodeINS_17__hash_value_typeINS_12basic_stringIcNS_11char_traitsIcEENS1_IcEEEEP8BuildingEEPvEEEEE7destroyB8ne180100INS_4pairIKS8_SA_EEvvEEvRSE_PT_, symObjAddr: 0xC70, symBinAddr: 0x100003D18, symSize: 0x28 }
  - { offset: 0x146CD, size: 0x8, addend: 0x0, symName: __ZNSt3__122__hash_key_value_typesINS_17__hash_value_typeINS_12basic_stringIcNS_11char_traitsIcEENS_9allocatorIcEEEEP8BuildingEEE9__get_ptrB8ne180100ERSA_, symObjAddr: 0xC98, symBinAddr: 0x100003D40, symSize: 0x24 }
  - { offset: 0x146F0, size: 0x8, addend: 0x0, symName: __ZNSt3__111__hash_nodeINS_17__hash_value_typeINS_12basic_stringIcNS_11char_traitsIcEENS_9allocatorIcEEEEP8BuildingEEPvE11__get_valueB8ne180100Ev, symObjAddr: 0xCBC, symBinAddr: 0x100003D64, symSize: 0x18 }
  - { offset: 0x14716, size: 0x8, addend: 0x0, symName: __ZNSt3__116allocator_traitsINS_9allocatorINS_11__hash_nodeINS_17__hash_value_typeINS_12basic_stringIcNS_11char_traitsIcEENS1_IcEEEEP8BuildingEEPvEEEEE10deallocateB8ne180100ERSE_PSD_m, symObjAddr: 0xCF8, symBinAddr: 0x100003DA0, symSize: 0x34 }
  - { offset: 0x14758, size: 0x8, addend: 0x0, symName: __ZNSt3__117__compressed_pairINS_16__hash_node_baseIPNS_11__hash_nodeINS_17__hash_value_typeINS_12basic_stringIcNS_11char_traitsIcEENS_9allocatorIcEEEEP8BuildingEEPvEEEENS7_ISE_EEE6secondB8ne180100Ev, symObjAddr: 0xD2C, symBinAddr: 0x100003DD4, symSize: 0x24 }
  - { offset: 0x1477E, size: 0x8, addend: 0x0, symName: __ZNSt3__122__compressed_pair_elemINS_9allocatorINS_11__hash_nodeINS_17__hash_value_typeINS_12basic_stringIcNS_11char_traitsIcEENS1_IcEEEEP8BuildingEEPvEEEELi1ELb1EE5__getB8ne180100Ev, symObjAddr: 0xD50, symBinAddr: 0x100003DF8, symSize: 0x14 }
  - { offset: 0x147A4, size: 0x8, addend: 0x0, symName: __ZNSt3__114pointer_traitsIPNS_16__hash_node_baseIPNS_11__hash_nodeINS_17__hash_value_typeINS_12basic_stringIcNS_11char_traitsIcEENS_9allocatorIcEEEEP8BuildingEEPvEEEEE10pointer_toB8ne180100ERSG_, symObjAddr: 0xD64, symBinAddr: 0x100003E0C, symSize: 0x14 }
  - { offset: 0x147C7, size: 0x8, addend: 0x0, symName: __ZNSt3__14pairIKNS_12basic_stringIcNS_11char_traitsIcEENS_9allocatorIcEEEEP8BuildingED1Ev, symObjAddr: 0xD9C, symBinAddr: 0x100003E44, symSize: 0x2C }
  - { offset: 0x147F3, size: 0x8, addend: 0x0, symName: __ZNSt3__14pairIKNS_12basic_stringIcNS_11char_traitsIcEENS_9allocatorIcEEEEP8BuildingED2Ev, symObjAddr: 0xDC8, symBinAddr: 0x100003E70, symSize: 0x2C }
  - { offset: 0x1481F, size: 0x8, addend: 0x0, symName: __ZNSt3__117__hash_value_typeINS_12basic_stringIcNS_11char_traitsIcEENS_9allocatorIcEEEEP8BuildingE11__get_valueB8ne180100Ev, symObjAddr: 0xDF4, symBinAddr: 0x100003E9C, symSize: 0x24 }
  - { offset: 0x14845, size: 0x8, addend: 0x0, symName: __ZNSt3__111__hash_nodeINS_17__hash_value_typeINS_12basic_stringIcNS_11char_traitsIcEENS_9allocatorIcEEEEP8BuildingEEPvED1B8ne180100Ev, symObjAddr: 0xE50, symBinAddr: 0x100003EF8, symSize: 0x2C }
  - { offset: 0x1486F, size: 0x8, addend: 0x0, symName: __ZNSt3__111__hash_nodeINS_17__hash_value_typeINS_12basic_stringIcNS_11char_traitsIcEENS_9allocatorIcEEEEP8BuildingEEPvED2B8ne180100Ev, symObjAddr: 0xE7C, symBinAddr: 0x100003F24, symSize: 0x14 }
  - { offset: 0x14899, size: 0x8, addend: 0x0, symName: __ZNSt3__19allocatorINS_11__hash_nodeINS_17__hash_value_typeINS_12basic_stringIcNS_11char_traitsIcEENS0_IcEEEEP8BuildingEEPvEEE10deallocateB8ne180100EPSC_m, symObjAddr: 0xE90, symBinAddr: 0x100003F38, symSize: 0x44 }
  - { offset: 0x148DB, size: 0x8, addend: 0x0, symName: __ZNSt3__122__compressed_pair_elemINS_16__hash_node_baseIPNS_11__hash_nodeINS_17__hash_value_typeINS_12basic_stringIcNS_11char_traitsIcEENS_9allocatorIcEEEEP8BuildingEEPvEEEELi0ELb0EE5__getB8ne180100Ev, symObjAddr: 0xFFC, symBinAddr: 0x1000040A4, symSize: 0x14 }
  - { offset: 0x14901, size: 0x8, addend: 0x0, symName: __ZNSt3__110unique_ptrIA_PNS_16__hash_node_baseIPNS_11__hash_nodeINS_17__hash_value_typeINS_12basic_stringIcNS_11char_traitsIcEENS_9allocatorIcEEEEP8BuildingEEPvEEEENS_25__bucket_list_deallocatorINS7_ISH_EEEEED2B8ne180100Ev, symObjAddr: 0x1010, symBinAddr: 0x1000040B8, symSize: 0x30 }
  - { offset: 0x1492B, size: 0x8, addend: 0x0, symName: __ZNSt3__110unique_ptrIA_PNS_16__hash_node_baseIPNS_11__hash_nodeINS_17__hash_value_typeINS_12basic_stringIcNS_11char_traitsIcEENS_9allocatorIcEEEEP8BuildingEEPvEEEENS_25__bucket_list_deallocatorINS7_ISH_EEEEE5resetB8ne180100EDn, symObjAddr: 0x1040, symBinAddr: 0x1000040E8, symSize: 0x6C }
  - { offset: 0x1496C, size: 0x8, addend: 0x0, symName: __ZNSt3__117__compressed_pairIPPNS_16__hash_node_baseIPNS_11__hash_nodeINS_17__hash_value_typeINS_12basic_stringIcNS_11char_traitsIcEENS_9allocatorIcEEEEP8BuildingEEPvEEEENS_25__bucket_list_deallocatorINS7_ISH_EEEEE5firstB8ne180100Ev, symObjAddr: 0x10AC, symBinAddr: 0x100004154, symSize: 0x24 }
  - { offset: 0x14992, size: 0x8, addend: 0x0, symName: __ZNSt3__117__compressed_pairIPPNS_16__hash_node_baseIPNS_11__hash_nodeINS_17__hash_value_typeINS_12basic_stringIcNS_11char_traitsIcEENS_9allocatorIcEEEEP8BuildingEEPvEEEENS_25__bucket_list_deallocatorINS7_ISH_EEEEE6secondB8ne180100Ev, symObjAddr: 0x10D0, symBinAddr: 0x100004178, symSize: 0x28 }
  - { offset: 0x149B8, size: 0x8, addend: 0x0, symName: __ZNSt3__125__bucket_list_deallocatorINS_9allocatorIPNS_16__hash_node_baseIPNS_11__hash_nodeINS_17__hash_value_typeINS_12basic_stringIcNS_11char_traitsIcEENS1_IcEEEEP8BuildingEEPvEEEEEEEclB8ne180100EPSH_, symObjAddr: 0x10F8, symBinAddr: 0x1000041A0, symSize: 0x58 }
  - { offset: 0x149ED, size: 0x8, addend: 0x0, symName: __ZNSt3__122__compressed_pair_elemIPPNS_16__hash_node_baseIPNS_11__hash_nodeINS_17__hash_value_typeINS_12basic_stringIcNS_11char_traitsIcEENS_9allocatorIcEEEEP8BuildingEEPvEEEELi0ELb0EE5__getB8ne180100Ev, symObjAddr: 0x1150, symBinAddr: 0x1000041F8, symSize: 0x14 }
  - { offset: 0x14A13, size: 0x8, addend: 0x0, symName: __ZNSt3__122__compressed_pair_elemINS_25__bucket_list_deallocatorINS_9allocatorIPNS_16__hash_node_baseIPNS_11__hash_nodeINS_17__hash_value_typeINS_12basic_stringIcNS_11char_traitsIcEENS2_IcEEEEP8BuildingEEPvEEEEEEEELi1ELb0EE5__getB8ne180100Ev, symObjAddr: 0x1164, symBinAddr: 0x10000420C, symSize: 0x14 }
  - { offset: 0x14A39, size: 0x8, addend: 0x0, symName: __ZNSt3__116allocator_traitsINS_9allocatorIPNS_16__hash_node_baseIPNS_11__hash_nodeINS_17__hash_value_typeINS_12basic_stringIcNS_11char_traitsIcEENS1_IcEEEEP8BuildingEEPvEEEEEEE10deallocateB8ne180100ERSI_PSH_m, symObjAddr: 0x1178, symBinAddr: 0x100004220, symSize: 0x34 }
  - { offset: 0x14A7B, size: 0x8, addend: 0x0, symName: __ZNSt3__125__bucket_list_deallocatorINS_9allocatorIPNS_16__hash_node_baseIPNS_11__hash_nodeINS_17__hash_value_typeINS_12basic_stringIcNS_11char_traitsIcEENS1_IcEEEEP8BuildingEEPvEEEEEEE7__allocB8ne180100Ev, symObjAddr: 0x11AC, symBinAddr: 0x100004254, symSize: 0x24 }
  - { offset: 0x14AA1, size: 0x8, addend: 0x0, symName: __ZNSt3__125__bucket_list_deallocatorINS_9allocatorIPNS_16__hash_node_baseIPNS_11__hash_nodeINS_17__hash_value_typeINS_12basic_stringIcNS_11char_traitsIcEENS1_IcEEEEP8BuildingEEPvEEEEEEE4sizeB8ne180100Ev, symObjAddr: 0x11D0, symBinAddr: 0x100004278, symSize: 0x24 }
  - { offset: 0x14AC7, size: 0x8, addend: 0x0, symName: __ZNSt3__19allocatorIPNS_16__hash_node_baseIPNS_11__hash_nodeINS_17__hash_value_typeINS_12basic_stringIcNS_11char_traitsIcEENS0_IcEEEEP8BuildingEEPvEEEEE10deallocateB8ne180100EPSG_m, symObjAddr: 0x11F4, symBinAddr: 0x10000429C, symSize: 0x40 }
  - { offset: 0x14B09, size: 0x8, addend: 0x0, symName: __ZNSt3__117__compressed_pairImNS_9allocatorIPNS_16__hash_node_baseIPNS_11__hash_nodeINS_17__hash_value_typeINS_12basic_stringIcNS_11char_traitsIcEENS1_IcEEEEP8BuildingEEPvEEEEEEE6secondB8ne180100Ev, symObjAddr: 0x1234, symBinAddr: 0x1000042DC, symSize: 0x24 }
  - { offset: 0x14B2F, size: 0x8, addend: 0x0, symName: __ZNSt3__122__compressed_pair_elemINS_9allocatorIPNS_16__hash_node_baseIPNS_11__hash_nodeINS_17__hash_value_typeINS_12basic_stringIcNS_11char_traitsIcEENS1_IcEEEEP8BuildingEEPvEEEEEELi1ELb1EE5__getB8ne180100Ev, symObjAddr: 0x1258, symBinAddr: 0x100004300, symSize: 0x14 }
  - { offset: 0x14B55, size: 0x8, addend: 0x0, symName: __ZNSt3__117__compressed_pairImNS_9allocatorIPNS_16__hash_node_baseIPNS_11__hash_nodeINS_17__hash_value_typeINS_12basic_stringIcNS_11char_traitsIcEENS1_IcEEEEP8BuildingEEPvEEEEEEE5firstB8ne180100Ev, symObjAddr: 0x126C, symBinAddr: 0x100004314, symSize: 0x24 }
  - { offset: 0x14B7B, size: 0x8, addend: 0x0, symName: __ZNSt3__122__compressed_pair_elemImLi0ELb0EE5__getB8ne180100Ev, symObjAddr: 0x1290, symBinAddr: 0x100004338, symSize: 0x14 }
  - { offset: 0x14BA1, size: 0x8, addend: 0x0, symName: __ZNSt3__112__hash_tableINS_17__hash_value_typeINS_12basic_stringIcNS_11char_traitsIcEENS_9allocatorIcEEEEP8BuildingEENS_22__unordered_map_hasherIS7_SA_NS_4hashIS7_EENS_8equal_toIS7_EELb1EEENS_21__unordered_map_equalIS7_SA_SF_SD_Lb1EEENS5_ISA_EEE5beginEv, symObjAddr: 0x12A4, symBinAddr: 0x10000434C, symSize: 0x38 }
  - { offset: 0x14BC9, size: 0x8, addend: 0x0, symName: __ZNSt3__119__hash_map_iteratorINS_15__hash_iteratorIPNS_11__hash_nodeINS_17__hash_value_typeINS_12basic_stringIcNS_11char_traitsIcEENS_9allocatorIcEEEEP8BuildingEEPvEEEEEC1B8ne180100ESG_, symObjAddr: 0x12DC, symBinAddr: 0x100004384, symSize: 0x34 }
  - { offset: 0x14C02, size: 0x8, addend: 0x0, symName: __ZNSt3__115__hash_iteratorIPNS_11__hash_nodeINS_17__hash_value_typeINS_12basic_stringIcNS_11char_traitsIcEENS_9allocatorIcEEEEP8BuildingEEPvEEEC1B8ne180100EPNS_16__hash_node_baseISE_EE, symObjAddr: 0x1310, symBinAddr: 0x1000043B8, symSize: 0x34 }
  - { offset: 0x14C3B, size: 0x8, addend: 0x0, symName: __ZNSt3__115__hash_iteratorIPNS_11__hash_nodeINS_17__hash_value_typeINS_12basic_stringIcNS_11char_traitsIcEENS_9allocatorIcEEEEP8BuildingEEPvEEEC2B8ne180100EPNS_16__hash_node_baseISE_EE, symObjAddr: 0x1344, symBinAddr: 0x1000043EC, symSize: 0x20 }
  - { offset: 0x14C74, size: 0x8, addend: 0x0, symName: __ZNSt3__119__hash_map_iteratorINS_15__hash_iteratorIPNS_11__hash_nodeINS_17__hash_value_typeINS_12basic_stringIcNS_11char_traitsIcEENS_9allocatorIcEEEEP8BuildingEEPvEEEEEC2B8ne180100ESG_, symObjAddr: 0x1364, symBinAddr: 0x10000440C, symSize: 0x20 }
  - { offset: 0x14CAD, size: 0x8, addend: 0x0, symName: __ZNSt3__114pointer_traitsIPNS_4pairIKNS_12basic_stringIcNS_11char_traitsIcEENS_9allocatorIcEEEEP8BuildingEEE10pointer_toB8ne180100ERSB_, symObjAddr: 0x1384, symBinAddr: 0x10000442C, symSize: 0x14 }
  - { offset: 0x14CD0, size: 0x8, addend: 0x0, symName: __ZNKSt3__115__hash_iteratorIPNS_11__hash_nodeINS_17__hash_value_typeINS_12basic_stringIcNS_11char_traitsIcEENS_9allocatorIcEEEEP8BuildingEEPvEEEptB8ne180100Ev, symObjAddr: 0x1398, symBinAddr: 0x100004440, symSize: 0x30 }
  - { offset: 0x14CF6, size: 0x8, addend: 0x0, symName: __ZNSt3__114pointer_traitsIPNS_17__hash_value_typeINS_12basic_stringIcNS_11char_traitsIcEENS_9allocatorIcEEEEP8BuildingEEE10pointer_toB8ne180100ERSA_, symObjAddr: 0x13C8, symBinAddr: 0x100004470, symSize: 0x14 }
  - { offset: 0x14D19, size: 0x8, addend: 0x0, symName: __ZNSt3__16vectorIP4RoomNS_9allocatorIS2_EEED2B8ne180100Ev, symObjAddr: 0x13DC, symBinAddr: 0x100004484, symSize: 0x44 }
  - { offset: 0x14D43, size: 0x8, addend: 0x0, symName: __ZNSt3__16vectorIP4RoomNS_9allocatorIS2_EEE16__destroy_vectorC1B8ne180100ERS5_, symObjAddr: 0x1420, symBinAddr: 0x1000044C8, symSize: 0x34 }
  - { offset: 0x14D7C, size: 0x8, addend: 0x0, symName: __ZNSt3__16vectorIP4RoomNS_9allocatorIS2_EEE16__destroy_vectorclB8ne180100Ev, symObjAddr: 0x1454, symBinAddr: 0x1000044FC, symSize: 0x90 }
  - { offset: 0x14DA2, size: 0x8, addend: 0x0, symName: __ZNSt3__16vectorIP4RoomNS_9allocatorIS2_EEE16__destroy_vectorC2B8ne180100ERS5_, symObjAddr: 0x14E4, symBinAddr: 0x10000458C, symSize: 0x20 }
  - { offset: 0x14DDB, size: 0x8, addend: 0x0, symName: __ZNSt3__16vectorIP4RoomNS_9allocatorIS2_EEE7__clearB8ne180100Ev, symObjAddr: 0x1504, symBinAddr: 0x1000045AC, symSize: 0x28 }
  - { offset: 0x14E01, size: 0x8, addend: 0x0, symName: __ZNKSt3__16vectorIP4RoomNS_9allocatorIS2_EEE17__annotate_deleteB8ne180100Ev, symObjAddr: 0x152C, symBinAddr: 0x1000045D4, symSize: 0x10 }
  - { offset: 0x14E27, size: 0x8, addend: 0x0, symName: __ZNSt3__116allocator_traitsINS_9allocatorIP4RoomEEE10deallocateB8ne180100ERS4_PS3_m, symObjAddr: 0x153C, symBinAddr: 0x1000045E4, symSize: 0x34 }
  - { offset: 0x14E69, size: 0x8, addend: 0x0, symName: __ZNSt3__16vectorIP4RoomNS_9allocatorIS2_EEE7__allocB8ne180100Ev, symObjAddr: 0x1570, symBinAddr: 0x100004618, symSize: 0x28 }
  - { offset: 0x14E8F, size: 0x8, addend: 0x0, symName: __ZNKSt3__16vectorIP4RoomNS_9allocatorIS2_EEE8capacityB8ne180100Ev, symObjAddr: 0x1598, symBinAddr: 0x100004640, symSize: 0x40 }
  - { offset: 0x14EB5, size: 0x8, addend: 0x0, symName: __ZNSt3__16vectorIP4RoomNS_9allocatorIS2_EEE22__base_destruct_at_endB8ne180100EPS2_, symObjAddr: 0x15D8, symBinAddr: 0x100004680, symSize: 0x8C }
  - { offset: 0x14EF9, size: 0x8, addend: 0x0, symName: __ZNSt3__116allocator_traitsINS_9allocatorIP4RoomEEE7destroyB8ne180100IS3_vEEvRS4_PT_, symObjAddr: 0x1664, symBinAddr: 0x10000470C, symSize: 0x2C }
  - { offset: 0x14F36, size: 0x8, addend: 0x0, symName: __ZNSt3__19allocatorIP4RoomE7destroyB8ne180100EPS2_, symObjAddr: 0x16A4, symBinAddr: 0x10000474C, symSize: 0x14 }
  - { offset: 0x14F6A, size: 0x8, addend: 0x0, symName: __ZNSt3__19allocatorIP4RoomE10deallocateB8ne180100EPS2_m, symObjAddr: 0x16B8, symBinAddr: 0x100004760, symSize: 0x40 }
  - { offset: 0x14FAC, size: 0x8, addend: 0x0, symName: __ZNSt3__117__compressed_pairIPP4RoomNS_9allocatorIS2_EEE6secondB8ne180100Ev, symObjAddr: 0x16F8, symBinAddr: 0x1000047A0, symSize: 0x24 }
  - { offset: 0x14FD2, size: 0x8, addend: 0x0, symName: __ZNSt3__122__compressed_pair_elemINS_9allocatorIP4RoomEELi1ELb1EE5__getB8ne180100Ev, symObjAddr: 0x171C, symBinAddr: 0x1000047C4, symSize: 0x14 }
  - { offset: 0x14FF8, size: 0x8, addend: 0x0, symName: __ZNKSt3__16vectorIP4RoomNS_9allocatorIS2_EEE9__end_capB8ne180100Ev, symObjAddr: 0x1730, symBinAddr: 0x1000047D8, symSize: 0x28 }
  - { offset: 0x1501E, size: 0x8, addend: 0x0, symName: __ZNKSt3__117__compressed_pairIPP4RoomNS_9allocatorIS2_EEE5firstB8ne180100Ev, symObjAddr: 0x1758, symBinAddr: 0x100004800, symSize: 0x24 }
  - { offset: 0x15044, size: 0x8, addend: 0x0, symName: __ZNKSt3__122__compressed_pair_elemIPP4RoomLi0ELb0EE5__getB8ne180100Ev, symObjAddr: 0x177C, symBinAddr: 0x100004824, symSize: 0x14 }
  - { offset: 0x1D2F7, size: 0x8, addend: 0x0, symName: __ZNSt3__1eqB8ne180100IcNS_11char_traitsIcEENS_9allocatorIcEEEEbRKNS_12basic_stringIT_T0_T1_EEPKS6_, symObjAddr: 0x5A4, symBinAddr: 0x100004DDC, symSize: 0xAC }
  - { offset: 0x1D35E, size: 0x8, addend: 0x0, symName: __ZNSt3__1neB8ne180100IPNS_6vectorIdNS_9allocatorIdEEEEEEbRKNS_11__wrap_iterIT_EESA_, symObjAddr: 0xE94, symBinAddr: 0x1000056CC, symSize: 0x34 }
  - { offset: 0x1D3A1, size: 0x8, addend: 0x0, symName: __ZNSt3__1eqB8ne180100IPNS_6vectorIdNS_9allocatorIdEEEEEEbRKNS_11__wrap_iterIT_EESA_, symObjAddr: 0xF24, symBinAddr: 0x10000575C, symSize: 0x48 }
  - { offset: 0x1D3E4, size: 0x8, addend: 0x0, symName: __ZNSt3__112__to_addressB8ne180100INS_6vectorIdNS_9allocatorIdEEEEEEPT_S6_, symObjAddr: 0x14F8, symBinAddr: 0x100005CB4, symSize: 0x14 }
  - { offset: 0x1D419, size: 0x8, addend: 0x0, symName: __ZNSt3__13maxB8ne180100ImEERKT_S3_S3_, symObjAddr: 0x2104, symBinAddr: 0x100006740, symSize: 0x2C }
  - { offset: 0x1D45C, size: 0x8, addend: 0x0, symName: __ZNSt3__13minB8ne180100ImEERKT_S3_S3_, symObjAddr: 0x2130, symBinAddr: 0x10000676C, symSize: 0x2C }
  - { offset: 0x1D689, size: 0x8, addend: 0x0, symName: __ZNSt3__13minB8ne180100ImNS_6__lessIvvEEEERKT_S5_S5_T0_, symObjAddr: 0x21BC, symBinAddr: 0x1000067F8, symSize: 0x54 }
  - { offset: 0x1D729, size: 0x8, addend: 0x0, symName: __ZNSt3__120__throw_length_errorB8ne180100EPKc, symObjAddr: 0x229C, symBinAddr: 0x1000068D8, symSize: 0x64 }
  - { offset: 0x1D751, size: 0x8, addend: 0x0, symName: __ZNSt3__13maxB8ne180100ImNS_6__lessIvvEEEERKT_S5_S5_T0_, symObjAddr: 0x2378, symBinAddr: 0x1000069B4, symSize: 0x54 }
  - { offset: 0x1D7AB, size: 0x8, addend: 0x0, symName: __ZNSt3__119__allocate_at_leastB8ne180100INS_9allocatorINS_6vectorIdNS1_IdEEEEEEEENS_19__allocation_resultINS_16allocator_traitsIT_E7pointerEEERS8_m, symObjAddr: 0x24E8, symBinAddr: 0x100006B24, symSize: 0x40 }
  - { offset: 0x1D7EE, size: 0x8, addend: 0x0, symName: __ZNSt3__117__libcpp_allocateB8ne180100Emm, symObjAddr: 0x2670, symBinAddr: 0x100006CAC, symSize: 0x60 }
  - { offset: 0x1D848, size: 0x8, addend: 0x0, symName: __ZNSt3__121__libcpp_operator_newB8ne180100IJmSt11align_val_tEEEPvDpT_, symObjAddr: 0x26D0, symBinAddr: 0x100006D0C, symSize: 0x2C }
  - { offset: 0x1D895, size: 0x8, addend: 0x0, symName: __ZNSt3__121__libcpp_operator_newB8ne180100IJmEEEPvDpT_, symObjAddr: 0x26FC, symBinAddr: 0x100006D38, symSize: 0x24 }
  - { offset: 0x1D8CE, size: 0x8, addend: 0x0, symName: __ZNSt3__142__uninitialized_allocator_move_if_noexceptB8ne180100INS_9allocatorINS_6vectorIdNS1_IdEEEEEENS_16reverse_iteratorIPS4_EES8_S8_EET2_RT_T0_T1_S9_, symObjAddr: 0x2784, symBinAddr: 0x100006DC0, symSize: 0x12C }
  - { offset: 0x1D96E, size: 0x8, addend: 0x0, symName: __ZNSt3__14swapB8ne180100IPNS_6vectorIdNS_9allocatorIdEEEEEENS_9enable_ifIXaasr21is_move_constructibleIT_EE5valuesr18is_move_assignableIS7_EE5valueEvE4typeERS7_SA_, symObjAddr: 0x28FC, symBinAddr: 0x100006F38, symSize: 0x3C }
  - { offset: 0x1D9C0, size: 0x8, addend: 0x0, symName: __ZNSt3__122__make_exception_guardB8ne180100INS_29_AllocatorDestroyRangeReverseINS_9allocatorINS_6vectorIdNS2_IdEEEEEENS_16reverse_iteratorIPS5_EEEEEENS_28__exception_guard_exceptionsIT_EESC_, symObjAddr: 0x294C, symBinAddr: 0x100006F88, symSize: 0x4C }
  - { offset: 0x1D9F6, size: 0x8, addend: 0x0, symName: __ZNSt3__1neB8ne180100IPNS_6vectorIdNS_9allocatorIdEEEES5_EEbRKNS_16reverse_iteratorIT_EERKNS6_IT0_EE, symObjAddr: 0x29DC, symBinAddr: 0x100007018, symSize: 0x48 }
  - { offset: 0x1DA42, size: 0x8, addend: 0x0, symName: __ZNSt3__112__to_addressB8ne180100INS_16reverse_iteratorIPNS_6vectorIdNS_9allocatorIdEEEEEEvEEu7__decayIDTclsr19__to_address_helperIT_EE6__callclsr3stdE7declvalIRKS8_EEEEESA_, symObjAddr: 0x2A24, symBinAddr: 0x100007060, symSize: 0x24 }
  - { offset: 0x1DAA2, size: 0x8, addend: 0x0, symName: __ZNSt3__119__allocator_destroyB8ne180100INS_9allocatorINS_6vectorIdNS1_IdEEEEEENS_16reverse_iteratorINS6_IPS4_EEEES9_EEvRT_T0_T1_, symObjAddr: 0x2CD4, symBinAddr: 0x100007310, symSize: 0x70 }
  - { offset: 0x1DB07, size: 0x8, addend: 0x0, symName: __ZNSt3__1neB8ne180100INS_16reverse_iteratorIPNS_6vectorIdNS_9allocatorIdEEEEEES7_EEbRKNS1_IT_EERKNS1_IT0_EE, symObjAddr: 0x2D80, symBinAddr: 0x1000073BC, symSize: 0x60 }
  - { offset: 0x1DB53, size: 0x8, addend: 0x0, symName: __ZNSt3__112__to_addressB8ne180100INS_16reverse_iteratorINS1_IPNS_6vectorIdNS_9allocatorIdEEEEEEEEvEEu7__decayIDTclsr19__to_address_helperIT_EE6__callclsr3stdE7declvalIRKS9_EEEEESB_, symObjAddr: 0x2DE0, symBinAddr: 0x10000741C, symSize: 0x24 }
  - { offset: 0x1DBB3, size: 0x8, addend: 0x0, symName: __ZNSt3__122__make_exception_guardB8ne180100INS_6vectorIdNS_9allocatorIdEEE16__destroy_vectorEEENS_28__exception_guard_exceptionsIT_EES7_, symObjAddr: 0x32A4, symBinAddr: 0x1000078E0, symSize: 0x40 }
  - { offset: 0x1DBE8, size: 0x8, addend: 0x0, symName: __ZNSt3__119__allocate_at_leastB8ne180100INS_9allocatorIdEEEENS_19__allocation_resultINS_16allocator_traitsIT_E7pointerEEERS5_m, symObjAddr: 0x3688, symBinAddr: 0x100007CC4, symSize: 0x40 }
  - { offset: 0x1DC2B, size: 0x8, addend: 0x0, symName: __ZNSt3__130__uninitialized_allocator_copyB8ne180100INS_9allocatorIdEEPKdS4_PdEET2_RT_T0_T1_S6_, symObjAddr: 0x3808, symBinAddr: 0x100007E44, symSize: 0x80 }
  - { offset: 0x1DCC8, size: 0x8, addend: 0x0, symName: __ZNSt3__114__unwrap_rangeB8ne180100IPKdS2_EENS_4pairIT0_S4_EET_S6_, symObjAddr: 0x38F8, symBinAddr: 0x100007F34, symSize: 0x60 }
  - { offset: 0x1DD14, size: 0x8, addend: 0x0, symName: __ZNSt3__135__uninitialized_allocator_copy_implB8ne180100INS_9allocatorIdEEKdddLPv0EEEPT2_RT_PT0_SA_S6_, symObjAddr: 0x3958, symBinAddr: 0x100007F94, symSize: 0x38 }
  - { offset: 0x1DD97, size: 0x8, addend: 0x0, symName: __ZNSt3__113__unwrap_iterB8ne180100IPdNS_18__unwrap_iter_implIS1_Lb1EEELi0EEEDTclsrT0_8__unwrapclsr3stdE7declvalIT_EEEES5_, symObjAddr: 0x3990, symBinAddr: 0x100007FCC, symSize: 0x24 }
  - { offset: 0x1DDDB, size: 0x8, addend: 0x0, symName: __ZNSt3__113__rewrap_iterB8ne180100IPdS1_NS_18__unwrap_iter_implIS1_Lb1EEEEET_S4_T0_, symObjAddr: 0x39B4, symBinAddr: 0x100007FF0, symSize: 0x3C }
  - { offset: 0x1DE30, size: 0x8, addend: 0x0, symName: __ZNSt3__19make_pairB8ne180100IPKdS2_EENS_4pairINS_18__unwrap_ref_decayIT_E4typeENS4_IT0_E4typeEEEOS5_OS8_, symObjAddr: 0x39F0, symBinAddr: 0x10000802C, symSize: 0x38 }
  - { offset: 0x1DE7F, size: 0x8, addend: 0x0, symName: __ZNSt3__113__unwrap_iterB8ne180100IPKdNS_18__unwrap_iter_implIS2_Lb1EEELi0EEEDTclsrT0_8__unwrapclsr3stdE7declvalIT_EEEES6_, symObjAddr: 0x3A28, symBinAddr: 0x100008064, symSize: 0x24 }
  - { offset: 0x1DFEA, size: 0x8, addend: 0x0, symName: __ZNSt3__112__to_addressB8ne180100IKdEEPT_S3_, symObjAddr: 0x3AE0, symBinAddr: 0x10000811C, symSize: 0x14 }
  - { offset: 0x1E01F, size: 0x8, addend: 0x0, symName: __ZNSt3__14copyB8ne180100IPKdPdEET0_T_S5_S4_, symObjAddr: 0x3AF4, symBinAddr: 0x100008130, symSize: 0x40 }
  - { offset: 0x1E079, size: 0x8, addend: 0x0, symName: __ZNSt3__16__copyB8ne180100INS_17_ClassicAlgPolicyEPKdS3_PdEENS_4pairIT0_T2_EES6_T1_S7_, symObjAddr: 0x3B34, symBinAddr: 0x100008170, symSize: 0x44 }
  - { offset: 0x1E0E5, size: 0x8, addend: 0x0, symName: __ZNSt3__123__dispatch_copy_or_moveB8ne180100INS_17_ClassicAlgPolicyENS_11__copy_loopIS1_EENS_14__copy_trivialEPKdS6_PdEENS_4pairIT2_T4_EES9_T3_SA_, symObjAddr: 0x3B78, symBinAddr: 0x1000081B4, symSize: 0x44 }
  - { offset: 0x1E163, size: 0x8, addend: 0x0, symName: __ZNSt3__121__unwrap_and_dispatchB8ne180100INS_10__overloadINS_11__copy_loopINS_17_ClassicAlgPolicyEEENS_14__copy_trivialEEEPKdS8_PdLi0EEENS_4pairIT0_T2_EESB_T1_SC_, symObjAddr: 0x3BBC, symBinAddr: 0x1000081F8, symSize: 0xB4 }
  - { offset: 0x1E33C, size: 0x8, addend: 0x0, symName: __ZNSt3__19make_pairB8ne180100IPKdPdEENS_4pairINS_18__unwrap_ref_decayIT_E4typeENS5_IT0_E4typeEEEOS6_OS9_, symObjAddr: 0x3CB8, symBinAddr: 0x1000082F4, symSize: 0x38 }
  - { offset: 0x1E38B, size: 0x8, addend: 0x0, symName: __ZNSt3__114__rewrap_rangeB8ne180100IPKdS2_EET_S3_T0_, symObjAddr: 0x3CF0, symBinAddr: 0x10000832C, symSize: 0x2C }
  - { offset: 0x1E3D7, size: 0x8, addend: 0x0, symName: __ZNSt3__119__copy_trivial_implB8ne180100IKddEENS_4pairIPT_PT0_EES4_S4_S6_, symObjAddr: 0x3D1C, symBinAddr: 0x100008358, symSize: 0x80 }
  - { offset: 0x1E440, size: 0x8, addend: 0x0, symName: __ZNSt3__119__constexpr_memmoveB8ne180100IdKdLi0EEEPT_S3_PT0_NS_15__element_countE, symObjAddr: 0x3D9C, symBinAddr: 0x1000083D8, symSize: 0x64 }
  - { offset: 0x1E4AF, size: 0x8, addend: 0x0, symName: __ZNSt3__19make_pairB8ne180100IRPKdPdEENS_4pairINS_18__unwrap_ref_decayIT_E4typeENS6_IT0_E4typeEEEOS7_OSA_, symObjAddr: 0x3E00, symBinAddr: 0x10000843C, symSize: 0x38 }
  - { offset: 0x1E4FE, size: 0x8, addend: 0x0, symName: __ZNSt3__113__rewrap_iterB8ne180100IPKdS2_NS_18__unwrap_iter_implIS2_Lb1EEEEET_S5_T0_, symObjAddr: 0x3F18, symBinAddr: 0x100008554, symSize: 0x3C }
  - { offset: 0x1E5A6, size: 0x8, addend: 0x0, symName: __ZNSt3__112__to_addressB8ne180100IdEEPT_S2_, symObjAddr: 0x3FC8, symBinAddr: 0x100008604, symSize: 0x14 }
  - { offset: 0x1F451, size: 0x8, addend: 0x0, symName: __ZSt28__throw_bad_array_new_lengthB8ne180100v, symObjAddr: 0x263C, symBinAddr: 0x100006C78, symSize: 0x34 }
  - { offset: 0x1F8D4, size: 0x8, addend: 0x0, symName: __ZNSt3__16vectorINS0_IdNS_9allocatorIdEEEENS1_IS3_EEE26__swap_out_circular_bufferERNS_14__split_bufferIS3_RS4_EE, symObjAddr: 0x1F4C, symBinAddr: 0x100006588, symSize: 0x110 }
  - { offset: 0x1FA9D, size: 0x8, addend: 0x0, symName: __ZN4RoomC2ENSt3__112basic_stringIcNS0_11char_traitsIcEENS0_9allocatorIcEEEES6_, symObjAddr: 0x0, symBinAddr: 0x100004838, symSize: 0x110 }
  - { offset: 0x1FAE7, size: 0x8, addend: 0x0, symName: __ZNSt3__112basic_stringIcNS_11char_traitsIcEENS_9allocatorIcEEEC1B8ne180100Ev, symObjAddr: 0x110, symBinAddr: 0x100004948, symSize: 0x2C }
  - { offset: 0x1FB11, size: 0x8, addend: 0x0, symName: __ZNSt3__16vectorINS0_IdNS_9allocatorIdEEEENS1_IS3_EEEC1B8ne180100Ev, symObjAddr: 0x13C, symBinAddr: 0x100004974, symSize: 0x2C }
  - { offset: 0x1FB3B, size: 0x8, addend: 0x0, symName: __ZNSt3__16vectorINS0_IdNS_9allocatorIdEEEENS1_IS3_EEED1B8ne180100Ev, symObjAddr: 0x168, symBinAddr: 0x1000049A0, symSize: 0x2C }
  - { offset: 0x1FB65, size: 0x8, addend: 0x0, symName: __ZN4RoomC1ENSt3__112basic_stringIcNS0_11char_traitsIcEENS0_9allocatorIcEEEES6_, symObjAddr: 0x194, symBinAddr: 0x1000049CC, symSize: 0x3C }
  - { offset: 0x1FBAF, size: 0x8, addend: 0x0, symName: __ZNK4Room11getBuildingEv, symObjAddr: 0x1D0, symBinAddr: 0x100004A08, symSize: 0x38 }
  - { offset: 0x1FBD7, size: 0x8, addend: 0x0, symName: __ZNK4Room9getNumberEv, symObjAddr: 0x208, symBinAddr: 0x100004A40, symSize: 0x3C }
  - { offset: 0x1FBFF, size: 0x8, addend: 0x0, symName: __ZN4Room8addEventEddNSt3__112basic_stringIcNS0_11char_traitsIcEENS0_9allocatorIcEEEE, symObjAddr: 0x244, symBinAddr: 0x100004A7C, symSize: 0x360 }
  - { offset: 0x1FC56, size: 0x8, addend: 0x0, symName: __ZNSt3__16vectorINS0_IdNS_9allocatorIdEEEENS1_IS3_EEE9push_backB8ne180100EOS3_, symObjAddr: 0x650, symBinAddr: 0x100004E88, symSize: 0x90 }
  - { offset: 0x1FC9C, size: 0x8, addend: 0x0, symName: __ZNSt3__16vectorIdNS_9allocatorIdEEEC1B8ne180100ESt16initializer_listIdE, symObjAddr: 0x6E0, symBinAddr: 0x100004F18, symSize: 0x3C }
  - { offset: 0x1FCD7, size: 0x8, addend: 0x0, symName: __ZNSt3__16vectorIdNS_9allocatorIdEEED1B8ne180100Ev, symObjAddr: 0x71C, symBinAddr: 0x100004F54, symSize: 0x2C }
  - { offset: 0x1FD01, size: 0x8, addend: 0x0, symName: __ZN4Room6isFreeEddNSt3__112basic_stringIcNS0_11char_traitsIcEENS0_9allocatorIcEEEE, symObjAddr: 0x748, symBinAddr: 0x100004F80, symSize: 0x6EC }
  - { offset: 0x1FF01, size: 0x8, addend: 0x0, symName: __ZNSt3__16vectorINS0_IdNS_9allocatorIdEEEENS1_IS3_EEE5beginB8ne180100Ev, symObjAddr: 0xE34, symBinAddr: 0x10000566C, symSize: 0x30 }
  - { offset: 0x1FF29, size: 0x8, addend: 0x0, symName: __ZNSt3__16vectorINS0_IdNS_9allocatorIdEEEENS1_IS3_EEE3endB8ne180100Ev, symObjAddr: 0xE64, symBinAddr: 0x10000569C, symSize: 0x30 }
  - { offset: 0x1FF51, size: 0x8, addend: 0x0, symName: __ZNKSt3__111__wrap_iterIPNS_6vectorIdNS_9allocatorIdEEEEEdeB8ne180100Ev, symObjAddr: 0xEC8, symBinAddr: 0x100005700, symSize: 0x18 }
  - { offset: 0x1FF77, size: 0x8, addend: 0x0, symName: __ZNKSt3__16vectorIdNS_9allocatorIdEEEixB8ne180100Em, symObjAddr: 0xEE0, symBinAddr: 0x100005718, symSize: 0x24 }
  - { offset: 0x1FFAE, size: 0x8, addend: 0x0, symName: __ZNSt3__111__wrap_iterIPNS_6vectorIdNS_9allocatorIdEEEEEppB8ne180100Ev, symObjAddr: 0xF04, symBinAddr: 0x10000573C, symSize: 0x20 }
  - { offset: 0x1FFD4, size: 0x8, addend: 0x0, symName: __ZNKSt3__111__wrap_iterIPNS_6vectorIdNS_9allocatorIdEEEEE4baseB8ne180100Ev, symObjAddr: 0xF6C, symBinAddr: 0x1000057A4, symSize: 0x18 }
  - { offset: 0x1FFFA, size: 0x8, addend: 0x0, symName: __ZNSt3__112basic_stringIcNS_11char_traitsIcEENS_9allocatorIcEEEC2B8ne180100Ev, symObjAddr: 0xF84, symBinAddr: 0x1000057BC, symSize: 0x48 }
  - { offset: 0x20030, size: 0x8, addend: 0x0, symName: __ZNSt3__117__compressed_pairINS_12basic_stringIcNS_11char_traitsIcEENS_9allocatorIcEEE5__repES5_EC1B8ne180100INS_16__value_init_tagENS_18__default_init_tagEEEOT_OT0_, symObjAddr: 0xFCC, symBinAddr: 0x100005804, symSize: 0x3C }
  - { offset: 0x20088, size: 0x8, addend: 0x0, symName: __ZNKSt3__112basic_stringIcNS_11char_traitsIcEENS_9allocatorIcEEE14__annotate_newB8ne180100Em, symObjAddr: 0x1018, symBinAddr: 0x100005840, symSize: 0x14 }
  - { offset: 0x200BD, size: 0x8, addend: 0x0, symName: __ZNSt3__117__compressed_pairINS_12basic_stringIcNS_11char_traitsIcEENS_9allocatorIcEEE5__repES5_EC2B8ne180100INS_16__value_init_tagENS_18__default_init_tagEEEOT_OT0_, symObjAddr: 0x102C, symBinAddr: 0x100005854, symSize: 0x3C }
  - { offset: 0x20115, size: 0x8, addend: 0x0, symName: __ZNSt3__122__compressed_pair_elemINS_12basic_stringIcNS_11char_traitsIcEENS_9allocatorIcEEE5__repELi0ELb0EEC2B8ne180100ENS_16__value_init_tagE, symObjAddr: 0x1068, symBinAddr: 0x100005890, symSize: 0x20 }
  - { offset: 0x2014A, size: 0x8, addend: 0x0, symName: __ZNSt3__16vectorINS0_IdNS_9allocatorIdEEEENS1_IS3_EEEC2B8ne180100Ev, symObjAddr: 0x10F4, symBinAddr: 0x1000058B0, symSize: 0x4C }
  - { offset: 0x20180, size: 0x8, addend: 0x0, symName: __ZNSt3__117__compressed_pairIPNS_6vectorIdNS_9allocatorIdEEEENS2_IS4_EEEC1B8ne180100IDnNS_18__default_init_tagEEEOT_OT0_, symObjAddr: 0x1140, symBinAddr: 0x1000058FC, symSize: 0x3C }
  - { offset: 0x201D8, size: 0x8, addend: 0x0, symName: __ZNSt3__117__compressed_pairIPNS_6vectorIdNS_9allocatorIdEEEENS2_IS4_EEEC2B8ne180100IDnNS_18__default_init_tagEEEOT_OT0_, symObjAddr: 0x117C, symBinAddr: 0x100005938, symSize: 0x40 }
  - { offset: 0x20230, size: 0x8, addend: 0x0, symName: __ZNSt3__122__compressed_pair_elemIPNS_6vectorIdNS_9allocatorIdEEEELi0ELb0EEC2B8ne180100IDnvEEOT_, symObjAddr: 0x11BC, symBinAddr: 0x100005978, symSize: 0x1C }
  - { offset: 0x20272, size: 0x8, addend: 0x0, symName: __ZNSt3__122__compressed_pair_elemINS_9allocatorINS_6vectorIdNS1_IdEEEEEELi1ELb1EEC2B8ne180100ENS_18__default_init_tagE, symObjAddr: 0x11D8, symBinAddr: 0x100005994, symSize: 0x2C }
  - { offset: 0x202A7, size: 0x8, addend: 0x0, symName: __ZNSt3__19allocatorINS_6vectorIdNS0_IdEEEEEC2B8ne180100Ev, symObjAddr: 0x1204, symBinAddr: 0x1000059C0, symSize: 0x2C }
  - { offset: 0x202D1, size: 0x8, addend: 0x0, symName: __ZNSt3__116__non_trivial_ifILb1ENS_9allocatorINS_6vectorIdNS1_IdEEEEEEEC2B8ne180100Ev, symObjAddr: 0x1230, symBinAddr: 0x1000059EC, symSize: 0x14 }
  - { offset: 0x202FB, size: 0x8, addend: 0x0, symName: __ZNSt3__16vectorINS0_IdNS_9allocatorIdEEEENS1_IS3_EEED2B8ne180100Ev, symObjAddr: 0x1244, symBinAddr: 0x100005A00, symSize: 0x44 }
  - { offset: 0x20325, size: 0x8, addend: 0x0, symName: __ZNSt3__16vectorINS0_IdNS_9allocatorIdEEEENS1_IS3_EEE16__destroy_vectorC1B8ne180100ERS5_, symObjAddr: 0x1288, symBinAddr: 0x100005A44, symSize: 0x34 }
  - { offset: 0x2035E, size: 0x8, addend: 0x0, symName: __ZNSt3__16vectorINS0_IdNS_9allocatorIdEEEENS1_IS3_EEE16__destroy_vectorclB8ne180100Ev, symObjAddr: 0x12BC, symBinAddr: 0x100005A78, symSize: 0x90 }
  - { offset: 0x20384, size: 0x8, addend: 0x0, symName: __ZNSt3__16vectorINS0_IdNS_9allocatorIdEEEENS1_IS3_EEE16__destroy_vectorC2B8ne180100ERS5_, symObjAddr: 0x134C, symBinAddr: 0x100005B08, symSize: 0x20 }
  - { offset: 0x203BD, size: 0x8, addend: 0x0, symName: __ZNSt3__16vectorINS0_IdNS_9allocatorIdEEEENS1_IS3_EEE7__clearB8ne180100Ev, symObjAddr: 0x136C, symBinAddr: 0x100005B28, symSize: 0x28 }
  - { offset: 0x203E3, size: 0x8, addend: 0x0, symName: __ZNKSt3__16vectorINS0_IdNS_9allocatorIdEEEENS1_IS3_EEE17__annotate_deleteB8ne180100Ev, symObjAddr: 0x1394, symBinAddr: 0x100005B50, symSize: 0x10 }
  - { offset: 0x20409, size: 0x8, addend: 0x0, symName: __ZNSt3__116allocator_traitsINS_9allocatorINS_6vectorIdNS1_IdEEEEEEE10deallocateB8ne180100ERS5_PS4_m, symObjAddr: 0x13A4, symBinAddr: 0x100005B60, symSize: 0x34 }
  - { offset: 0x2044B, size: 0x8, addend: 0x0, symName: __ZNSt3__16vectorINS0_IdNS_9allocatorIdEEEENS1_IS3_EEE7__allocB8ne180100Ev, symObjAddr: 0x13D8, symBinAddr: 0x100005B94, symSize: 0x28 }
  - { offset: 0x20471, size: 0x8, addend: 0x0, symName: __ZNKSt3__16vectorINS0_IdNS_9allocatorIdEEEENS1_IS3_EEE8capacityB8ne180100Ev, symObjAddr: 0x1400, symBinAddr: 0x100005BBC, symSize: 0x40 }
  - { offset: 0x20497, size: 0x8, addend: 0x0, symName: __ZNSt3__16vectorINS0_IdNS_9allocatorIdEEEENS1_IS3_EEE22__base_destruct_at_endB8ne180100EPS3_, symObjAddr: 0x1440, symBinAddr: 0x100005BFC, symSize: 0x8C }
  - { offset: 0x204DB, size: 0x8, addend: 0x0, symName: __ZNSt3__116allocator_traitsINS_9allocatorINS_6vectorIdNS1_IdEEEEEEE7destroyB8ne180100IS4_vEEvRS5_PT_, symObjAddr: 0x14CC, symBinAddr: 0x100005C88, symSize: 0x2C }
  - { offset: 0x20518, size: 0x8, addend: 0x0, symName: __ZNSt3__19allocatorINS_6vectorIdNS0_IdEEEEE7destroyB8ne180100EPS3_, symObjAddr: 0x150C, symBinAddr: 0x100005CC8, symSize: 0x28 }
  - { offset: 0x2054C, size: 0x8, addend: 0x0, symName: __ZNSt3__19allocatorINS_6vectorIdNS0_IdEEEEE10deallocateB8ne180100EPS3_m, symObjAddr: 0x1534, symBinAddr: 0x100005CF0, symSize: 0x44 }
  - { offset: 0x2058E, size: 0x8, addend: 0x0, symName: __ZNSt3__117__compressed_pairIPNS_6vectorIdNS_9allocatorIdEEEENS2_IS4_EEE6secondB8ne180100Ev, symObjAddr: 0x16A0, symBinAddr: 0x100005D34, symSize: 0x24 }
  - { offset: 0x205B4, size: 0x8, addend: 0x0, symName: __ZNSt3__122__compressed_pair_elemINS_9allocatorINS_6vectorIdNS1_IdEEEEEELi1ELb1EE5__getB8ne180100Ev, symObjAddr: 0x16C4, symBinAddr: 0x100005D58, symSize: 0x14 }
  - { offset: 0x205DA, size: 0x8, addend: 0x0, symName: __ZNKSt3__16vectorINS0_IdNS_9allocatorIdEEEENS1_IS3_EEE9__end_capB8ne180100Ev, symObjAddr: 0x16D8, symBinAddr: 0x100005D6C, symSize: 0x28 }
  - { offset: 0x20600, size: 0x8, addend: 0x0, symName: __ZNKSt3__117__compressed_pairIPNS_6vectorIdNS_9allocatorIdEEEENS2_IS4_EEE5firstB8ne180100Ev, symObjAddr: 0x1700, symBinAddr: 0x100005D94, symSize: 0x24 }
  - { offset: 0x20626, size: 0x8, addend: 0x0, symName: __ZNKSt3__122__compressed_pair_elemIPNS_6vectorIdNS_9allocatorIdEEEELi0ELb0EE5__getB8ne180100Ev, symObjAddr: 0x1724, symBinAddr: 0x100005DB8, symSize: 0x14 }
  - { offset: 0x2064C, size: 0x8, addend: 0x0, symName: __ZNKSt3__112basic_stringIcNS_11char_traitsIcEENS_9allocatorIcEEE4sizeB8ne180100Ev, symObjAddr: 0x176C, symBinAddr: 0x100005DCC, symSize: 0x54 }
  - { offset: 0x20672, size: 0x8, addend: 0x0, symName: __ZNKSt3__112basic_stringIcNS_11char_traitsIcEENS_9allocatorIcEEE9__is_longB8ne180100Ev, symObjAddr: 0x17E4, symBinAddr: 0x100005E20, symSize: 0x38 }
  - { offset: 0x20698, size: 0x8, addend: 0x0, symName: __ZNKSt3__112basic_stringIcNS_11char_traitsIcEENS_9allocatorIcEEE15__get_long_sizeB8ne180100Ev, symObjAddr: 0x181C, symBinAddr: 0x100005E58, symSize: 0x28 }
  - { offset: 0x206BE, size: 0x8, addend: 0x0, symName: __ZNKSt3__112basic_stringIcNS_11char_traitsIcEENS_9allocatorIcEEE16__get_short_sizeB8ne180100Ev, symObjAddr: 0x1844, symBinAddr: 0x100005E80, symSize: 0x34 }
  - { offset: 0x206E4, size: 0x8, addend: 0x0, symName: __ZNKSt3__117__compressed_pairINS_12basic_stringIcNS_11char_traitsIcEENS_9allocatorIcEEE5__repES5_E5firstB8ne180100Ev, symObjAddr: 0x1878, symBinAddr: 0x100005EB4, symSize: 0x24 }
  - { offset: 0x2070A, size: 0x8, addend: 0x0, symName: __ZNKSt3__122__compressed_pair_elemINS_12basic_stringIcNS_11char_traitsIcEENS_9allocatorIcEEE5__repELi0ELb0EE5__getB8ne180100Ev, symObjAddr: 0x189C, symBinAddr: 0x100005ED8, symSize: 0x14 }
  - { offset: 0x20730, size: 0x8, addend: 0x0, symName: __ZNSt3__16vectorINS0_IdNS_9allocatorIdEEEENS1_IS3_EEE9__end_capB8ne180100Ev, symObjAddr: 0x18B0, symBinAddr: 0x100005EEC, symSize: 0x28 }
  - { offset: 0x20756, size: 0x8, addend: 0x0, symName: __ZNSt3__16vectorINS0_IdNS_9allocatorIdEEEENS1_IS3_EEE22__construct_one_at_endB8ne180100IJS3_EEEvDpOT_, symObjAddr: 0x18D8, symBinAddr: 0x100005F14, symSize: 0x90 }
  - { offset: 0x207A5, size: 0x8, addend: 0x0, symName: __ZNSt3__16vectorINS0_IdNS_9allocatorIdEEEENS1_IS3_EEE21__push_back_slow_pathIS3_EEPS3_OT_, symObjAddr: 0x1968, symBinAddr: 0x100005FA4, symSize: 0xE8 }
  - { offset: 0x20803, size: 0x8, addend: 0x0, symName: __ZNSt3__117__compressed_pairIPNS_6vectorIdNS_9allocatorIdEEEENS2_IS4_EEE5firstB8ne180100Ev, symObjAddr: 0x1A50, symBinAddr: 0x10000608C, symSize: 0x24 }
  - { offset: 0x20829, size: 0x8, addend: 0x0, symName: __ZNSt3__122__compressed_pair_elemIPNS_6vectorIdNS_9allocatorIdEEEELi0ELb0EE5__getB8ne180100Ev, symObjAddr: 0x1A74, symBinAddr: 0x1000060B0, symSize: 0x14 }
  - { offset: 0x2086A, size: 0x8, addend: 0x0, symName: __ZNSt3__16vectorINS0_IdNS_9allocatorIdEEEENS1_IS3_EEE21_ConstructTransactionC1B8ne180100ERS5_m, symObjAddr: 0x1A88, symBinAddr: 0x1000060C4, symSize: 0x3C }
  - { offset: 0x208B2, size: 0x8, addend: 0x0, symName: __ZNSt3__116allocator_traitsINS_9allocatorINS_6vectorIdNS1_IdEEEEEEE9constructB8ne180100IS4_JS4_EvEEvRS5_PT_DpOT0_, symObjAddr: 0x1AC4, symBinAddr: 0x100006100, symSize: 0x34 }
  - { offset: 0x20909, size: 0x8, addend: 0x0, symName: __ZNSt3__16vectorINS0_IdNS_9allocatorIdEEEENS1_IS3_EEE21_ConstructTransactionD1B8ne180100Ev, symObjAddr: 0x1AF8, symBinAddr: 0x100006134, symSize: 0x2C }
  - { offset: 0x20933, size: 0x8, addend: 0x0, symName: __ZNSt3__16vectorINS0_IdNS_9allocatorIdEEEENS1_IS3_EEE21_ConstructTransactionC2B8ne180100ERS5_m, symObjAddr: 0x1B24, symBinAddr: 0x100006160, symSize: 0x4C }
  - { offset: 0x2097B, size: 0x8, addend: 0x0, symName: __ZNSt3__19allocatorINS_6vectorIdNS0_IdEEEEE9constructB8ne180100IS3_JS3_EEEvPT_DpOT0_, symObjAddr: 0x1B70, symBinAddr: 0x1000061AC, symSize: 0x30 }
  - { offset: 0x209D1, size: 0x8, addend: 0x0, symName: __ZNSt3__16vectorIdNS_9allocatorIdEEEC1B8ne180100EOS3_, symObjAddr: 0x1BA0, symBinAddr: 0x1000061DC, symSize: 0x34 }
  - { offset: 0x20A0C, size: 0x8, addend: 0x0, symName: __ZNSt3__16vectorIdNS_9allocatorIdEEEC2B8ne180100EOS3_, symObjAddr: 0x1BD4, symBinAddr: 0x100006210, symSize: 0xC4 }
  - { offset: 0x20A47, size: 0x8, addend: 0x0, symName: __ZNSt3__16vectorIdNS_9allocatorIdEEE7__allocB8ne180100Ev, symObjAddr: 0x1C98, symBinAddr: 0x1000062D4, symSize: 0x28 }
  - { offset: 0x20A73, size: 0x8, addend: 0x0, symName: __ZNSt3__117__compressed_pairIPdNS_9allocatorIdEEEC1B8ne180100IDnS3_EEOT_OT0_, symObjAddr: 0x1CC0, symBinAddr: 0x1000062FC, symSize: 0x3C }
  - { offset: 0x20ACB, size: 0x8, addend: 0x0, symName: __ZNSt3__16vectorIdNS_9allocatorIdEEE9__end_capB8ne180100Ev, symObjAddr: 0x1CFC, symBinAddr: 0x100006338, symSize: 0x28 }
  - { offset: 0x20AF1, size: 0x8, addend: 0x0, symName: __ZNSt3__117__compressed_pairIPdNS_9allocatorIdEEE6secondB8ne180100Ev, symObjAddr: 0x1D24, symBinAddr: 0x100006360, symSize: 0x24 }
  - { offset: 0x20B17, size: 0x8, addend: 0x0, symName: __ZNSt3__122__compressed_pair_elemINS_9allocatorIdEELi1ELb1EE5__getB8ne180100Ev, symObjAddr: 0x1D48, symBinAddr: 0x100006384, symSize: 0x14 }
  - { offset: 0x20B3D, size: 0x8, addend: 0x0, symName: __ZNSt3__117__compressed_pairIPdNS_9allocatorIdEEEC2B8ne180100IDnS3_EEOT_OT0_, symObjAddr: 0x1D5C, symBinAddr: 0x100006398, symSize: 0x44 }
  - { offset: 0x20B95, size: 0x8, addend: 0x0, symName: __ZNSt3__122__compressed_pair_elemIPdLi0ELb0EEC2B8ne180100IDnvEEOT_, symObjAddr: 0x1DA0, symBinAddr: 0x1000063DC, symSize: 0x1C }
  - { offset: 0x20BD7, size: 0x8, addend: 0x0, symName: __ZNSt3__122__compressed_pair_elemINS_9allocatorIdEELi1ELb1EEC2B8ne180100IS2_vEEOT_, symObjAddr: 0x1DBC, symBinAddr: 0x1000063F8, symSize: 0x18 }
  - { offset: 0x20C19, size: 0x8, addend: 0x0, symName: __ZNSt3__117__compressed_pairIPdNS_9allocatorIdEEE5firstB8ne180100Ev, symObjAddr: 0x1DD4, symBinAddr: 0x100006410, symSize: 0x24 }
  - { offset: 0x20C3F, size: 0x8, addend: 0x0, symName: __ZNSt3__122__compressed_pair_elemIPdLi0ELb0EE5__getB8ne180100Ev, symObjAddr: 0x1DF8, symBinAddr: 0x100006434, symSize: 0x14 }
  - { offset: 0x20C65, size: 0x8, addend: 0x0, symName: __ZNSt3__16vectorINS0_IdNS_9allocatorIdEEEENS1_IS3_EEE21_ConstructTransactionD2B8ne180100Ev, symObjAddr: 0x1E0C, symBinAddr: 0x100006448, symSize: 0x20 }
  - { offset: 0x20C8F, size: 0x8, addend: 0x0, symName: __ZNKSt3__16vectorINS0_IdNS_9allocatorIdEEEENS1_IS3_EEE11__recommendB8ne180100Em, symObjAddr: 0x1E2C, symBinAddr: 0x100006468, symSize: 0xB4 }
  - { offset: 0x20CE4, size: 0x8, addend: 0x0, symName: __ZNKSt3__16vectorINS0_IdNS_9allocatorIdEEEENS1_IS3_EEE4sizeB8ne180100Ev, symObjAddr: 0x1EE0, symBinAddr: 0x10000651C, symSize: 0x28 }
  - { offset: 0x20D0A, size: 0x8, addend: 0x0, symName: __ZNSt3__114__split_bufferINS_6vectorIdNS_9allocatorIdEEEERNS2_IS4_EEEC1EmmS6_, symObjAddr: 0x1F08, symBinAddr: 0x100006544, symSize: 0x44 }
  - { offset: 0x20D60, size: 0x8, addend: 0x0, symName: __ZNSt3__114__split_bufferINS_6vectorIdNS_9allocatorIdEEEERNS2_IS4_EEED1Ev, symObjAddr: 0x205C, symBinAddr: 0x100006698, symSize: 0x2C }
  - { offset: 0x20D8C, size: 0x8, addend: 0x0, symName: __ZNKSt3__16vectorINS0_IdNS_9allocatorIdEEEENS1_IS3_EEE8max_sizeEv, symObjAddr: 0x2088, symBinAddr: 0x1000066C4, symSize: 0x60 }
  - { offset: 0x20DB4, size: 0x8, addend: 0x0, symName: __ZNKSt3__16vectorINS0_IdNS_9allocatorIdEEEENS1_IS3_EEE20__throw_length_errorB8ne180100Ev, symObjAddr: 0x20E8, symBinAddr: 0x100006724, symSize: 0x1C }
  - { offset: 0x20DE5, size: 0x8, addend: 0x0, symName: __ZNSt3__116allocator_traitsINS_9allocatorINS_6vectorIdNS1_IdEEEEEEE8max_sizeB8ne180100IS5_vEEmRKS5_, symObjAddr: 0x215C, symBinAddr: 0x100006798, symSize: 0x24 }
  - { offset: 0x20E13, size: 0x8, addend: 0x0, symName: __ZNKSt3__16vectorINS0_IdNS_9allocatorIdEEEENS1_IS3_EEE7__allocB8ne180100Ev, symObjAddr: 0x2180, symBinAddr: 0x1000067BC, symSize: 0x28 }
  - { offset: 0x20E39, size: 0x8, addend: 0x0, symName: __ZNSt3__114numeric_limitsIlE3maxB8ne180100Ev, symObjAddr: 0x21A8, symBinAddr: 0x1000067E4, symSize: 0x14 }
  - { offset: 0x20E62, size: 0x8, addend: 0x0, symName: __ZNKSt3__16__lessIvvEclB8ne180100ImmEEbRKT_RKT0_, symObjAddr: 0x2210, symBinAddr: 0x10000684C, symSize: 0x34 }
  - { offset: 0x20EB6, size: 0x8, addend: 0x0, symName: __ZNKSt3__19allocatorINS_6vectorIdNS0_IdEEEEE8max_sizeB8ne180100Ev, symObjAddr: 0x2244, symBinAddr: 0x100006880, symSize: 0x18 }
  - { offset: 0x20EDC, size: 0x8, addend: 0x0, symName: __ZNKSt3__117__compressed_pairIPNS_6vectorIdNS_9allocatorIdEEEENS2_IS4_EEE6secondB8ne180100Ev, symObjAddr: 0x225C, symBinAddr: 0x100006898, symSize: 0x24 }
  - { offset: 0x20F02, size: 0x8, addend: 0x0, symName: __ZNKSt3__122__compressed_pair_elemINS_9allocatorINS_6vectorIdNS1_IdEEEEEELi1ELb1EE5__getB8ne180100Ev, symObjAddr: 0x2280, symBinAddr: 0x1000068BC, symSize: 0x14 }
  - { offset: 0x20F28, size: 0x8, addend: 0x0, symName: __ZNSt3__123__libcpp_numeric_limitsIlLb1EE3maxB8ne180100Ev, symObjAddr: 0x2294, symBinAddr: 0x1000068D0, symSize: 0x8 }
  - { offset: 0x20F3C, size: 0x8, addend: 0x0, symName: __ZNSt12length_errorC1B8ne180100EPKc, symObjAddr: 0x2300, symBinAddr: 0x10000693C, symSize: 0x34 }
  - { offset: 0x20F74, size: 0x8, addend: 0x0, symName: __ZNSt12length_errorC2B8ne180100EPKc, symObjAddr: 0x2334, symBinAddr: 0x100006970, symSize: 0x44 }
  - { offset: 0x20FAC, size: 0x8, addend: 0x0, symName: __ZNSt3__114__split_bufferINS_6vectorIdNS_9allocatorIdEEEERNS2_IS4_EEEC2EmmS6_, symObjAddr: 0x23CC, symBinAddr: 0x100006A08, symSize: 0xE0 }
  - { offset: 0x2101F, size: 0x8, addend: 0x0, symName: __ZNSt3__117__compressed_pairIPNS_6vectorIdNS_9allocatorIdEEEERNS2_IS4_EEEC1B8ne180100IDnS7_EEOT_OT0_, symObjAddr: 0x24AC, symBinAddr: 0x100006AE8, symSize: 0x3C }
  - { offset: 0x21077, size: 0x8, addend: 0x0, symName: __ZNSt3__114__split_bufferINS_6vectorIdNS_9allocatorIdEEEERNS2_IS4_EEE7__allocB8ne180100Ev, symObjAddr: 0x2528, symBinAddr: 0x100006B64, symSize: 0x28 }
  - { offset: 0x2109D, size: 0x8, addend: 0x0, symName: __ZNSt3__114__split_bufferINS_6vectorIdNS_9allocatorIdEEEERNS2_IS4_EEE9__end_capB8ne180100Ev, symObjAddr: 0x2550, symBinAddr: 0x100006B8C, symSize: 0x28 }
  - { offset: 0x210C3, size: 0x8, addend: 0x0, symName: __ZNSt3__117__compressed_pairIPNS_6vectorIdNS_9allocatorIdEEEERNS2_IS4_EEEC2B8ne180100IDnS7_EEOT_OT0_, symObjAddr: 0x2578, symBinAddr: 0x100006BB4, symSize: 0x48 }
  - { offset: 0x2111B, size: 0x8, addend: 0x0, symName: __ZNSt3__122__compressed_pair_elemIRNS_9allocatorINS_6vectorIdNS1_IdEEEEEELi1ELb0EEC2B8ne180100IS6_vEEOT_, symObjAddr: 0x25C0, symBinAddr: 0x100006BFC, symSize: 0x20 }
  - { offset: 0x2115D, size: 0x8, addend: 0x0, symName: __ZNSt3__19allocatorINS_6vectorIdNS0_IdEEEEE8allocateB8ne180100Em, symObjAddr: 0x25E0, symBinAddr: 0x100006C1C, symSize: 0x5C }
  - { offset: 0x21191, size: 0x8, addend: 0x0, symName: __ZNSt3__117__compressed_pairIPNS_6vectorIdNS_9allocatorIdEEEERNS2_IS4_EEE6secondB8ne180100Ev, symObjAddr: 0x2720, symBinAddr: 0x100006D5C, symSize: 0x28 }
  - { offset: 0x211B7, size: 0x8, addend: 0x0, symName: __ZNSt3__122__compressed_pair_elemIRNS_9allocatorINS_6vectorIdNS1_IdEEEEEELi1ELb0EE5__getB8ne180100Ev, symObjAddr: 0x2748, symBinAddr: 0x100006D84, symSize: 0x18 }
  - { offset: 0x211DD, size: 0x8, addend: 0x0, symName: __ZNSt3__117__compressed_pairIPNS_6vectorIdNS_9allocatorIdEEEERNS2_IS4_EEE5firstB8ne180100Ev, symObjAddr: 0x2760, symBinAddr: 0x100006D9C, symSize: 0x24 }
  - { offset: 0x21203, size: 0x8, addend: 0x0, symName: __ZNSt3__116reverse_iteratorIPNS_6vectorIdNS_9allocatorIdEEEEEC1B8ne180100ES5_, symObjAddr: 0x28B0, symBinAddr: 0x100006EEC, symSize: 0x34 }
  - { offset: 0x2123B, size: 0x8, addend: 0x0, symName: __ZNKSt3__116reverse_iteratorIPNS_6vectorIdNS_9allocatorIdEEEEE4baseB8ne180100Ev, symObjAddr: 0x28E4, symBinAddr: 0x100006F20, symSize: 0x18 }
  - { offset: 0x21261, size: 0x8, addend: 0x0, symName: __ZNKSt3__16vectorINS0_IdNS_9allocatorIdEEEENS1_IS3_EEE14__annotate_newB8ne180100Em, symObjAddr: 0x2938, symBinAddr: 0x100006F74, symSize: 0x14 }
  - { offset: 0x21296, size: 0x8, addend: 0x0, symName: __ZNSt3__129_AllocatorDestroyRangeReverseINS_9allocatorINS_6vectorIdNS1_IdEEEEEENS_16reverse_iteratorIPS4_EEEC1B8ne180100ERS5_RS8_SB_, symObjAddr: 0x2998, symBinAddr: 0x100006FD4, symSize: 0x44 }
  - { offset: 0x212ED, size: 0x8, addend: 0x0, symName: __ZNKSt3__116reverse_iteratorIPNS_6vectorIdNS_9allocatorIdEEEEEdeB8ne180100Ev, symObjAddr: 0x2A48, symBinAddr: 0x100007084, symSize: 0x28 }
  - { offset: 0x21322, size: 0x8, addend: 0x0, symName: __ZNSt3__116reverse_iteratorIPNS_6vectorIdNS_9allocatorIdEEEEEppB8ne180100Ev, symObjAddr: 0x2A70, symBinAddr: 0x1000070AC, symSize: 0x20 }
  - { offset: 0x21348, size: 0x8, addend: 0x0, symName: __ZNSt3__128__exception_guard_exceptionsINS_29_AllocatorDestroyRangeReverseINS_9allocatorINS_6vectorIdNS2_IdEEEEEENS_16reverse_iteratorIPS5_EEEEE10__completeB8ne180100Ev, symObjAddr: 0x2A90, symBinAddr: 0x1000070CC, symSize: 0x1C }
  - { offset: 0x2136E, size: 0x8, addend: 0x0, symName: __ZNSt3__128__exception_guard_exceptionsINS_29_AllocatorDestroyRangeReverseINS_9allocatorINS_6vectorIdNS2_IdEEEEEENS_16reverse_iteratorIPS5_EEEEED1B8ne180100Ev, symObjAddr: 0x2AAC, symBinAddr: 0x1000070E8, symSize: 0x2C }
  - { offset: 0x21398, size: 0x8, addend: 0x0, symName: __ZNSt3__128__exception_guard_exceptionsINS_29_AllocatorDestroyRangeReverseINS_9allocatorINS_6vectorIdNS2_IdEEEEEENS_16reverse_iteratorIPS5_EEEEEC1B8ne180100ESA_, symObjAddr: 0x2AD8, symBinAddr: 0x100007114, symSize: 0x34 }
  - { offset: 0x213D1, size: 0x8, addend: 0x0, symName: __ZNSt3__128__exception_guard_exceptionsINS_29_AllocatorDestroyRangeReverseINS_9allocatorINS_6vectorIdNS2_IdEEEEEENS_16reverse_iteratorIPS5_EEEEEC2B8ne180100ESA_, symObjAddr: 0x2B0C, symBinAddr: 0x100007148, symSize: 0x30 }
  - { offset: 0x2140A, size: 0x8, addend: 0x0, symName: __ZNSt3__129_AllocatorDestroyRangeReverseINS_9allocatorINS_6vectorIdNS1_IdEEEEEENS_16reverse_iteratorIPS4_EEEC2B8ne180100ERS5_RS8_SB_, symObjAddr: 0x2B3C, symBinAddr: 0x100007178, symSize: 0x38 }
  - { offset: 0x21467, size: 0x8, addend: 0x0, symName: __ZNSt3__119__to_address_helperINS_16reverse_iteratorIPNS_6vectorIdNS_9allocatorIdEEEEEEvE6__callB8ne180100ERKS7_, symObjAddr: 0x2B74, symBinAddr: 0x1000071B0, symSize: 0x38 }
  - { offset: 0x2148A, size: 0x8, addend: 0x0, symName: __ZNKSt3__116reverse_iteratorIPNS_6vectorIdNS_9allocatorIdEEEEEptB8ne180100Ev, symObjAddr: 0x2BAC, symBinAddr: 0x1000071E8, symSize: 0x24 }
  - { offset: 0x214B0, size: 0x8, addend: 0x0, symName: __ZNSt3__128__exception_guard_exceptionsINS_29_AllocatorDestroyRangeReverseINS_9allocatorINS_6vectorIdNS2_IdEEEEEENS_16reverse_iteratorIPS5_EEEEED2B8ne180100Ev, symObjAddr: 0x2BD0, symBinAddr: 0x10000720C, symSize: 0x50 }
  - { offset: 0x214DA, size: 0x8, addend: 0x0, symName: __ZNKSt3__129_AllocatorDestroyRangeReverseINS_9allocatorINS_6vectorIdNS1_IdEEEEEENS_16reverse_iteratorIPS4_EEEclB8ne180100Ev, symObjAddr: 0x2C20, symBinAddr: 0x10000725C, symSize: 0xB4 }
  - { offset: 0x21501, size: 0x8, addend: 0x0, symName: __ZNSt3__116reverse_iteratorINS0_IPNS_6vectorIdNS_9allocatorIdEEEEEEEC1B8ne180100ES6_, symObjAddr: 0x2D44, symBinAddr: 0x100007380, symSize: 0x3C }
  - { offset: 0x21539, size: 0x8, addend: 0x0, symName: __ZNSt3__116reverse_iteratorINS0_IPNS_6vectorIdNS_9allocatorIdEEEEEEEppB8ne180100Ev, symObjAddr: 0x2E04, symBinAddr: 0x100007440, symSize: 0x30 }
  - { offset: 0x2155F, size: 0x8, addend: 0x0, symName: __ZNKSt3__116reverse_iteratorINS0_IPNS_6vectorIdNS_9allocatorIdEEEEEEE4baseB8ne180100Ev, symObjAddr: 0x2E34, symBinAddr: 0x100007470, symSize: 0x24 }
  - { offset: 0x2158B, size: 0x8, addend: 0x0, symName: __ZNSt3__119__to_address_helperINS_16reverse_iteratorINS1_IPNS_6vectorIdNS_9allocatorIdEEEEEEEEvE6__callB8ne180100ERKS8_, symObjAddr: 0x2E58, symBinAddr: 0x100007494, symSize: 0x38 }
  - { offset: 0x215AE, size: 0x8, addend: 0x0, symName: __ZNKSt3__116reverse_iteratorINS0_IPNS_6vectorIdNS_9allocatorIdEEEEEEEptB8ne180100Ev, symObjAddr: 0x2E90, symBinAddr: 0x1000074CC, symSize: 0x24 }
  - { offset: 0x215D4, size: 0x8, addend: 0x0, symName: __ZNKSt3__116reverse_iteratorINS0_IPNS_6vectorIdNS_9allocatorIdEEEEEEEdeB8ne180100Ev, symObjAddr: 0x2EB4, symBinAddr: 0x1000074F0, symSize: 0x34 }
  - { offset: 0x21609, size: 0x8, addend: 0x0, symName: __ZNSt3__116reverse_iteratorIPNS_6vectorIdNS_9allocatorIdEEEEEmmB8ne180100Ev, symObjAddr: 0x2EE8, symBinAddr: 0x100007524, symSize: 0x20 }
  - { offset: 0x2162F, size: 0x8, addend: 0x0, symName: __ZNSt3__116reverse_iteratorINS0_IPNS_6vectorIdNS_9allocatorIdEEEEEEEC2B8ne180100ES6_, symObjAddr: 0x2F08, symBinAddr: 0x100007544, symSize: 0x2C }
  - { offset: 0x21667, size: 0x8, addend: 0x0, symName: __ZNSt3__116reverse_iteratorIPNS_6vectorIdNS_9allocatorIdEEEEEC2B8ne180100ES5_, symObjAddr: 0x2F34, symBinAddr: 0x100007570, symSize: 0x28 }
  - { offset: 0x2169F, size: 0x8, addend: 0x0, symName: __ZNSt3__114__split_bufferINS_6vectorIdNS_9allocatorIdEEEERNS2_IS4_EEED2Ev, symObjAddr: 0x2F5C, symBinAddr: 0x100007598, symSize: 0x8C }
  - { offset: 0x216CB, size: 0x8, addend: 0x0, symName: __ZNSt3__114__split_bufferINS_6vectorIdNS_9allocatorIdEEEERNS2_IS4_EEE5clearB8ne180100Ev, symObjAddr: 0x2FE8, symBinAddr: 0x100007624, symSize: 0x28 }
  - { offset: 0x216F1, size: 0x8, addend: 0x0, symName: __ZNKSt3__114__split_bufferINS_6vectorIdNS_9allocatorIdEEEERNS2_IS4_EEE8capacityB8ne180100Ev, symObjAddr: 0x3010, symBinAddr: 0x10000764C, symSize: 0x40 }
  - { offset: 0x21717, size: 0x8, addend: 0x0, symName: __ZNSt3__114__split_bufferINS_6vectorIdNS_9allocatorIdEEEERNS2_IS4_EEE17__destruct_at_endB8ne180100EPS4_, symObjAddr: 0x3050, symBinAddr: 0x10000768C, symSize: 0x2C }
  - { offset: 0x2174B, size: 0x8, addend: 0x0, symName: __ZNSt3__114__split_bufferINS_6vectorIdNS_9allocatorIdEEEERNS2_IS4_EEE17__destruct_at_endB8ne180100EPS4_NS_17integral_constantIbLb0EEE, symObjAddr: 0x307C, symBinAddr: 0x1000076B8, symSize: 0x80 }
  - { offset: 0x2178C, size: 0x8, addend: 0x0, symName: __ZNKSt3__114__split_bufferINS_6vectorIdNS_9allocatorIdEEEERNS2_IS4_EEE9__end_capB8ne180100Ev, symObjAddr: 0x30FC, symBinAddr: 0x100007738, symSize: 0x28 }
  - { offset: 0x217B2, size: 0x8, addend: 0x0, symName: __ZNKSt3__117__compressed_pairIPNS_6vectorIdNS_9allocatorIdEEEERNS2_IS4_EEE5firstB8ne180100Ev, symObjAddr: 0x3124, symBinAddr: 0x100007760, symSize: 0x24 }
  - { offset: 0x217D8, size: 0x8, addend: 0x0, symName: __ZNSt3__16vectorIdNS_9allocatorIdEEEC2B8ne180100ESt16initializer_listIdE, symObjAddr: 0x3148, symBinAddr: 0x100007784, symSize: 0x120 }
  - { offset: 0x21829, size: 0x8, addend: 0x0, symName: __ZNSt3__117__compressed_pairIPdNS_9allocatorIdEEEC1B8ne180100IDnNS_18__default_init_tagEEEOT_OT0_, symObjAddr: 0x3268, symBinAddr: 0x1000078A4, symSize: 0x3C }
  - { offset: 0x21881, size: 0x8, addend: 0x0, symName: __ZNSt3__16vectorIdNS_9allocatorIdEEE16__destroy_vectorC1B8ne180100ERS3_, symObjAddr: 0x32E4, symBinAddr: 0x100007920, symSize: 0x34 }
  - { offset: 0x218BA, size: 0x8, addend: 0x0, symName: __ZNKSt16initializer_listIdE4sizeB8ne180100Ev, symObjAddr: 0x3318, symBinAddr: 0x100007954, symSize: 0x18 }
  - { offset: 0x218E0, size: 0x8, addend: 0x0, symName: __ZNSt3__16vectorIdNS_9allocatorIdEEE11__vallocateB8ne180100Em, symObjAddr: 0x3330, symBinAddr: 0x10000796C, symSize: 0xAC }
  - { offset: 0x21924, size: 0x8, addend: 0x0, symName: __ZNSt3__16vectorIdNS_9allocatorIdEEE18__construct_at_endIPKdS6_EEvT_T0_m, symObjAddr: 0x33DC, symBinAddr: 0x100007A18, symSize: 0x8C }
  - { offset: 0x2199A, size: 0x8, addend: 0x0, symName: __ZNKSt16initializer_listIdE5beginB8ne180100Ev, symObjAddr: 0x3468, symBinAddr: 0x100007AA4, symSize: 0x18 }
  - { offset: 0x219C0, size: 0x8, addend: 0x0, symName: __ZNKSt16initializer_listIdE3endB8ne180100Ev, symObjAddr: 0x3480, symBinAddr: 0x100007ABC, symSize: 0x20 }
  - { offset: 0x219E6, size: 0x8, addend: 0x0, symName: __ZNSt3__128__exception_guard_exceptionsINS_6vectorIdNS_9allocatorIdEEE16__destroy_vectorEE10__completeB8ne180100Ev, symObjAddr: 0x34A0, symBinAddr: 0x100007ADC, symSize: 0x1C }
  - { offset: 0x21A0C, size: 0x8, addend: 0x0, symName: __ZNSt3__128__exception_guard_exceptionsINS_6vectorIdNS_9allocatorIdEEE16__destroy_vectorEED1B8ne180100Ev, symObjAddr: 0x34BC, symBinAddr: 0x100007AF8, symSize: 0x2C }
  - { offset: 0x21A36, size: 0x8, addend: 0x0, symName: __ZNSt3__117__compressed_pairIPdNS_9allocatorIdEEEC2B8ne180100IDnNS_18__default_init_tagEEEOT_OT0_, symObjAddr: 0x34E8, symBinAddr: 0x100007B24, symSize: 0x40 }
  - { offset: 0x21A8E, size: 0x8, addend: 0x0, symName: __ZNSt3__122__compressed_pair_elemINS_9allocatorIdEELi1ELb1EEC2B8ne180100ENS_18__default_init_tagE, symObjAddr: 0x3528, symBinAddr: 0x100007B64, symSize: 0x2C }
  - { offset: 0x21AC3, size: 0x8, addend: 0x0, symName: __ZNSt3__19allocatorIdEC2B8ne180100Ev, symObjAddr: 0x3554, symBinAddr: 0x100007B90, symSize: 0x2C }
  - { offset: 0x21AED, size: 0x8, addend: 0x0, symName: __ZNSt3__116__non_trivial_ifILb1ENS_9allocatorIdEEEC2B8ne180100Ev, symObjAddr: 0x3580, symBinAddr: 0x100007BBC, symSize: 0x14 }
  - { offset: 0x21B17, size: 0x8, addend: 0x0, symName: __ZNSt3__128__exception_guard_exceptionsINS_6vectorIdNS_9allocatorIdEEE16__destroy_vectorEEC1B8ne180100ES5_, symObjAddr: 0x3594, symBinAddr: 0x100007BD0, symSize: 0x34 }
  - { offset: 0x21B4F, size: 0x8, addend: 0x0, symName: __ZNSt3__128__exception_guard_exceptionsINS_6vectorIdNS_9allocatorIdEEE16__destroy_vectorEEC2B8ne180100ES5_, symObjAddr: 0x35C8, symBinAddr: 0x100007C04, symSize: 0x24 }
  - { offset: 0x21B87, size: 0x8, addend: 0x0, symName: __ZNSt3__16vectorIdNS_9allocatorIdEEE16__destroy_vectorC2B8ne180100ERS3_, symObjAddr: 0x35EC, symBinAddr: 0x100007C28, symSize: 0x20 }
  - { offset: 0x21BC0, size: 0x8, addend: 0x0, symName: __ZNKSt3__16vectorIdNS_9allocatorIdEEE8max_sizeEv, symObjAddr: 0x360C, symBinAddr: 0x100007C48, symSize: 0x60 }
  - { offset: 0x21BE8, size: 0x8, addend: 0x0, symName: __ZNKSt3__16vectorIdNS_9allocatorIdEEE20__throw_length_errorB8ne180100Ev, symObjAddr: 0x366C, symBinAddr: 0x100007CA8, symSize: 0x1C }
  - { offset: 0x21C0E, size: 0x8, addend: 0x0, symName: __ZNKSt3__16vectorIdNS_9allocatorIdEEE14__annotate_newB8ne180100Em, symObjAddr: 0x36C8, symBinAddr: 0x100007D04, symSize: 0x14 }
  - { offset: 0x21C4E, size: 0x8, addend: 0x0, symName: __ZNSt3__116allocator_traitsINS_9allocatorIdEEE8max_sizeB8ne180100IS2_vEEmRKS2_, symObjAddr: 0x36DC, symBinAddr: 0x100007D18, symSize: 0x24 }
  - { offset: 0x21C7C, size: 0x8, addend: 0x0, symName: __ZNKSt3__16vectorIdNS_9allocatorIdEEE7__allocB8ne180100Ev, symObjAddr: 0x3700, symBinAddr: 0x100007D3C, symSize: 0x28 }
  - { offset: 0x21CA2, size: 0x8, addend: 0x0, symName: __ZNKSt3__19allocatorIdE8max_sizeB8ne180100Ev, symObjAddr: 0x3728, symBinAddr: 0x100007D64, symSize: 0x14 }
  - { offset: 0x21CC8, size: 0x8, addend: 0x0, symName: __ZNKSt3__117__compressed_pairIPdNS_9allocatorIdEEE6secondB8ne180100Ev, symObjAddr: 0x373C, symBinAddr: 0x100007D78, symSize: 0x24 }
  - { offset: 0x21CEE, size: 0x8, addend: 0x0, symName: __ZNKSt3__122__compressed_pair_elemINS_9allocatorIdEELi1ELb1EE5__getB8ne180100Ev, symObjAddr: 0x3760, symBinAddr: 0x100007D9C, symSize: 0x14 }
  - { offset: 0x21D14, size: 0x8, addend: 0x0, symName: __ZNSt3__19allocatorIdE8allocateB8ne180100Em, symObjAddr: 0x3774, symBinAddr: 0x100007DB0, symSize: 0x58 }
  - { offset: 0x21D63, size: 0x8, addend: 0x0, symName: __ZNSt3__16vectorIdNS_9allocatorIdEEE21_ConstructTransactionC1B8ne180100ERS3_m, symObjAddr: 0x37CC, symBinAddr: 0x100007E08, symSize: 0x3C }
  - { offset: 0x21DAB, size: 0x8, addend: 0x0, symName: __ZNSt3__16vectorIdNS_9allocatorIdEEE21_ConstructTransactionD1B8ne180100Ev, symObjAddr: 0x3888, symBinAddr: 0x100007EC4, symSize: 0x2C }
  - { offset: 0x21DD5, size: 0x8, addend: 0x0, symName: __ZNSt3__16vectorIdNS_9allocatorIdEEE21_ConstructTransactionC2B8ne180100ERS3_m, symObjAddr: 0x38B4, symBinAddr: 0x100007EF0, symSize: 0x44 }
  - { offset: 0x21E3F, size: 0x8, addend: 0x0, symName: __ZNSt3__14pairIPKdS2_EC1B8ne180100IS2_S2_Li0EEEOT_OT0_, symObjAddr: 0x3A4C, symBinAddr: 0x100008088, symSize: 0x3C }
  - { offset: 0x21E9D, size: 0x8, addend: 0x0, symName: __ZNSt3__14pairIPKdS2_EC2B8ne180100IS2_S2_Li0EEEOT_OT0_, symObjAddr: 0x3A88, symBinAddr: 0x1000080C4, symSize: 0x34 }
  - { offset: 0x21EFB, size: 0x8, addend: 0x0, symName: __ZNSt3__118__unwrap_iter_implIPKdLb1EE8__unwrapB8ne180100ES2_, symObjAddr: 0x3ABC, symBinAddr: 0x1000080F8, symSize: 0x24 }
  - { offset: 0x21F44, size: 0x8, addend: 0x0, symName: __ZNKSt3__114__copy_trivialclB8ne180100IKddLi0EEENS_4pairIPT_PT0_EES5_S5_S7_, symObjAddr: 0x3C70, symBinAddr: 0x1000082AC, symSize: 0x48 }
  - { offset: 0x21FB8, size: 0x8, addend: 0x0, symName: __ZNSt3__14pairIPKdPdEC1B8ne180100IRS2_S3_Li0EEEOT_OT0_, symObjAddr: 0x3E38, symBinAddr: 0x100008474, symSize: 0x3C }
  - { offset: 0x22016, size: 0x8, addend: 0x0, symName: __ZNSt3__14pairIPKdPdEC2B8ne180100IRS2_S3_Li0EEEOT_OT0_, symObjAddr: 0x3E74, symBinAddr: 0x1000084B0, symSize: 0x34 }
  - { offset: 0x22074, size: 0x8, addend: 0x0, symName: __ZNSt3__14pairIPKdPdEC1B8ne180100IS2_S3_Li0EEEOT_OT0_, symObjAddr: 0x3EA8, symBinAddr: 0x1000084E4, symSize: 0x3C }
  - { offset: 0x220D2, size: 0x8, addend: 0x0, symName: __ZNSt3__14pairIPKdPdEC2B8ne180100IS2_S3_Li0EEEOT_OT0_, symObjAddr: 0x3EE4, symBinAddr: 0x100008520, symSize: 0x34 }
  - { offset: 0x22130, size: 0x8, addend: 0x0, symName: __ZNSt3__118__unwrap_iter_implIPKdLb1EE8__rewrapB8ne180100ES2_S2_, symObjAddr: 0x3F54, symBinAddr: 0x100008590, symSize: 0x50 }
  - { offset: 0x22161, size: 0x8, addend: 0x0, symName: __ZNSt3__118__unwrap_iter_implIPdLb1EE8__unwrapB8ne180100ES1_, symObjAddr: 0x3FA4, symBinAddr: 0x1000085E0, symSize: 0x24 }
  - { offset: 0x22184, size: 0x8, addend: 0x0, symName: __ZNSt3__118__unwrap_iter_implIPdLb1EE8__rewrapB8ne180100ES1_S1_, symObjAddr: 0x3FDC, symBinAddr: 0x100008618, symSize: 0x50 }
  - { offset: 0x221B5, size: 0x8, addend: 0x0, symName: __ZNSt3__16vectorIdNS_9allocatorIdEEE21_ConstructTransactionD2B8ne180100Ev, symObjAddr: 0x402C, symBinAddr: 0x100008668, symSize: 0x20 }
  - { offset: 0x221DF, size: 0x8, addend: 0x0, symName: __ZNSt3__128__exception_guard_exceptionsINS_6vectorIdNS_9allocatorIdEEE16__destroy_vectorEED2B8ne180100Ev, symObjAddr: 0x404C, symBinAddr: 0x100008688, symSize: 0x50 }
  - { offset: 0x22209, size: 0x8, addend: 0x0, symName: __ZNSt3__16vectorIdNS_9allocatorIdEEE16__destroy_vectorclB8ne180100Ev, symObjAddr: 0x409C, symBinAddr: 0x1000086D8, symSize: 0x90 }
  - { offset: 0x2222F, size: 0x8, addend: 0x0, symName: __ZNSt3__16vectorIdNS_9allocatorIdEEE7__clearB8ne180100Ev, symObjAddr: 0x412C, symBinAddr: 0x100008768, symSize: 0x28 }
  - { offset: 0x22255, size: 0x8, addend: 0x0, symName: __ZNKSt3__16vectorIdNS_9allocatorIdEEE17__annotate_deleteB8ne180100Ev, symObjAddr: 0x4154, symBinAddr: 0x100008790, symSize: 0x10 }
  - { offset: 0x2227B, size: 0x8, addend: 0x0, symName: __ZNSt3__116allocator_traitsINS_9allocatorIdEEE10deallocateB8ne180100ERS2_Pdm, symObjAddr: 0x4164, symBinAddr: 0x1000087A0, symSize: 0x34 }
  - { offset: 0x222BD, size: 0x8, addend: 0x0, symName: __ZNKSt3__16vectorIdNS_9allocatorIdEEE8capacityB8ne180100Ev, symObjAddr: 0x4198, symBinAddr: 0x1000087D4, symSize: 0x40 }
  - { offset: 0x222E3, size: 0x8, addend: 0x0, symName: __ZNSt3__16vectorIdNS_9allocatorIdEEE22__base_destruct_at_endB8ne180100EPd, symObjAddr: 0x41D8, symBinAddr: 0x100008814, symSize: 0x8C }
  - { offset: 0x22327, size: 0x8, addend: 0x0, symName: __ZNSt3__116allocator_traitsINS_9allocatorIdEEE7destroyB8ne180100IdvEEvRS2_PT_, symObjAddr: 0x4264, symBinAddr: 0x1000088A0, symSize: 0x2C }
  - { offset: 0x22364, size: 0x8, addend: 0x0, symName: __ZNSt3__19allocatorIdE7destroyB8ne180100EPd, symObjAddr: 0x4290, symBinAddr: 0x1000088CC, symSize: 0x14 }
  - { offset: 0x22398, size: 0x8, addend: 0x0, symName: __ZNSt3__19allocatorIdE10deallocateB8ne180100EPdm, symObjAddr: 0x42A4, symBinAddr: 0x1000088E0, symSize: 0x40 }
  - { offset: 0x223DA, size: 0x8, addend: 0x0, symName: __ZNKSt3__16vectorIdNS_9allocatorIdEEE9__end_capB8ne180100Ev, symObjAddr: 0x42E4, symBinAddr: 0x100008920, symSize: 0x28 }
  - { offset: 0x22400, size: 0x8, addend: 0x0, symName: __ZNKSt3__117__compressed_pairIPdNS_9allocatorIdEEE5firstB8ne180100Ev, symObjAddr: 0x430C, symBinAddr: 0x100008948, symSize: 0x24 }
  - { offset: 0x22426, size: 0x8, addend: 0x0, symName: __ZNKSt3__122__compressed_pair_elemIPdLi0ELb0EE5__getB8ne180100Ev, symObjAddr: 0x4330, symBinAddr: 0x10000896C, symSize: 0x14 }
  - { offset: 0x2244C, size: 0x8, addend: 0x0, symName: __ZNSt3__16vectorIdNS_9allocatorIdEEED2B8ne180100Ev, symObjAddr: 0x4344, symBinAddr: 0x100008980, symSize: 0x40 }
  - { offset: 0x22476, size: 0x8, addend: 0x0, symName: __ZNSt3__16vectorINS0_IdNS_9allocatorIdEEEENS1_IS3_EEE11__make_iterB8ne180100EPS3_, symObjAddr: 0x4384, symBinAddr: 0x1000089C0, symSize: 0x30 }
  - { offset: 0x224AB, size: 0x8, addend: 0x0, symName: __ZNSt3__111__wrap_iterIPNS_6vectorIdNS_9allocatorIdEEEEEC1B8ne180100ES5_, symObjAddr: 0x43B4, symBinAddr: 0x1000089F0, symSize: 0x34 }
  - { offset: 0x224E3, size: 0x8, addend: 0x0, symName: __ZNSt3__111__wrap_iterIPNS_6vectorIdNS_9allocatorIdEEEEEC2B8ne180100ES5_, symObjAddr: 0x43E8, symBinAddr: 0x100008A24, symSize: 0x20 }
  - { offset: 0x29CFB, size: 0x8, addend: 0x0, symName: __ZNSt3__124__put_character_sequenceB8ne180100IcNS_11char_traitsIcEEEERNS_13basic_ostreamIT_T0_EES7_PKS4_m, symObjAddr: 0x1A2C, symBinAddr: 0x1000095F4, symSize: 0x1EC }
  - { offset: 0x2AB01, size: 0x8, addend: 0x0, symName: __ZNSt3__1neB8ne180100IPP4RoomEEbRKNS_11__wrap_iterIT_EES8_, symObjAddr: 0x264, symBinAddr: 0x100008C50, symSize: 0x34 }
  - { offset: 0x2AB44, size: 0x8, addend: 0x0, symName: __ZNSt3__1lsB8ne180100IcNS_11char_traitsIcEENS_9allocatorIcEEEERNS_13basic_ostreamIT_T0_EES9_RKNS_12basic_stringIS6_S7_T1_EE, symObjAddr: 0x74C, symBinAddr: 0x100009138, symSize: 0x4C }
  - { offset: 0x2AB9C, size: 0x8, addend: 0x0, symName: __ZNSt3__14endlB8ne180100IcNS_11char_traitsIcEEEERNS_13basic_ostreamIT_T0_EES7_, symObjAddr: 0x7C4, symBinAddr: 0x1000091B0, symSize: 0x58 }
  - { offset: 0x2ABDC, size: 0x8, addend: 0x0, symName: __ZNSt3__1eqB8ne180100IPP4RoomEEbRKNS_11__wrap_iterIT_EES8_, symObjAddr: 0x94C, symBinAddr: 0x100009338, symSize: 0x48 }
  - { offset: 0x2AC1F, size: 0x8, addend: 0x0, symName: __ZNSt3__116__pad_and_outputB8ne180100IcNS_11char_traitsIcEEEENS_19ostreambuf_iteratorIT_T0_EES6_PKS4_S8_S8_RNS_8ios_baseES4_, symObjAddr: 0x1CB0, symBinAddr: 0x100009824, symSize: 0x240 }
  - { offset: 0x2ACEF, size: 0x8, addend: 0x0, symName: __ZNSt3__112__to_addressB8ne180100IcEEPT_S2_, symObjAddr: 0x21AC, symBinAddr: 0x100009C94, symSize: 0x14 }
  - { offset: 0x2AD57, size: 0x8, addend: 0x0, symName: __ZNSt3__19use_facetB8ne180100INS_5ctypeIcEEEERKT_RKNS_6localeE, symObjAddr: 0x2464, symBinAddr: 0x100009EDC, symSize: 0x2C }
  - { offset: 0x2B224, size: 0x8, addend: 0x0, symName: __ZNSt3__112__to_addressB8ne180100IKcEEPT_S3_, symObjAddr: 0x24FC, symBinAddr: 0x100009F74, symSize: 0x14 }
  - { offset: 0x2B28C, size: 0x8, addend: 0x0, symName: __ZNSt3__122__make_exception_guardB8ne180100INS_6vectorIP4RoomNS_9allocatorIS3_EEE16__destroy_vectorEEENS_28__exception_guard_exceptionsIT_EES9_, symObjAddr: 0x2878, symBinAddr: 0x10000A294, symSize: 0x40 }
  - { offset: 0x2B2C1, size: 0x8, addend: 0x0, symName: __ZNSt3__119__allocate_at_leastB8ne180100INS_9allocatorIP4RoomEEEENS_19__allocation_resultINS_16allocator_traitsIT_E7pointerEEERS7_m, symObjAddr: 0x2B0C, symBinAddr: 0x10000A528, symSize: 0x40 }
  - { offset: 0x2B304, size: 0x8, addend: 0x0, symName: __ZNSt3__130__uninitialized_allocator_copyB8ne180100INS_9allocatorIP4RoomEEPS3_S5_S5_EET2_RT_T0_T1_S6_, symObjAddr: 0x2F1C, symBinAddr: 0x10000A6A8, symSize: 0x80 }
  - { offset: 0x2B3A1, size: 0x8, addend: 0x0, symName: __ZNSt3__114__unwrap_rangeB8ne180100IPP4RoomS3_EENS_4pairIT0_S5_EET_S7_, symObjAddr: 0x300C, symBinAddr: 0x10000A798, symSize: 0x60 }
  - { offset: 0x2B3ED, size: 0x8, addend: 0x0, symName: __ZNSt3__135__uninitialized_allocator_copy_implB8ne180100INS_9allocatorIP4RoomEES3_S3_S3_LPv0EEEPT2_RT_PT0_SB_S7_, symObjAddr: 0x306C, symBinAddr: 0x10000A7F8, symSize: 0x38 }
  - { offset: 0x2B470, size: 0x8, addend: 0x0, symName: __ZNSt3__113__unwrap_iterB8ne180100IPP4RoomNS_18__unwrap_iter_implIS3_Lb1EEELi0EEEDTclsrT0_8__unwrapclsr3stdE7declvalIT_EEEES7_, symObjAddr: 0x30A4, symBinAddr: 0x10000A830, symSize: 0x24 }
  - { offset: 0x2B4B4, size: 0x8, addend: 0x0, symName: __ZNSt3__113__rewrap_iterB8ne180100IPP4RoomS3_NS_18__unwrap_iter_implIS3_Lb1EEEEET_S6_T0_, symObjAddr: 0x30C8, symBinAddr: 0x10000A854, symSize: 0x3C }
  - { offset: 0x2B509, size: 0x8, addend: 0x0, symName: __ZNSt3__19make_pairB8ne180100IPP4RoomS3_EENS_4pairINS_18__unwrap_ref_decayIT_E4typeENS5_IT0_E4typeEEEOS6_OS9_, symObjAddr: 0x3104, symBinAddr: 0x10000A890, symSize: 0x38 }
  - { offset: 0x2B65B, size: 0x8, addend: 0x0, symName: __ZNSt3__14copyB8ne180100IPP4RoomS3_EET0_T_S5_S4_, symObjAddr: 0x31AC, symBinAddr: 0x10000A938, symSize: 0x40 }
  - { offset: 0x2B6B5, size: 0x8, addend: 0x0, symName: __ZNSt3__16__copyB8ne180100INS_17_ClassicAlgPolicyEPP4RoomS4_S4_EENS_4pairIT0_T2_EES6_T1_S7_, symObjAddr: 0x31EC, symBinAddr: 0x10000A978, symSize: 0x44 }
  - { offset: 0x2B721, size: 0x8, addend: 0x0, symName: __ZNSt3__123__dispatch_copy_or_moveB8ne180100INS_17_ClassicAlgPolicyENS_11__copy_loopIS1_EENS_14__copy_trivialEPP4RoomS7_S7_EENS_4pairIT2_T4_EES9_T3_SA_, symObjAddr: 0x3230, symBinAddr: 0x10000A9BC, symSize: 0x44 }
  - { offset: 0x2B79F, size: 0x8, addend: 0x0, symName: __ZNSt3__121__unwrap_and_dispatchB8ne180100INS_10__overloadINS_11__copy_loopINS_17_ClassicAlgPolicyEEENS_14__copy_trivialEEEPP4RoomS9_S9_Li0EEENS_4pairIT0_T2_EESB_T1_SC_, symObjAddr: 0x3274, symBinAddr: 0x10000AA00, symSize: 0xB4 }
  - { offset: 0x2B875, size: 0x8, addend: 0x0, symName: __ZNSt3__114__rewrap_rangeB8ne180100IPP4RoomS3_EET_S4_T0_, symObjAddr: 0x3370, symBinAddr: 0x10000AAFC, symSize: 0x2C }
  - { offset: 0x2B8C1, size: 0x8, addend: 0x0, symName: __ZNSt3__119__copy_trivial_implB8ne180100IP4RoomS2_EENS_4pairIPT_PT0_EES5_S5_S7_, symObjAddr: 0x339C, symBinAddr: 0x10000AB28, symSize: 0x80 }
  - { offset: 0x2B92A, size: 0x8, addend: 0x0, symName: __ZNSt3__119__constexpr_memmoveB8ne180100IP4RoomS2_Li0EEEPT_S4_PT0_NS_15__element_countE, symObjAddr: 0x341C, symBinAddr: 0x10000ABA8, symSize: 0x64 }
  - { offset: 0x2B999, size: 0x8, addend: 0x0, symName: __ZNSt3__19make_pairB8ne180100IRPP4RoomS3_EENS_4pairINS_18__unwrap_ref_decayIT_E4typeENS6_IT0_E4typeEEEOS7_OSA_, symObjAddr: 0x3480, symBinAddr: 0x10000AC0C, symSize: 0x38 }
  - { offset: 0x2BA3B, size: 0x8, addend: 0x0, symName: __ZNSt3__142__uninitialized_allocator_move_if_noexceptB8ne180100INS_9allocatorIP4RoomEENS_16reverse_iteratorIPS3_EES7_S3_vEET1_RT_T0_SB_S8_, symObjAddr: 0x3CB8, symBinAddr: 0x10000B3C4, symSize: 0x78 }
  - { offset: 0x2BAB9, size: 0x8, addend: 0x0, symName: __ZNSt3__14swapB8ne180100IPP4RoomEENS_9enable_ifIXaasr21is_move_constructibleIT_EE5valuesr18is_move_assignableIS5_EE5valueEvE4typeERS5_S8_, symObjAddr: 0x3D7C, symBinAddr: 0x10000B488, symSize: 0x3C }
  - { offset: 0x2BB0B, size: 0x8, addend: 0x0, symName: __ZNSt3__14moveB8ne180100INS_16reverse_iteratorIPP4RoomEES5_EET0_T_S7_S6_, symObjAddr: 0x3DB8, symBinAddr: 0x10000B4C4, symSize: 0x78 }
  - { offset: 0x2BB65, size: 0x8, addend: 0x0, symName: __ZNSt3__16__moveB8ne180100INS_17_ClassicAlgPolicyENS_16reverse_iteratorIPP4RoomEES6_S6_EENS_4pairIT0_T2_EES8_T1_S9_, symObjAddr: 0x3E30, symBinAddr: 0x10000B53C, symSize: 0x64 }
  - { offset: 0x2BBD1, size: 0x8, addend: 0x0, symName: __ZNSt3__123__dispatch_copy_or_moveB8ne180100INS_17_ClassicAlgPolicyENS_11__move_loopIS1_EENS_14__move_trivialENS_16reverse_iteratorIPP4RoomEES9_S9_EENS_4pairIT2_T4_EESB_T3_SC_, symObjAddr: 0x3E94, symBinAddr: 0x10000B5A0, symSize: 0x64 }
  - { offset: 0x2BC4F, size: 0x8, addend: 0x0, symName: __ZNSt3__121__unwrap_and_dispatchB8ne180100INS_10__overloadINS_11__move_loopINS_17_ClassicAlgPolicyEEENS_14__move_trivialEEENS_16reverse_iteratorIPP4RoomEESB_SB_Li0EEENS_4pairIT0_T2_EESD_T1_SE_, symObjAddr: 0x3EF8, symBinAddr: 0x10000B604, symSize: 0x12C }
  - { offset: 0x2BCE1, size: 0x8, addend: 0x0, symName: __ZNSt3__114__unwrap_rangeB8ne180100INS_16reverse_iteratorIPP4RoomEES5_EENS_4pairIT0_S7_EET_S9_, symObjAddr: 0x4024, symBinAddr: 0x10000B730, symSize: 0x84 }
  - { offset: 0x2BE53, size: 0x8, addend: 0x0, symName: __ZNSt3__113__unwrap_iterB8ne180100INS_16reverse_iteratorIPP4RoomEENS_18__unwrap_iter_implIS5_Lb0EEELi0EEEDTclsrT0_8__unwrapclsr3stdE7declvalIT_EEEES9_, symObjAddr: 0x4148, symBinAddr: 0x10000B854, symSize: 0x44 }
  - { offset: 0x2BE97, size: 0x8, addend: 0x0, symName: __ZNSt3__19make_pairB8ne180100INS_16reverse_iteratorIPP4RoomEES5_EENS_4pairINS_18__unwrap_ref_decayIT_E4typeENS7_IT0_E4typeEEEOS8_OSB_, symObjAddr: 0x418C, symBinAddr: 0x10000B898, symSize: 0x38 }
  - { offset: 0x2BEE6, size: 0x8, addend: 0x0, symName: __ZNSt3__114__rewrap_rangeB8ne180100INS_16reverse_iteratorIPP4RoomEES5_EET_S6_T0_, symObjAddr: 0x41C4, symBinAddr: 0x10000B8D0, symSize: 0x5C }
  - { offset: 0x2BF32, size: 0x8, addend: 0x0, symName: __ZNSt3__113__rewrap_iterB8ne180100INS_16reverse_iteratorIPP4RoomEES5_NS_18__unwrap_iter_implIS5_Lb0EEEEET_S8_T0_, symObjAddr: 0x4220, symBinAddr: 0x10000B92C, symSize: 0x74 }
  - { offset: 0x2BF87, size: 0x8, addend: 0x0, symName: __ZNSt3__1neB8ne180100IPP4RoomS3_EEbRKNS_16reverse_iteratorIT_EERKNS4_IT0_EE, symObjAddr: 0x4294, symBinAddr: 0x10000B9A0, symSize: 0x48 }
  - { offset: 0x2D3AE, size: 0x8, addend: 0x0, symName: __ZNSt3__16vectorIP4RoomNS_9allocatorIS2_EEE26__swap_out_circular_bufferERNS_14__split_bufferIS2_RS4_EE, symObjAddr: 0x38D0, symBinAddr: 0x10000B05C, symSize: 0x110 }
  - { offset: 0x2D4EA, size: 0x8, addend: 0x0, symName: __ZN8BuildingC2ENSt3__112basic_stringIcNS0_11char_traitsIcEENS0_9allocatorIcEEEE, symObjAddr: 0x0, symBinAddr: 0x100008A44, symSize: 0x7C }
  - { offset: 0x2D525, size: 0x8, addend: 0x0, symName: __ZNSt3__16vectorIP4RoomNS_9allocatorIS2_EEEC1B8ne180100Ev, symObjAddr: 0xA8, symBinAddr: 0x100008AC0, symSize: 0x2C }
  - { offset: 0x2D54F, size: 0x8, addend: 0x0, symName: __ZN8BuildingC1ENSt3__112basic_stringIcNS0_11char_traitsIcEENS0_9allocatorIcEEEE, symObjAddr: 0x100, symBinAddr: 0x100008AEC, symSize: 0x34 }
  - { offset: 0x2D58A, size: 0x8, addend: 0x0, symName: __ZN8BuildingD2Ev, symObjAddr: 0x134, symBinAddr: 0x100008B20, symSize: 0xD0 }
  - { offset: 0x2D608, size: 0x8, addend: 0x0, symName: __ZNSt3__16vectorIP4RoomNS_9allocatorIS2_EEE5beginB8ne180100Ev, symObjAddr: 0x204, symBinAddr: 0x100008BF0, symSize: 0x30 }
  - { offset: 0x2D630, size: 0x8, addend: 0x0, symName: __ZNSt3__16vectorIP4RoomNS_9allocatorIS2_EEE3endB8ne180100Ev, symObjAddr: 0x234, symBinAddr: 0x100008C20, symSize: 0x30 }
  - { offset: 0x2D658, size: 0x8, addend: 0x0, symName: __ZNKSt3__111__wrap_iterIPP4RoomEdeB8ne180100Ev, symObjAddr: 0x298, symBinAddr: 0x100008C84, symSize: 0x18 }
  - { offset: 0x2D67E, size: 0x8, addend: 0x0, symName: __ZN4RoomD1Ev, symObjAddr: 0x2B0, symBinAddr: 0x100008C9C, symSize: 0x2C }
  - { offset: 0x2D6AA, size: 0x8, addend: 0x0, symName: __ZNSt3__111__wrap_iterIPP4RoomEppB8ne180100Ev, symObjAddr: 0x2DC, symBinAddr: 0x100008CC8, symSize: 0x20 }
  - { offset: 0x2D6D0, size: 0x8, addend: 0x0, symName: __ZNSt3__16vectorIP4RoomNS_9allocatorIS2_EEE5clearB8ne180100Ev, symObjAddr: 0x2FC, symBinAddr: 0x100008CE8, symSize: 0x44 }
  - { offset: 0x2D705, size: 0x8, addend: 0x0, symName: __ZN8BuildingD1Ev, symObjAddr: 0x340, symBinAddr: 0x100008D2C, symSize: 0x2C }
  - { offset: 0x2D731, size: 0x8, addend: 0x0, symName: __ZN8Building16hasAvailableRoomEddNSt3__112basic_stringIcNS0_11char_traitsIcEENS0_9allocatorIcEEEE, symObjAddr: 0x36C, symBinAddr: 0x100008D58, symSize: 0xF0 }
  - { offset: 0x2D793, size: 0x8, addend: 0x0, symName: __ZN8Building17getAvailableRoomsEddNSt3__112basic_stringIcNS0_11char_traitsIcEENS0_9allocatorIcEEEE, symObjAddr: 0x45C, symBinAddr: 0x100008E48, symSize: 0x188 }
  - { offset: 0x2D84A, size: 0x8, addend: 0x0, symName: __ZNKSt3__16vectorIP4RoomNS_9allocatorIS2_EEE4sizeB8ne180100Ev, symObjAddr: 0x5E4, symBinAddr: 0x100008FD0, symSize: 0x28 }
  - { offset: 0x2D870, size: 0x8, addend: 0x0, symName: __ZN8Building11getAllRoomsEv, symObjAddr: 0x60C, symBinAddr: 0x100008FF8, symSize: 0x140 }
  - { offset: 0x2D8DC, size: 0x8, addend: 0x0, symName: __ZNSt3__113basic_ostreamIcNS_11char_traitsIcEEElsB8ne180100EPFRS3_S4_E, symObjAddr: 0x798, symBinAddr: 0x100009184, symSize: 0x2C }
  - { offset: 0x2D910, size: 0x8, addend: 0x0, symName: __ZNSt3__16vectorIP4RoomNS_9allocatorIS2_EEEC1ERKS5_, symObjAddr: 0x81C, symBinAddr: 0x100009208, symSize: 0x34 }
  - { offset: 0x2D94B, size: 0x8, addend: 0x0, symName: __ZNSt3__16vectorIP4RoomNS_9allocatorIS2_EEE9push_backB8ne180100ERKS2_, symObjAddr: 0x850, symBinAddr: 0x10000923C, symSize: 0x90 }
  - { offset: 0x2D991, size: 0x8, addend: 0x0, symName: __ZNK8Building7getNameEv, symObjAddr: 0x8E0, symBinAddr: 0x1000092CC, symSize: 0x38 }
  - { offset: 0x2D9B9, size: 0x8, addend: 0x0, symName: __ZN8Building7addRoomEP4Room, symObjAddr: 0x918, symBinAddr: 0x100009304, symSize: 0x34 }
  - { offset: 0x2D9EF, size: 0x8, addend: 0x0, symName: __ZNKSt3__111__wrap_iterIPP4RoomE4baseB8ne180100Ev, symObjAddr: 0x994, symBinAddr: 0x100009380, symSize: 0x18 }
  - { offset: 0x2DA15, size: 0x8, addend: 0x0, symName: __ZN4RoomD2Ev, symObjAddr: 0x9AC, symBinAddr: 0x100009398, symSize: 0x74 }
  - { offset: 0x2DA47, size: 0x8, addend: 0x0, symName: __ZNSt3__16vectorIP4RoomNS_9allocatorIS2_EEEC2B8ne180100Ev, symObjAddr: 0x1490, symBinAddr: 0x10000940C, symSize: 0x4C }
  - { offset: 0x2DA77, size: 0x8, addend: 0x0, symName: __ZNSt3__117__compressed_pairIPP4RoomNS_9allocatorIS2_EEEC1B8ne180100IDnNS_18__default_init_tagEEEOT_OT0_, symObjAddr: 0x14DC, symBinAddr: 0x100009458, symSize: 0x3C }
  - { offset: 0x2DACF, size: 0x8, addend: 0x0, symName: __ZNSt3__117__compressed_pairIPP4RoomNS_9allocatorIS2_EEEC2B8ne180100IDnNS_18__default_init_tagEEEOT_OT0_, symObjAddr: 0x1518, symBinAddr: 0x100009494, symSize: 0x40 }
  - { offset: 0x2DB27, size: 0x8, addend: 0x0, symName: __ZNSt3__122__compressed_pair_elemIPP4RoomLi0ELb0EEC2B8ne180100IDnvEEOT_, symObjAddr: 0x1558, symBinAddr: 0x1000094D4, symSize: 0x1C }
  - { offset: 0x2DB69, size: 0x8, addend: 0x0, symName: __ZNSt3__122__compressed_pair_elemINS_9allocatorIP4RoomEELi1ELb1EEC2B8ne180100ENS_18__default_init_tagE, symObjAddr: 0x1574, symBinAddr: 0x1000094F0, symSize: 0x2C }
  - { offset: 0x2DB9E, size: 0x8, addend: 0x0, symName: __ZNSt3__19allocatorIP4RoomEC2B8ne180100Ev, symObjAddr: 0x15A0, symBinAddr: 0x10000951C, symSize: 0x2C }
  - { offset: 0x2DBC8, size: 0x8, addend: 0x0, symName: __ZNSt3__116__non_trivial_ifILb1ENS_9allocatorIP4RoomEEEC2B8ne180100Ev, symObjAddr: 0x15CC, symBinAddr: 0x100009548, symSize: 0x14 }
  - { offset: 0x2DBF2, size: 0x8, addend: 0x0, symName: __ZNSt3__16vectorIP4RoomNS_9allocatorIS2_EEE11__make_iterB8ne180100EPS2_, symObjAddr: 0x1994, symBinAddr: 0x10000955C, symSize: 0x30 }
  - { offset: 0x2DC27, size: 0x8, addend: 0x0, symName: __ZNSt3__111__wrap_iterIPP4RoomEC1B8ne180100ES3_, symObjAddr: 0x19C4, symBinAddr: 0x10000958C, symSize: 0x34 }
  - { offset: 0x2DC5F, size: 0x8, addend: 0x0, symName: __ZNSt3__111__wrap_iterIPP4RoomEC2B8ne180100ES3_, symObjAddr: 0x19F8, symBinAddr: 0x1000095C0, symSize: 0x20 }
  - { offset: 0x2DC97, size: 0x8, addend: 0x0, symName: __ZNKSt3__16vectorIP4RoomNS_9allocatorIS2_EEE17__annotate_shrinkB8ne180100Em, symObjAddr: 0x1A18, symBinAddr: 0x1000095E0, symSize: 0x14 }
  - { offset: 0x2DCCC, size: 0x8, addend: 0x0, symName: __ZNKSt3__112basic_stringIcNS_11char_traitsIcEENS_9allocatorIcEEE4dataB8ne180100Ev, symObjAddr: 0x1C18, symBinAddr: 0x1000097E0, symSize: 0x28 }
  - { offset: 0x2DD13, size: 0x8, addend: 0x0, symName: __ZNKSt3__113basic_ostreamIcNS_11char_traitsIcEEE6sentrycvbB8ne180100Ev, symObjAddr: 0x1C94, symBinAddr: 0x100009808, symSize: 0x1C }
  - { offset: 0x2DD39, size: 0x8, addend: 0x0, symName: __ZNSt3__119ostreambuf_iteratorIcNS_11char_traitsIcEEEC1B8ne180100ERNS_13basic_ostreamIcS2_EE, symObjAddr: 0x1EF0, symBinAddr: 0x100009A64, symSize: 0x34 }
  - { offset: 0x2DD71, size: 0x8, addend: 0x0, symName: __ZNKSt3__18ios_base5flagsB8ne180100Ev, symObjAddr: 0x1F24, symBinAddr: 0x100009A98, symSize: 0x18 }
  - { offset: 0x2DD99, size: 0x8, addend: 0x0, symName: __ZNKSt3__19basic_iosIcNS_11char_traitsIcEEE4fillB8ne180100Ev, symObjAddr: 0x1F3C, symBinAddr: 0x100009AB0, symSize: 0x64 }
  - { offset: 0x2DDC1, size: 0x8, addend: 0x0, symName: __ZNKSt3__119ostreambuf_iteratorIcNS_11char_traitsIcEEE6failedB8ne180100Ev, symObjAddr: 0x1FA0, symBinAddr: 0x100009B14, symSize: 0x24 }
  - { offset: 0x2DDE7, size: 0x8, addend: 0x0, symName: __ZNSt3__19basic_iosIcNS_11char_traitsIcEEE8setstateB8ne180100Ej, symObjAddr: 0x1FC4, symBinAddr: 0x100009B38, symSize: 0x2C }
  - { offset: 0x2DE1C, size: 0x8, addend: 0x0, symName: __ZNKSt3__18ios_base5widthB8ne180100Ev, symObjAddr: 0x1FF0, symBinAddr: 0x100009B64, symSize: 0x18 }
  - { offset: 0x2DE44, size: 0x8, addend: 0x0, symName: __ZNSt3__115basic_streambufIcNS_11char_traitsIcEEE5sputnB8ne180100EPKcl, symObjAddr: 0x2008, symBinAddr: 0x100009B7C, symSize: 0x3C }
  - { offset: 0x2DE86, size: 0x8, addend: 0x0, symName: __ZNSt3__112basic_stringIcNS_11char_traitsIcEENS_9allocatorIcEEEC1B8ne180100Emc, symObjAddr: 0x2044, symBinAddr: 0x100009BB8, symSize: 0x3C }
  - { offset: 0x2DECE, size: 0x8, addend: 0x0, symName: __ZNSt3__112basic_stringIcNS_11char_traitsIcEENS_9allocatorIcEEE4dataB8ne180100Ev, symObjAddr: 0x2080, symBinAddr: 0x100009BF4, symSize: 0x28 }
  - { offset: 0x2DEF4, size: 0x8, addend: 0x0, symName: __ZNSt3__18ios_base5widthB8ne180100El, symObjAddr: 0x20A8, symBinAddr: 0x100009C1C, symSize: 0x2C }
  - { offset: 0x2DF3A, size: 0x8, addend: 0x0, symName: __ZNSt3__112basic_stringIcNS_11char_traitsIcEENS_9allocatorIcEEEC2B8ne180100Emc, symObjAddr: 0x20D4, symBinAddr: 0x100009C48, symSize: 0x4C }
  - { offset: 0x2DF82, size: 0x8, addend: 0x0, symName: __ZNSt3__112basic_stringIcNS_11char_traitsIcEENS_9allocatorIcEEE13__get_pointerB8ne180100Ev, symObjAddr: 0x21C0, symBinAddr: 0x100009CA8, symSize: 0x54 }
  - { offset: 0x2DFA8, size: 0x8, addend: 0x0, symName: __ZNSt3__112basic_stringIcNS_11char_traitsIcEENS_9allocatorIcEEE18__get_long_pointerB8ne180100Ev, symObjAddr: 0x224C, symBinAddr: 0x100009CFC, symSize: 0x28 }
  - { offset: 0x2DFCE, size: 0x8, addend: 0x0, symName: __ZNSt3__112basic_stringIcNS_11char_traitsIcEENS_9allocatorIcEEE19__get_short_pointerB8ne180100Ev, symObjAddr: 0x2274, symBinAddr: 0x100009D24, symSize: 0x28 }
  - { offset: 0x2DFF4, size: 0x8, addend: 0x0, symName: __ZNSt3__117__compressed_pairINS_12basic_stringIcNS_11char_traitsIcEENS_9allocatorIcEEE5__repES5_E5firstB8ne180100Ev, symObjAddr: 0x22D4, symBinAddr: 0x100009D4C, symSize: 0x24 }
  - { offset: 0x2E01A, size: 0x8, addend: 0x0, symName: __ZNSt3__122__compressed_pair_elemINS_12basic_stringIcNS_11char_traitsIcEENS_9allocatorIcEEE5__repELi0ELb0EE5__getB8ne180100Ev, symObjAddr: 0x22F8, symBinAddr: 0x100009D70, symSize: 0x14 }
  - { offset: 0x2E040, size: 0x8, addend: 0x0, symName: __ZNSt3__114pointer_traitsIPcE10pointer_toB8ne180100ERc, symObjAddr: 0x230C, symBinAddr: 0x100009D84, symSize: 0x14 }
  - { offset: 0x2E063, size: 0x8, addend: 0x0, symName: __ZNSt3__119ostreambuf_iteratorIcNS_11char_traitsIcEEEC2B8ne180100ERNS_13basic_ostreamIcS2_EE, symObjAddr: 0x2320, symBinAddr: 0x100009D98, symSize: 0x54 }
  - { offset: 0x2E09B, size: 0x8, addend: 0x0, symName: __ZNKSt3__19basic_iosIcNS_11char_traitsIcEEE5rdbufB8ne180100Ev, symObjAddr: 0x2374, symBinAddr: 0x100009DEC, symSize: 0x24 }
  - { offset: 0x2E0C3, size: 0x8, addend: 0x0, symName: __ZNKSt3__18ios_base5rdbufB8ne180100Ev, symObjAddr: 0x2398, symBinAddr: 0x100009E10, symSize: 0x18 }
  - { offset: 0x2E0E9, size: 0x8, addend: 0x0, symName: __ZNSt3__111char_traitsIcE11eq_int_typeB8ne180100Eii, symObjAddr: 0x23B0, symBinAddr: 0x100009E28, symSize: 0x28 }
  - { offset: 0x2E11C, size: 0x8, addend: 0x0, symName: __ZNSt3__111char_traitsIcE3eofB8ne180100Ev, symObjAddr: 0x23D8, symBinAddr: 0x100009E50, symSize: 0x8 }
  - { offset: 0x2E130, size: 0x8, addend: 0x0, symName: __ZNKSt3__19basic_iosIcNS_11char_traitsIcEEE5widenB8ne180100Ec, symObjAddr: 0x23E0, symBinAddr: 0x100009E58, symSize: 0x84 }
  - { offset: 0x2E199, size: 0x8, addend: 0x0, symName: __ZNKSt3__15ctypeIcE5widenB8ne180100Ec, symObjAddr: 0x2490, symBinAddr: 0x100009F08, symSize: 0x38 }
  - { offset: 0x2E1CE, size: 0x8, addend: 0x0, symName: __ZNSt3__18ios_base8setstateB8ne180100Ej, symObjAddr: 0x24C8, symBinAddr: 0x100009F40, symSize: 0x34 }
  - { offset: 0x2E205, size: 0x8, addend: 0x0, symName: __ZNKSt3__112basic_stringIcNS_11char_traitsIcEENS_9allocatorIcEEE13__get_pointerB8ne180100Ev, symObjAddr: 0x2510, symBinAddr: 0x100009F88, symSize: 0x54 }
  - { offset: 0x2E22B, size: 0x8, addend: 0x0, symName: __ZNKSt3__112basic_stringIcNS_11char_traitsIcEENS_9allocatorIcEEE18__get_long_pointerB8ne180100Ev, symObjAddr: 0x2564, symBinAddr: 0x100009FDC, symSize: 0x28 }
  - { offset: 0x2E251, size: 0x8, addend: 0x0, symName: __ZNKSt3__112basic_stringIcNS_11char_traitsIcEENS_9allocatorIcEEE19__get_short_pointerB8ne180100Ev, symObjAddr: 0x258C, symBinAddr: 0x10000A004, symSize: 0x28 }
  - { offset: 0x2E277, size: 0x8, addend: 0x0, symName: __ZNSt3__114pointer_traitsIPKcE10pointer_toB8ne180100ERS1_, symObjAddr: 0x25B4, symBinAddr: 0x10000A02C, symSize: 0x14 }
  - { offset: 0x2E29A, size: 0x8, addend: 0x0, symName: __ZNSt3__16vectorIP4RoomNS_9allocatorIS2_EEEC2ERKS5_, symObjAddr: 0x2624, symBinAddr: 0x10000A040, symSize: 0x94 }
  - { offset: 0x2E2E0, size: 0x8, addend: 0x0, symName: __ZNSt3__116allocator_traitsINS_9allocatorIP4RoomEEE37select_on_container_copy_constructionB8ne180100IS4_vvEES4_RKS4_, symObjAddr: 0x26B8, symBinAddr: 0x10000A0D4, symSize: 0x10 }
  - { offset: 0x2E30F, size: 0x8, addend: 0x0, symName: __ZNKSt3__16vectorIP4RoomNS_9allocatorIS2_EEE7__allocB8ne180100Ev, symObjAddr: 0x26C8, symBinAddr: 0x10000A0E4, symSize: 0x28 }
  - { offset: 0x2E33B, size: 0x8, addend: 0x0, symName: __ZNSt3__117__compressed_pairIPP4RoomNS_9allocatorIS2_EEEC1B8ne180100IDnS5_EEOT_OT0_, symObjAddr: 0x26F0, symBinAddr: 0x10000A10C, symSize: 0x3C }
  - { offset: 0x2E393, size: 0x8, addend: 0x0, symName: __ZNSt3__16vectorIP4RoomNS_9allocatorIS2_EEE16__init_with_sizeB8ne180100IPS2_S7_EEvT_T0_m, symObjAddr: 0x272C, symBinAddr: 0x10000A148, symSize: 0xB8 }
  - { offset: 0x2E407, size: 0x8, addend: 0x0, symName: __ZNKSt3__117__compressed_pairIPP4RoomNS_9allocatorIS2_EEE6secondB8ne180100Ev, symObjAddr: 0x27E4, symBinAddr: 0x10000A200, symSize: 0x24 }
  - { offset: 0x2E42D, size: 0x8, addend: 0x0, symName: __ZNKSt3__122__compressed_pair_elemINS_9allocatorIP4RoomEELi1ELb1EE5__getB8ne180100Ev, symObjAddr: 0x2808, symBinAddr: 0x10000A224, symSize: 0x14 }
  - { offset: 0x2E453, size: 0x8, addend: 0x0, symName: __ZNSt3__117__compressed_pairIPP4RoomNS_9allocatorIS2_EEEC2B8ne180100IDnS5_EEOT_OT0_, symObjAddr: 0x281C, symBinAddr: 0x10000A238, symSize: 0x44 }
  - { offset: 0x2E4AB, size: 0x8, addend: 0x0, symName: __ZNSt3__122__compressed_pair_elemINS_9allocatorIP4RoomEELi1ELb1EEC2B8ne180100IS4_vEEOT_, symObjAddr: 0x2860, symBinAddr: 0x10000A27C, symSize: 0x18 }
  - { offset: 0x2E4ED, size: 0x8, addend: 0x0, symName: __ZNSt3__16vectorIP4RoomNS_9allocatorIS2_EEE11__vallocateB8ne180100Em, symObjAddr: 0x28B8, symBinAddr: 0x10000A2D4, symSize: 0xAC }
  - { offset: 0x2E531, size: 0x8, addend: 0x0, symName: __ZNSt3__16vectorIP4RoomNS_9allocatorIS2_EEE18__construct_at_endIPS2_S7_EEvT_T0_m, symObjAddr: 0x2964, symBinAddr: 0x10000A380, symSize: 0x8C }
  - { offset: 0x2E5A7, size: 0x8, addend: 0x0, symName: __ZNSt3__128__exception_guard_exceptionsINS_6vectorIP4RoomNS_9allocatorIS3_EEE16__destroy_vectorEE10__completeB8ne180100Ev, symObjAddr: 0x29F0, symBinAddr: 0x10000A40C, symSize: 0x1C }
  - { offset: 0x2E5CD, size: 0x8, addend: 0x0, symName: __ZNSt3__128__exception_guard_exceptionsINS_6vectorIP4RoomNS_9allocatorIS3_EEE16__destroy_vectorEED1B8ne180100Ev, symObjAddr: 0x2A0C, symBinAddr: 0x10000A428, symSize: 0x2C }
  - { offset: 0x2E5F7, size: 0x8, addend: 0x0, symName: __ZNSt3__128__exception_guard_exceptionsINS_6vectorIP4RoomNS_9allocatorIS3_EEE16__destroy_vectorEEC1B8ne180100ES7_, symObjAddr: 0x2A38, symBinAddr: 0x10000A454, symSize: 0x34 }
  - { offset: 0x2E62F, size: 0x8, addend: 0x0, symName: __ZNSt3__128__exception_guard_exceptionsINS_6vectorIP4RoomNS_9allocatorIS3_EEE16__destroy_vectorEEC2B8ne180100ES7_, symObjAddr: 0x2A6C, symBinAddr: 0x10000A488, symSize: 0x24 }
  - { offset: 0x2E667, size: 0x8, addend: 0x0, symName: __ZNKSt3__16vectorIP4RoomNS_9allocatorIS2_EEE8max_sizeEv, symObjAddr: 0x2A90, symBinAddr: 0x10000A4AC, symSize: 0x60 }
  - { offset: 0x2E68F, size: 0x8, addend: 0x0, symName: __ZNKSt3__16vectorIP4RoomNS_9allocatorIS2_EEE20__throw_length_errorB8ne180100Ev, symObjAddr: 0x2AF0, symBinAddr: 0x10000A50C, symSize: 0x1C }
  - { offset: 0x2E6B5, size: 0x8, addend: 0x0, symName: __ZNSt3__16vectorIP4RoomNS_9allocatorIS2_EEE9__end_capB8ne180100Ev, symObjAddr: 0x2B4C, symBinAddr: 0x10000A568, symSize: 0x28 }
  - { offset: 0x2E6DB, size: 0x8, addend: 0x0, symName: __ZNKSt3__16vectorIP4RoomNS_9allocatorIS2_EEE14__annotate_newB8ne180100Em, symObjAddr: 0x2B74, symBinAddr: 0x10000A590, symSize: 0x14 }
  - { offset: 0x2E710, size: 0x8, addend: 0x0, symName: __ZNSt3__116allocator_traitsINS_9allocatorIP4RoomEEE8max_sizeB8ne180100IS4_vEEmRKS4_, symObjAddr: 0x2BB4, symBinAddr: 0x10000A5A4, symSize: 0x24 }
  - { offset: 0x2E73E, size: 0x8, addend: 0x0, symName: __ZNKSt3__19allocatorIP4RoomE8max_sizeB8ne180100Ev, symObjAddr: 0x2C74, symBinAddr: 0x10000A5C8, symSize: 0x14 }
  - { offset: 0x2E764, size: 0x8, addend: 0x0, symName: __ZNSt3__19allocatorIP4RoomE8allocateB8ne180100Em, symObjAddr: 0x2D6C, symBinAddr: 0x10000A5DC, symSize: 0x58 }
  - { offset: 0x2E798, size: 0x8, addend: 0x0, symName: __ZNSt3__117__compressed_pairIPP4RoomNS_9allocatorIS2_EEE5firstB8ne180100Ev, symObjAddr: 0x2EA8, symBinAddr: 0x10000A634, symSize: 0x24 }
  - { offset: 0x2E7BE, size: 0x8, addend: 0x0, symName: __ZNSt3__122__compressed_pair_elemIPP4RoomLi0ELb0EE5__getB8ne180100Ev, symObjAddr: 0x2ECC, symBinAddr: 0x10000A658, symSize: 0x14 }
  - { offset: 0x2E7FF, size: 0x8, addend: 0x0, symName: __ZNSt3__16vectorIP4RoomNS_9allocatorIS2_EEE21_ConstructTransactionC1B8ne180100ERS5_m, symObjAddr: 0x2EE0, symBinAddr: 0x10000A66C, symSize: 0x3C }
  - { offset: 0x2E847, size: 0x8, addend: 0x0, symName: __ZNSt3__16vectorIP4RoomNS_9allocatorIS2_EEE21_ConstructTransactionD1B8ne180100Ev, symObjAddr: 0x2F9C, symBinAddr: 0x10000A728, symSize: 0x2C }
  - { offset: 0x2E871, size: 0x8, addend: 0x0, symName: __ZNSt3__16vectorIP4RoomNS_9allocatorIS2_EEE21_ConstructTransactionC2B8ne180100ERS5_m, symObjAddr: 0x2FC8, symBinAddr: 0x10000A754, symSize: 0x44 }
  - { offset: 0x2E8DB, size: 0x8, addend: 0x0, symName: __ZNSt3__14pairIPP4RoomS3_EC1B8ne180100IS3_S3_Li0EEEOT_OT0_, symObjAddr: 0x313C, symBinAddr: 0x10000A8C8, symSize: 0x3C }
  - { offset: 0x2E939, size: 0x8, addend: 0x0, symName: __ZNSt3__14pairIPP4RoomS3_EC2B8ne180100IS3_S3_Li0EEEOT_OT0_, symObjAddr: 0x3178, symBinAddr: 0x10000A904, symSize: 0x34 }
  - { offset: 0x2E9A1, size: 0x8, addend: 0x0, symName: __ZNKSt3__114__copy_trivialclB8ne180100IP4RoomS3_Li0EEENS_4pairIPT_PT0_EES6_S6_S8_, symObjAddr: 0x3328, symBinAddr: 0x10000AAB4, symSize: 0x48 }
  - { offset: 0x2EA09, size: 0x8, addend: 0x0, symName: __ZNSt3__14pairIPP4RoomS3_EC1B8ne180100IRS3_S3_Li0EEEOT_OT0_, symObjAddr: 0x34B8, symBinAddr: 0x10000AC44, symSize: 0x3C }
  - { offset: 0x2EA67, size: 0x8, addend: 0x0, symName: __ZNSt3__14pairIPP4RoomS3_EC2B8ne180100IRS3_S3_Li0EEEOT_OT0_, symObjAddr: 0x34F4, symBinAddr: 0x10000AC80, symSize: 0x34 }
  - { offset: 0x2EAC5, size: 0x8, addend: 0x0, symName: __ZNSt3__118__unwrap_iter_implIPP4RoomLb1EE8__unwrapB8ne180100ES3_, symObjAddr: 0x3528, symBinAddr: 0x10000ACB4, symSize: 0x24 }
  - { offset: 0x2EAE8, size: 0x8, addend: 0x0, symName: __ZNSt3__118__unwrap_iter_implIPP4RoomLb1EE8__rewrapB8ne180100ES3_S3_, symObjAddr: 0x354C, symBinAddr: 0x10000ACD8, symSize: 0x50 }
  - { offset: 0x2EB19, size: 0x8, addend: 0x0, symName: __ZNSt3__16vectorIP4RoomNS_9allocatorIS2_EEE21_ConstructTransactionD2B8ne180100Ev, symObjAddr: 0x359C, symBinAddr: 0x10000AD28, symSize: 0x20 }
  - { offset: 0x2EB43, size: 0x8, addend: 0x0, symName: __ZNSt3__128__exception_guard_exceptionsINS_6vectorIP4RoomNS_9allocatorIS3_EEE16__destroy_vectorEED2B8ne180100Ev, symObjAddr: 0x35BC, symBinAddr: 0x10000AD48, symSize: 0x48 }
  - { offset: 0x2EB6D, size: 0x8, addend: 0x0, symName: __ZNSt3__16vectorIP4RoomNS_9allocatorIS2_EEE22__construct_one_at_endB8ne180100IJRKS2_EEEvDpOT_, symObjAddr: 0x3604, symBinAddr: 0x10000AD90, symSize: 0x90 }
  - { offset: 0x2EBBC, size: 0x8, addend: 0x0, symName: __ZNSt3__16vectorIP4RoomNS_9allocatorIS2_EEE21__push_back_slow_pathIRKS2_EEPS2_OT_, symObjAddr: 0x3694, symBinAddr: 0x10000AE20, symSize: 0xE8 }
  - { offset: 0x2EC1A, size: 0x8, addend: 0x0, symName: __ZNSt3__116allocator_traitsINS_9allocatorIP4RoomEEE9constructB8ne180100IS3_JRKS3_EvEEvRS4_PT_DpOT0_, symObjAddr: 0x377C, symBinAddr: 0x10000AF08, symSize: 0x34 }
  - { offset: 0x2EC71, size: 0x8, addend: 0x0, symName: __ZNSt3__19allocatorIP4RoomE9constructB8ne180100IS2_JRKS2_EEEvPT_DpOT0_, symObjAddr: 0x37B0, symBinAddr: 0x10000AF3C, symSize: 0x28 }
  - { offset: 0x2ECC7, size: 0x8, addend: 0x0, symName: __ZNKSt3__16vectorIP4RoomNS_9allocatorIS2_EEE11__recommendB8ne180100Em, symObjAddr: 0x37D8, symBinAddr: 0x10000AF64, symSize: 0xB4 }
  - { offset: 0x2ED1C, size: 0x8, addend: 0x0, symName: __ZNSt3__114__split_bufferIP4RoomRNS_9allocatorIS2_EEEC1EmmS5_, symObjAddr: 0x388C, symBinAddr: 0x10000B018, symSize: 0x44 }
  - { offset: 0x2ED72, size: 0x8, addend: 0x0, symName: __ZNSt3__114__split_bufferIP4RoomRNS_9allocatorIS2_EEED1Ev, symObjAddr: 0x39E0, symBinAddr: 0x10000B16C, symSize: 0x2C }
  - { offset: 0x2ED9E, size: 0x8, addend: 0x0, symName: __ZNSt3__114__split_bufferIP4RoomRNS_9allocatorIS2_EEEC2EmmS5_, symObjAddr: 0x3A8C, symBinAddr: 0x10000B198, symSize: 0xD4 }
  - { offset: 0x2EE11, size: 0x8, addend: 0x0, symName: __ZNSt3__117__compressed_pairIPP4RoomRNS_9allocatorIS2_EEEC1B8ne180100IDnS6_EEOT_OT0_, symObjAddr: 0x3B60, symBinAddr: 0x10000B26C, symSize: 0x3C }
  - { offset: 0x2EE69, size: 0x8, addend: 0x0, symName: __ZNSt3__114__split_bufferIP4RoomRNS_9allocatorIS2_EEE7__allocB8ne180100Ev, symObjAddr: 0x3B9C, symBinAddr: 0x10000B2A8, symSize: 0x28 }
  - { offset: 0x2EE8F, size: 0x8, addend: 0x0, symName: __ZNSt3__114__split_bufferIP4RoomRNS_9allocatorIS2_EEE9__end_capB8ne180100Ev, symObjAddr: 0x3BC4, symBinAddr: 0x10000B2D0, symSize: 0x28 }
  - { offset: 0x2EEB5, size: 0x8, addend: 0x0, symName: __ZNSt3__117__compressed_pairIPP4RoomRNS_9allocatorIS2_EEEC2B8ne180100IDnS6_EEOT_OT0_, symObjAddr: 0x3BEC, symBinAddr: 0x10000B2F8, symSize: 0x48 }
  - { offset: 0x2EF0D, size: 0x8, addend: 0x0, symName: __ZNSt3__122__compressed_pair_elemIRNS_9allocatorIP4RoomEELi1ELb0EEC2B8ne180100IS5_vEEOT_, symObjAddr: 0x3C34, symBinAddr: 0x10000B340, symSize: 0x20 }
  - { offset: 0x2EF4F, size: 0x8, addend: 0x0, symName: __ZNSt3__117__compressed_pairIPP4RoomRNS_9allocatorIS2_EEE6secondB8ne180100Ev, symObjAddr: 0x3C54, symBinAddr: 0x10000B360, symSize: 0x28 }
  - { offset: 0x2EF75, size: 0x8, addend: 0x0, symName: __ZNSt3__122__compressed_pair_elemIRNS_9allocatorIP4RoomEELi1ELb0EE5__getB8ne180100Ev, symObjAddr: 0x3C7C, symBinAddr: 0x10000B388, symSize: 0x18 }
  - { offset: 0x2EF9B, size: 0x8, addend: 0x0, symName: __ZNSt3__117__compressed_pairIPP4RoomRNS_9allocatorIS2_EEE5firstB8ne180100Ev, symObjAddr: 0x3C94, symBinAddr: 0x10000B3A0, symSize: 0x24 }
  - { offset: 0x2EFC1, size: 0x8, addend: 0x0, symName: __ZNSt3__116reverse_iteratorIPP4RoomEC1B8ne180100ES3_, symObjAddr: 0x3D30, symBinAddr: 0x10000B43C, symSize: 0x34 }
  - { offset: 0x2EFF9, size: 0x8, addend: 0x0, symName: __ZNKSt3__116reverse_iteratorIPP4RoomE4baseB8ne180100Ev, symObjAddr: 0x3D64, symBinAddr: 0x10000B470, symSize: 0x18 }
  - { offset: 0x2F045, size: 0x8, addend: 0x0, symName: __ZNKSt3__111__move_loopINS_17_ClassicAlgPolicyEEclB8ne180100INS_16reverse_iteratorIPP4RoomEES8_S8_EENS_4pairIT_T1_EESA_T0_SB_, symObjAddr: 0x40A8, symBinAddr: 0x10000B7B4, symSize: 0xA0 }
  - { offset: 0x2F0B6, size: 0x8, addend: 0x0, symName: __ZNSt3__18_IterOpsINS_17_ClassicAlgPolicyEE11__iter_moveB8ne180100IRNS_16reverse_iteratorIPP4RoomEELi0EEEDTclsr3stdE4movedeclsr3stdE7declvalIRT_EEEEOSA_, symObjAddr: 0x42DC, symBinAddr: 0x10000B9E8, symSize: 0x28 }
  - { offset: 0x2F0E8, size: 0x8, addend: 0x0, symName: __ZNKSt3__116reverse_iteratorIPP4RoomEdeB8ne180100Ev, symObjAddr: 0x4304, symBinAddr: 0x10000BA10, symSize: 0x28 }
  - { offset: 0x2F11D, size: 0x8, addend: 0x0, symName: __ZNSt3__116reverse_iteratorIPP4RoomEppB8ne180100Ev, symObjAddr: 0x432C, symBinAddr: 0x10000BA38, symSize: 0x20 }
  - { offset: 0x2F143, size: 0x8, addend: 0x0, symName: __ZNSt3__18_IterOpsINS_17_ClassicAlgPolicyEE25__validate_iter_referenceB8ne180100IRNS_16reverse_iteratorIPP4RoomEEEEvv, symObjAddr: 0x434C, symBinAddr: 0x10000BA58, symSize: 0x4 }
  - { offset: 0x2F161, size: 0x8, addend: 0x0, symName: __ZNSt3__118__unwrap_iter_implINS_16reverse_iteratorIPP4RoomEELb0EE8__unwrapB8ne180100ES5_, symObjAddr: 0x4350, symBinAddr: 0x10000BA5C, symSize: 0x24 }
  - { offset: 0x2F18A, size: 0x8, addend: 0x0, symName: __ZNSt3__14pairINS_16reverse_iteratorIPP4RoomEES5_EC1B8ne180100IS5_S5_Li0EEEOT_OT0_, symObjAddr: 0x4374, symBinAddr: 0x10000BA80, symSize: 0x3C }
  - { offset: 0x2F1E8, size: 0x8, addend: 0x0, symName: __ZNSt3__14pairINS_16reverse_iteratorIPP4RoomEES5_EC2B8ne180100IS5_S5_Li0EEEOT_OT0_, symObjAddr: 0x43B0, symBinAddr: 0x10000BABC, symSize: 0x34 }
  - { offset: 0x2F246, size: 0x8, addend: 0x0, symName: __ZNSt3__118__unwrap_iter_implINS_16reverse_iteratorIPP4RoomEELb0EE8__rewrapB8ne180100ES5_S5_, symObjAddr: 0x43E4, symBinAddr: 0x10000BAF0, symSize: 0x2C }
  - { offset: 0x2F274, size: 0x8, addend: 0x0, symName: __ZNSt3__116reverse_iteratorIPP4RoomEC2B8ne180100ES3_, symObjAddr: 0x4410, symBinAddr: 0x10000BB1C, symSize: 0x28 }
  - { offset: 0x2F2AC, size: 0x8, addend: 0x0, symName: __ZNSt3__114__split_bufferIP4RoomRNS_9allocatorIS2_EEED2Ev, symObjAddr: 0x4438, symBinAddr: 0x10000BB44, symSize: 0x8C }
  - { offset: 0x2F2D8, size: 0x8, addend: 0x0, symName: __ZNSt3__114__split_bufferIP4RoomRNS_9allocatorIS2_EEE5clearB8ne180100Ev, symObjAddr: 0x44C4, symBinAddr: 0x10000BBD0, symSize: 0x28 }
  - { offset: 0x2F2FE, size: 0x8, addend: 0x0, symName: __ZNKSt3__114__split_bufferIP4RoomRNS_9allocatorIS2_EEE8capacityB8ne180100Ev, symObjAddr: 0x44EC, symBinAddr: 0x10000BBF8, symSize: 0x40 }
  - { offset: 0x2F324, size: 0x8, addend: 0x0, symName: __ZNSt3__114__split_bufferIP4RoomRNS_9allocatorIS2_EEE17__destruct_at_endB8ne180100EPS2_, symObjAddr: 0x452C, symBinAddr: 0x10000BC38, symSize: 0x2C }
  - { offset: 0x2F358, size: 0x8, addend: 0x0, symName: __ZNSt3__114__split_bufferIP4RoomRNS_9allocatorIS2_EEE17__destruct_at_endB8ne180100EPS2_NS_17integral_constantIbLb0EEE, symObjAddr: 0x4558, symBinAddr: 0x10000BC64, symSize: 0x80 }
  - { offset: 0x2F399, size: 0x8, addend: 0x0, symName: __ZNKSt3__114__split_bufferIP4RoomRNS_9allocatorIS2_EEE9__end_capB8ne180100Ev, symObjAddr: 0x45D8, symBinAddr: 0x10000BCE4, symSize: 0x28 }
  - { offset: 0x2F3BF, size: 0x8, addend: 0x0, symName: __ZNKSt3__117__compressed_pairIPP4RoomRNS_9allocatorIS2_EEE5firstB8ne180100Ev, symObjAddr: 0x4600, symBinAddr: 0x10000BD0C, symSize: 0x24 }
  - { offset: 0x31372, size: 0x8, addend: 0x0, symName: __ZN8nlohmann16json_abi_v3_11_36detail12static_constINS1_10to_json_fnEE5valueE, symObjAddr: 0x39E37, symBinAddr: 0x10004602F, symSize: 0x0 }
  - { offset: 0x32870, size: 0x8, addend: 0x0, symName: __ZN8nlohmann16json_abi_v3_11_36detail6concatINSt3__112basic_stringIcNS3_11char_traitsIcEENS3_9allocatorIcEEEEJS9_S9_RKS9_EEET_DpOT0_, symObjAddr: 0xCE70, symBinAddr: 0x1000178C8, symSize: 0xD8 }
  - { offset: 0x328E6, size: 0x8, addend: 0x0, symName: __ZN8nlohmann16json_abi_v3_11_36detail13concat_lengthINSt3__112basic_stringIcNS3_11char_traitsIcEENS3_9allocatorIcEEEEJS9_S9_EEEmRKT_DpRKT0_, symObjAddr: 0xD08C, symBinAddr: 0x100017AB8, symSize: 0x48 }
  - { offset: 0x32947, size: 0x8, addend: 0x0, symName: __ZN8nlohmann16json_abi_v3_11_36detail11concat_intoINSt3__112basic_stringIcNS3_11char_traitsIcEENS3_9allocatorIcEEEES9_JS9_RKS9_ELi0EEEvRT_OT0_DpOT1_, symObjAddr: 0xD0D4, symBinAddr: 0x100017B00, symSize: 0x44 }
  - { offset: 0x329C1, size: 0x8, addend: 0x0, symName: __ZN8nlohmann16json_abi_v3_11_36detail13concat_lengthINSt3__112basic_stringIcNS3_11char_traitsIcEENS3_9allocatorIcEEEEJS9_EEEmRKT_DpRKT0_, symObjAddr: 0xD1F8, symBinAddr: 0x100017B44, symSize: 0x40 }
  - { offset: 0x32A0F, size: 0x8, addend: 0x0, symName: __ZN8nlohmann16json_abi_v3_11_36detail13concat_lengthINSt3__112basic_stringIcNS3_11char_traitsIcEENS3_9allocatorIcEEEEJEEEmRKT_DpRKT0_, symObjAddr: 0xD238, symBinAddr: 0x100017B84, symSize: 0x38 }
  - { offset: 0x32A4A, size: 0x8, addend: 0x0, symName: __ZN8nlohmann16json_abi_v3_11_36detail13concat_lengthEv, symObjAddr: 0xD270, symBinAddr: 0x100017BBC, symSize: 0x8 }
  - { offset: 0x32A67, size: 0x8, addend: 0x0, symName: __ZN8nlohmann16json_abi_v3_11_36detail11concat_intoINSt3__112basic_stringIcNS3_11char_traitsIcEENS3_9allocatorIcEEEES9_JRKS9_ELi0EEEvRT_OT0_DpOT1_, symObjAddr: 0xD278, symBinAddr: 0x100017BC4, symSize: 0x3C }
  - { offset: 0x32ACE, size: 0x8, addend: 0x0, symName: __ZN8nlohmann16json_abi_v3_11_36detail11concat_intoINSt3__112basic_stringIcNS3_11char_traitsIcEENS3_9allocatorIcEEEERKS9_JELi0EEEvRT_OT0_DpOT1_, symObjAddr: 0xD2B4, symBinAddr: 0x100017C00, symSize: 0x34 }
  - { offset: 0x32B22, size: 0x8, addend: 0x0, symName: __ZN8nlohmann16json_abi_v3_11_36detail11concat_intoINSt3__112basic_stringIcNS3_11char_traitsIcEENS3_9allocatorIcEEEEEEvRT_, symObjAddr: 0xD2E8, symBinAddr: 0x100017C34, symSize: 0x10 }
  - { offset: 0x32B50, size: 0x8, addend: 0x0, symName: __ZN8nlohmann16json_abi_v3_11_36detail6concatINSt3__112basic_stringIcNS3_11char_traitsIcEENS3_9allocatorIcEEEEJRA17_KcRKS9_cS9_RA3_SA_EEET_DpOT0_, symObjAddr: 0xD2F8, symBinAddr: 0x100017C44, symSize: 0xF0 }
  - { offset: 0x32BEC, size: 0x8, addend: 0x0, symName: __ZN8nlohmann16json_abi_v3_11_36detail13concat_lengthIJNSt3__112basic_stringIcNS3_11char_traitsIcEENS3_9allocatorIcEEEEcS9_A3_cEEEmPKcDpRKT_, symObjAddr: 0xD3E8, symBinAddr: 0x100017D34, symSize: 0x58 }
  - { offset: 0x32C6A, size: 0x8, addend: 0x0, symName: __ZN8nlohmann16json_abi_v3_11_36detail11concat_intoINSt3__112basic_stringIcNS3_11char_traitsIcEENS3_9allocatorIcEEEERA17_KcJRKS9_cS9_RA3_SA_ELi0EEEvRT_OT0_DpOT1_, symObjAddr: 0xD440, symBinAddr: 0x100017D8C, symSize: 0x54 }
  - { offset: 0x32D0A, size: 0x8, addend: 0x0, symName: __ZN8nlohmann16json_abi_v3_11_36detail13concat_lengthINSt3__112basic_stringIcNS3_11char_traitsIcEENS3_9allocatorIcEEEEJcS9_A3_cEEEmRKT_DpRKT0_, symObjAddr: 0xD494, symBinAddr: 0x100017DE0, symSize: 0x54 }
  - { offset: 0x32D7E, size: 0x8, addend: 0x0, symName: __ZN8nlohmann16json_abi_v3_11_36detail13concat_lengthIJNSt3__112basic_stringIcNS3_11char_traitsIcEENS3_9allocatorIcEEEEA3_cEEEmcDpRKT_, symObjAddr: 0xD4E8, symBinAddr: 0x100017E34, symSize: 0x34 }
  - { offset: 0x32DD3, size: 0x8, addend: 0x0, symName: __ZN8nlohmann16json_abi_v3_11_36detail13concat_lengthINSt3__112basic_stringIcNS3_11char_traitsIcEENS3_9allocatorIcEEEEJA3_cEEEmRKT_DpRKT0_, symObjAddr: 0xD51C, symBinAddr: 0x100017E68, symSize: 0x40 }
  - { offset: 0x32E21, size: 0x8, addend: 0x0, symName: __ZN8nlohmann16json_abi_v3_11_36detail13concat_lengthIJEEEmPKcDpRKT_, symObjAddr: 0xD55C, symBinAddr: 0x100017EA8, symSize: 0x38 }
  - { offset: 0x32E52, size: 0x8, addend: 0x0, symName: __ZN8nlohmann16json_abi_v3_11_36detail11concat_intoINSt3__112basic_stringIcNS3_11char_traitsIcEENS3_9allocatorIcEEEERKS9_JcS9_RA3_KcELi0EEEvRT_OT0_DpOT1_, symObjAddr: 0xD594, symBinAddr: 0x100017EE0, symSize: 0x4C }
  - { offset: 0x32EDF, size: 0x8, addend: 0x0, symName: __ZN8nlohmann16json_abi_v3_11_36detail11concat_intoINSt3__112basic_stringIcNS3_11char_traitsIcEENS3_9allocatorIcEEEEcJS9_RA3_KcELi0EEEvRT_OT0_DpOT1_, symObjAddr: 0xD5E0, symBinAddr: 0x100017F2C, symSize: 0x48 }
  - { offset: 0x32F59, size: 0x8, addend: 0x0, symName: __ZN8nlohmann16json_abi_v3_11_36detail11concat_intoINSt3__112basic_stringIcNS3_11char_traitsIcEENS3_9allocatorIcEEEES9_JRA3_KcELi0EEEvRT_OT0_DpOT1_, symObjAddr: 0xD65C, symBinAddr: 0x100017FA8, symSize: 0x3C }
  - { offset: 0x32FC0, size: 0x8, addend: 0x0, symName: __ZN8nlohmann16json_abi_v3_11_36detail11concat_intoINSt3__112basic_stringIcNS3_11char_traitsIcEENS3_9allocatorIcEEEERA3_KcJELi0EEEvRT_OT0_DpOT1_, symObjAddr: 0xD698, symBinAddr: 0x100017FE4, symSize: 0x34 }
  - { offset: 0x33166, size: 0x8, addend: 0x0, symName: __ZN8nlohmann16json_abi_v3_11_36detail13input_adapterINSt3__112basic_stringIcNS3_11char_traitsIcEENS3_9allocatorIcEEEEEENS1_36container_input_adapter_factory_impl31container_input_adapter_factoryIT_vE12adapter_typeERKSC_, symObjAddr: 0xD9CC, symBinAddr: 0x100018318, symSize: 0x34 }
  - { offset: 0x3321E, size: 0x8, addend: 0x0, symName: __ZN8nlohmann16json_abi_v3_11_36detail13input_adapterINSt3__111__wrap_iterIPKcEEEENS1_30iterator_input_adapter_factoryIT_vE12adapter_typeES9_S9_, symObjAddr: 0x127A4, symBinAddr: 0x10001D0F0, symSize: 0x4C }
  - { offset: 0x33BC0, size: 0x8, addend: 0x0, symName: __ZN8nlohmann16json_abi_v3_11_36detail6concatINSt3__112basic_stringIcNS3_11char_traitsIcEENS3_9allocatorIcEEEEJRA26_KcS9_cEEET_DpOT0_, symObjAddr: 0x18C8C, symBinAddr: 0x1000235D8, symSize: 0xD8 }
  - { offset: 0x33C36, size: 0x8, addend: 0x0, symName: __ZN8nlohmann16json_abi_v3_11_36detail6concatINSt3__112basic_stringIcNS3_11char_traitsIcEENS3_9allocatorIcEEEEJRA24_KcS9_EEET_DpOT0_, symObjAddr: 0x197D4, symBinAddr: 0x100024120, symSize: 0xCC }
  - { offset: 0x33C99, size: 0x8, addend: 0x0, symName: __ZN8nlohmann16json_abi_v3_11_36detail13concat_lengthIJNSt3__112basic_stringIcNS3_11char_traitsIcEENS3_9allocatorIcEEEEEEEmPKcDpRKT_, symObjAddr: 0x1B2A4, symBinAddr: 0x100025BF0, symSize: 0x40 }
  - { offset: 0x33CDE, size: 0x8, addend: 0x0, symName: __ZN8nlohmann16json_abi_v3_11_36detail11concat_intoINSt3__112basic_stringIcNS3_11char_traitsIcEENS3_9allocatorIcEEEERA24_KcJS9_ELi0EEEvRT_OT0_DpOT1_, symObjAddr: 0x1B2E4, symBinAddr: 0x100025C30, symSize: 0x3C }
  - { offset: 0x33D45, size: 0x8, addend: 0x0, symName: __ZN8nlohmann16json_abi_v3_11_36detail11concat_intoINSt3__112basic_stringIcNS3_11char_traitsIcEENS3_9allocatorIcEEEES9_JELi0EEEvRT_OT0_DpOT1_, symObjAddr: 0x1B320, symBinAddr: 0x100025C6C, symSize: 0x34 }
  - { offset: 0x33ED6, size: 0x8, addend: 0x0, symName: __ZN8nlohmann16json_abi_v3_11_36detail6concatINSt3__112basic_stringIcNS3_11char_traitsIcEENS3_9allocatorIcEEEEJRA25_KcPSA_EEET_DpOT0_, symObjAddr: 0x21380, symBinAddr: 0x10002BCCC, symSize: 0xCC }
  - { offset: 0x33F39, size: 0x8, addend: 0x0, symName: __ZN8nlohmann16json_abi_v3_11_36detail13concat_lengthIJPKcEEEmS4_DpRKT_, symObjAddr: 0x222B0, symBinAddr: 0x10002CBFC, symSize: 0x44 }
  - { offset: 0x33F7E, size: 0x8, addend: 0x0, symName: __ZN8nlohmann16json_abi_v3_11_36detail11concat_intoINSt3__112basic_stringIcNS3_11char_traitsIcEENS3_9allocatorIcEEEERA25_KcJPSA_ELi0EEEvRT_OT0_DpOT1_, symObjAddr: 0x222F4, symBinAddr: 0x10002CC40, symSize: 0x3C }
  - { offset: 0x33FE5, size: 0x8, addend: 0x0, symName: __ZN8nlohmann16json_abi_v3_11_36detail11concat_intoINSt3__112basic_stringIcNS3_11char_traitsIcEENS3_9allocatorIcEEEEPKcJELi0EEEvRT_OT0_DpOT1_, symObjAddr: 0x22330, symBinAddr: 0x10002CC7C, symSize: 0x38 }
  - { offset: 0x34038, size: 0x8, addend: 0x0, symName: __ZN8nlohmann16json_abi_v3_11_36detail7to_jsonINS0_10basic_jsonINSt3__13mapENS4_6vectorENS4_12basic_stringIcNS4_11char_traitsIcEENS4_9allocatorIcEEEEbxydSA_NS0_14adl_serializerENS6_IhNSA_IhEEEEvEESC_Li0EEEvRT_RKT0_, symObjAddr: 0x22568, symBinAddr: 0x10002CEB4, symSize: 0x2C }
  - { offset: 0x340B9, size: 0x8, addend: 0x0, symName: __ZN8nlohmann16json_abi_v3_11_36detail6concatINSt3__112basic_stringIcNS3_11char_traitsIcEENS3_9allocatorIcEEEEJRA23_KcS9_EEET_DpOT0_, symObjAddr: 0x22AC4, symBinAddr: 0x10002D410, symSize: 0xCC }
  - { offset: 0x3411C, size: 0x8, addend: 0x0, symName: __ZN8nlohmann16json_abi_v3_11_36detail11concat_intoINSt3__112basic_stringIcNS3_11char_traitsIcEENS3_9allocatorIcEEEERA23_KcJS9_ELi0EEEvRT_OT0_DpOT1_, symObjAddr: 0x22B90, symBinAddr: 0x10002D4DC, symSize: 0x3C }
  - { offset: 0x34183, size: 0x8, addend: 0x0, symName: __ZN8nlohmann16json_abi_v3_11_36detail13concat_lengthIJNSt3__112basic_stringIcNS3_11char_traitsIcEENS3_9allocatorIcEEEEcEEEmPKcDpRKT_, symObjAddr: 0x22CD0, symBinAddr: 0x10002D61C, symSize: 0x48 }
  - { offset: 0x341DB, size: 0x8, addend: 0x0, symName: __ZN8nlohmann16json_abi_v3_11_36detail11concat_intoINSt3__112basic_stringIcNS3_11char_traitsIcEENS3_9allocatorIcEEEERA26_KcJS9_cELi0EEEvRT_OT0_DpOT1_, symObjAddr: 0x22D18, symBinAddr: 0x10002D664, symSize: 0x44 }
  - { offset: 0x34255, size: 0x8, addend: 0x0, symName: __ZN8nlohmann16json_abi_v3_11_36detail13concat_lengthINSt3__112basic_stringIcNS3_11char_traitsIcEENS3_9allocatorIcEEEEJcEEEmRKT_DpRKT0_, symObjAddr: 0x22D5C, symBinAddr: 0x10002D6A8, symSize: 0x44 }
  - { offset: 0x342A3, size: 0x8, addend: 0x0, symName: __ZN8nlohmann16json_abi_v3_11_36detail13concat_lengthIJEEEmcDpRKT_, symObjAddr: 0x22DA0, symBinAddr: 0x10002D6EC, symSize: 0x24 }
  - { offset: 0x342D1, size: 0x8, addend: 0x0, symName: __ZN8nlohmann16json_abi_v3_11_36detail11concat_intoINSt3__112basic_stringIcNS3_11char_traitsIcEENS3_9allocatorIcEEEES9_JcELi0EEEvRT_OT0_DpOT1_, symObjAddr: 0x22DC4, symBinAddr: 0x10002D710, symSize: 0x3C }
  - { offset: 0x34338, size: 0x8, addend: 0x0, symName: __ZN8nlohmann16json_abi_v3_11_36detail11concat_intoINSt3__112basic_stringIcNS3_11char_traitsIcEENS3_9allocatorIcEEEEcJELi0EEEvRT_OT0_DpOT1_, symObjAddr: 0x22E00, symBinAddr: 0x10002D74C, symSize: 0x38 }
  - { offset: 0x3438B, size: 0x8, addend: 0x0, symName: __ZN8nlohmann16json_abi_v3_11_36detail7to_jsonINS0_10basic_jsonINSt3__13mapENS4_6vectorENS4_12basic_stringIcNS4_11char_traitsIcEENS4_9allocatorIcEEEEbxydSA_NS0_14adl_serializerENS6_IhNSA_IhEEEEvEEdLi0EEEvRT_T0_, symObjAddr: 0x23438, symBinAddr: 0x10002DD84, symSize: 0x2C }
  - { offset: 0x3440C, size: 0x8, addend: 0x0, symName: __ZN8nlohmann16json_abi_v3_11_36detail7to_jsonINS0_10basic_jsonINSt3__13mapENS4_6vectorENS4_12basic_stringIcNS4_11char_traitsIcEENS4_9allocatorIcEEEEbxydSA_NS0_14adl_serializerENS6_IhNSA_IhEEEEvEEbLi0EEEvRT_T0_, symObjAddr: 0x23AAC, symBinAddr: 0x10002E3F8, symSize: 0x38 }
  - { offset: 0x3448D, size: 0x8, addend: 0x0, symName: __ZN8nlohmann16json_abi_v3_11_36detail7to_jsonINS0_10basic_jsonINSt3__13mapENS4_6vectorENS4_12basic_stringIcNS4_11char_traitsIcEENS4_9allocatorIcEEEEbxydSA_NS0_14adl_serializerENS6_IhNSA_IhEEEEvEExLi0EEEvRT_T0_, symObjAddr: 0x24610, symBinAddr: 0x10002EF5C, symSize: 0x2C }
  - { offset: 0x3450E, size: 0x8, addend: 0x0, symName: __ZN8nlohmann16json_abi_v3_11_36detail7to_jsonINS0_10basic_jsonINSt3__13mapENS4_6vectorENS4_12basic_stringIcNS4_11char_traitsIcEENS4_9allocatorIcEEEEbxydSA_NS0_14adl_serializerENS6_IhNSA_IhEEEEvEEyLi0EEEvRT_T0_, symObjAddr: 0x2515C, symBinAddr: 0x10002FAA8, symSize: 0x2C }
  - { offset: 0x3458F, size: 0x8, addend: 0x0, symName: __ZN8nlohmann16json_abi_v3_11_36detail6concatINSt3__112basic_stringIcNS3_11char_traitsIcEENS3_9allocatorIcEEEEJS9_RA12_KcS9_RA3_SA_S9_RKS9_EEET_DpOT0_, symObjAddr: 0x253B8, symBinAddr: 0x10002FD04, symSize: 0xFC }
  - { offset: 0x3463E, size: 0x8, addend: 0x0, symName: __ZN8nlohmann16json_abi_v3_11_36detail13concat_lengthINSt3__112basic_stringIcNS3_11char_traitsIcEENS3_9allocatorIcEEEEJA12_cS9_A3_cS9_S9_EEEmRKT_DpRKT0_, symObjAddr: 0x255B4, symBinAddr: 0x10002FF00, symSize: 0x60 }
  - { offset: 0x346D8, size: 0x8, addend: 0x0, symName: __ZN8nlohmann16json_abi_v3_11_36detail11concat_intoINSt3__112basic_stringIcNS3_11char_traitsIcEENS3_9allocatorIcEEEES9_JRA12_KcS9_RA3_SA_S9_RKS9_ELi0EEEvRT_OT0_DpOT1_, symObjAddr: 0x25614, symBinAddr: 0x10002FF60, symSize: 0x5C }
  - { offset: 0x3478B, size: 0x8, addend: 0x0, symName: __ZN8nlohmann16json_abi_v3_11_36detail13concat_lengthIJNSt3__112basic_stringIcNS3_11char_traitsIcEENS3_9allocatorIcEEEEA3_cS9_S9_EEEmPKcDpRKT_, symObjAddr: 0x25670, symBinAddr: 0x10002FFBC, symSize: 0x58 }
  - { offset: 0x34809, size: 0x8, addend: 0x0, symName: __ZN8nlohmann16json_abi_v3_11_36detail13concat_lengthINSt3__112basic_stringIcNS3_11char_traitsIcEENS3_9allocatorIcEEEEJA3_cS9_S9_EEEmRKT_DpRKT0_, symObjAddr: 0x256C8, symBinAddr: 0x100030014, symSize: 0x50 }
  - { offset: 0x3487D, size: 0x8, addend: 0x0, symName: __ZN8nlohmann16json_abi_v3_11_36detail13concat_lengthIJNSt3__112basic_stringIcNS3_11char_traitsIcEENS3_9allocatorIcEEEES9_EEEmPKcDpRKT_, symObjAddr: 0x25718, symBinAddr: 0x100030064, symSize: 0x48 }
  - { offset: 0x348D5, size: 0x8, addend: 0x0, symName: __ZN8nlohmann16json_abi_v3_11_36detail11concat_intoINSt3__112basic_stringIcNS3_11char_traitsIcEENS3_9allocatorIcEEEERA12_KcJS9_RA3_SA_S9_RKS9_ELi0EEEvRT_OT0_DpOT1_, symObjAddr: 0x25760, symBinAddr: 0x1000300AC, symSize: 0x54 }
  - { offset: 0x34975, size: 0x8, addend: 0x0, symName: __ZN8nlohmann16json_abi_v3_11_36detail11concat_intoINSt3__112basic_stringIcNS3_11char_traitsIcEENS3_9allocatorIcEEEES9_JRA3_KcS9_RKS9_ELi0EEEvRT_OT0_DpOT1_, symObjAddr: 0x257B4, symBinAddr: 0x100030100, symSize: 0x4C }
  - { offset: 0x34A02, size: 0x8, addend: 0x0, symName: __ZN8nlohmann16json_abi_v3_11_36detail11concat_intoINSt3__112basic_stringIcNS3_11char_traitsIcEENS3_9allocatorIcEEEERA3_KcJS9_RKS9_ELi0EEEvRT_OT0_DpOT1_, symObjAddr: 0x25800, symBinAddr: 0x10003014C, symSize: 0x44 }
  - { offset: 0x34A7C, size: 0x8, addend: 0x0, symName: __ZN8nlohmann16json_abi_v3_11_36detail6concatINSt3__112basic_stringIcNS3_11char_traitsIcEENS3_9allocatorIcEEEEJRA10_KcS9_SC_S9_EEET_DpOT0_, symObjAddr: 0x25844, symBinAddr: 0x100030190, symSize: 0xE4 }
  - { offset: 0x34B05, size: 0x8, addend: 0x0, symName: __ZN8nlohmann16json_abi_v3_11_36detail13concat_lengthIJNSt3__112basic_stringIcNS3_11char_traitsIcEENS3_9allocatorIcEEEEA10_cS9_EEEmPKcDpRKT_, symObjAddr: 0x25928, symBinAddr: 0x100030274, symSize: 0x50 }
  - { offset: 0x34B70, size: 0x8, addend: 0x0, symName: __ZN8nlohmann16json_abi_v3_11_36detail11concat_intoINSt3__112basic_stringIcNS3_11char_traitsIcEENS3_9allocatorIcEEEERA10_KcJS9_SC_S9_ELi0EEEvRT_OT0_DpOT1_, symObjAddr: 0x25978, symBinAddr: 0x1000302C4, symSize: 0x4C }
  - { offset: 0x34BFD, size: 0x8, addend: 0x0, symName: __ZN8nlohmann16json_abi_v3_11_36detail13concat_lengthINSt3__112basic_stringIcNS3_11char_traitsIcEENS3_9allocatorIcEEEEJA10_cS9_EEEmRKT_DpRKT0_, symObjAddr: 0x259C4, symBinAddr: 0x100030310, symSize: 0x48 }
  - { offset: 0x34C5E, size: 0x8, addend: 0x0, symName: __ZN8nlohmann16json_abi_v3_11_36detail11concat_intoINSt3__112basic_stringIcNS3_11char_traitsIcEENS3_9allocatorIcEEEES9_JRA10_KcS9_ELi0EEEvRT_OT0_DpOT1_, symObjAddr: 0x25A0C, symBinAddr: 0x100030358, symSize: 0x44 }
  - { offset: 0x34CD8, size: 0x8, addend: 0x0, symName: __ZN8nlohmann16json_abi_v3_11_36detail11concat_intoINSt3__112basic_stringIcNS3_11char_traitsIcEENS3_9allocatorIcEEEERA10_KcJS9_ELi0EEEvRT_OT0_DpOT1_, symObjAddr: 0x25A50, symBinAddr: 0x10003039C, symSize: 0x3C }
  - { offset: 0x34D3F, size: 0x8, addend: 0x0, symName: __ZN8nlohmann16json_abi_v3_11_36detail6concatINSt3__112basic_stringIcNS3_11char_traitsIcEENS3_9allocatorIcEEEEJRA15_KcRKS9_cEEET_DpOT0_, symObjAddr: 0x25B14, symBinAddr: 0x100030460, symSize: 0xD8 }
  - { offset: 0x34DB5, size: 0x8, addend: 0x0, symName: __ZN8nlohmann16json_abi_v3_11_36detail6concatINSt3__112basic_stringIcNS3_11char_traitsIcEENS3_9allocatorIcEEEEJPKcRA15_SA_S9_cEEET_DpOT0_, symObjAddr: 0x25C18, symBinAddr: 0x100030564, symSize: 0xE8 }
  - { offset: 0x34E3E, size: 0x8, addend: 0x0, symName: __ZN8nlohmann16json_abi_v3_11_36detail6concatINSt3__112basic_stringIcNS3_11char_traitsIcEENS3_9allocatorIcEEEEJRA12_KcPSA_EEET_DpOT0_, symObjAddr: 0x25D18, symBinAddr: 0x100030664, symSize: 0xC4 }
  - { offset: 0x34EA1, size: 0x8, addend: 0x0, symName: __ZN8nlohmann16json_abi_v3_11_36detail11concat_intoINSt3__112basic_stringIcNS3_11char_traitsIcEENS3_9allocatorIcEEEERA15_KcJRKS9_cELi0EEEvRT_OT0_DpOT1_, symObjAddr: 0x25F6C, symBinAddr: 0x1000308B8, symSize: 0x44 }
  - { offset: 0x34F1B, size: 0x8, addend: 0x0, symName: __ZN8nlohmann16json_abi_v3_11_36detail11concat_intoINSt3__112basic_stringIcNS3_11char_traitsIcEENS3_9allocatorIcEEEERKS9_JcELi0EEEvRT_OT0_DpOT1_, symObjAddr: 0x25FB0, symBinAddr: 0x1000308FC, symSize: 0x3C }
  - { offset: 0x34F82, size: 0x8, addend: 0x0, symName: __ZN8nlohmann16json_abi_v3_11_36detail13concat_lengthIJA15_cNSt3__112basic_stringIcNS4_11char_traitsIcEENS4_9allocatorIcEEEEcEEEmPKcDpRKT_, symObjAddr: 0x25FEC, symBinAddr: 0x100030938, symSize: 0x50 }
  - { offset: 0x34FED, size: 0x8, addend: 0x0, symName: __ZN8nlohmann16json_abi_v3_11_36detail11concat_intoINSt3__112basic_stringIcNS3_11char_traitsIcEENS3_9allocatorIcEEEEPKcJRA15_SA_S9_cELi0EEEvRT_OT0_DpOT1_, symObjAddr: 0x2603C, symBinAddr: 0x100030988, symSize: 0x50 }
  - { offset: 0x3507A, size: 0x8, addend: 0x0, symName: __ZN8nlohmann16json_abi_v3_11_36detail11concat_intoINSt3__112basic_stringIcNS3_11char_traitsIcEENS3_9allocatorIcEEEERA15_KcJS9_cELi0EEEvRT_OT0_DpOT1_, symObjAddr: 0x2608C, symBinAddr: 0x1000309D8, symSize: 0x44 }
  - { offset: 0x350F4, size: 0x8, addend: 0x0, symName: __ZN8nlohmann16json_abi_v3_11_36detail11concat_intoINSt3__112basic_stringIcNS3_11char_traitsIcEENS3_9allocatorIcEEEERA12_KcJPSA_ELi0EEEvRT_OT0_DpOT1_, symObjAddr: 0x260D0, symBinAddr: 0x100030A1C, symSize: 0x3C }
  - { offset: 0x3515B, size: 0x8, addend: 0x0, symName: __ZN8nlohmann16json_abi_v3_11_36detail6concatINSt3__112basic_stringIcNS3_11char_traitsIcEENS3_9allocatorIcEEEEJRA52_KcPSA_EEET_DpOT0_, symObjAddr: 0x28CF0, symBinAddr: 0x10003363C, symSize: 0xC4 }
  - { offset: 0x351BE, size: 0x8, addend: 0x0, symName: __ZN8nlohmann16json_abi_v3_11_36detail11concat_intoINSt3__112basic_stringIcNS3_11char_traitsIcEENS3_9allocatorIcEEEERA52_KcJPSA_ELi0EEEvRT_OT0_DpOT1_, symObjAddr: 0x28DB4, symBinAddr: 0x100033700, symSize: 0x3C }
  - { offset: 0x35239, size: 0x8, addend: 0x0, symName: __ZN8nlohmann16json_abi_v3_11_36detail9from_jsonINS0_10basic_jsonINSt3__13mapENS4_6vectorENS4_12basic_stringIcNS4_11char_traitsIcEENS4_9allocatorIcEEEEbxydSA_NS0_14adl_serializerENS6_IhNSA_IhEEEEvEEEEvRKT_RNSH_8string_tE, symObjAddr: 0x29B50, symBinAddr: 0x10003449C, symSize: 0x118 }
  - { offset: 0x35278, size: 0x8, addend: 0x0, symName: __ZN8nlohmann16json_abi_v3_11_36detail6concatINSt3__112basic_stringIcNS3_11char_traitsIcEENS3_9allocatorIcEEEEJRA29_KcPSA_EEET_DpOT0_, symObjAddr: 0x29C68, symBinAddr: 0x1000345B4, symSize: 0xC4 }
  - { offset: 0x352DB, size: 0x8, addend: 0x0, symName: __ZN8nlohmann16json_abi_v3_11_36detail11concat_intoINSt3__112basic_stringIcNS3_11char_traitsIcEENS3_9allocatorIcEEEERA29_KcJPSA_ELi0EEEvRT_OT0_DpOT1_, symObjAddr: 0x29D54, symBinAddr: 0x1000346A0, symSize: 0x3C }
  - { offset: 0x35342, size: 0x8, addend: 0x0, symName: __ZN8nlohmann16json_abi_v3_11_36detaileqENS1_20primitive_iterator_tES2_, symObjAddr: 0x2D600, symBinAddr: 0x100037980, symSize: 0x28 }
  - { offset: 0x354C4, size: 0x8, addend: 0x0, symName: __ZN8nlohmann16json_abi_v3_11_36detail13input_adapterERNSt3__113basic_istreamIcNS2_11char_traitsIcEEEE, symObjAddr: 0x2DA3C, symBinAddr: 0x100037DBC, symSize: 0x38 }
  - { offset: 0x37089, size: 0x8, addend: 0x0, symName: __ZN8nlohmann16json_abi_v3_11_3rsERNSt3__113basic_istreamIcNS1_11char_traitsIcEEEERNS0_10basic_jsonINS1_3mapENS1_6vectorENS1_12basic_stringIcS4_NS1_9allocatorIcEEEEbxydSB_NS0_14adl_serializerENS9_IhNSB_IhEEEEvEE, symObjAddr: 0x27C0, symBinAddr: 0x10000E3B0, symSize: 0x134 }
  - { offset: 0x3728B, size: 0x8, addend: 0x0, symName: __ZNSt3__119piecewise_constructE, symObjAddr: 0x39E38, symBinAddr: 0x100046030, symSize: 0x0 }
  - { offset: 0x49559, size: 0x8, addend: 0x0, symName: __ZNSt3__16copy_nB8ne180100IPKcmPcLi0EEET1_T_T0_S4_, symObjAddr: 0x996C, symBinAddr: 0x100014C3C, symSize: 0x44 }
  - { offset: 0x4A91C, size: 0x8, addend: 0x0, symName: __ZNSt3__17advanceB8ne180100INS_11__wrap_iterIPKcEEiivEEvRT_T0_, symObjAddr: 0x10928, symBinAddr: 0x10001B274, symSize: 0x40 }
  - { offset: 0x4D950, size: 0x8, addend: 0x0, symName: __ZNSt3__17advanceB8ne180100INS_21__tree_const_iteratorINS_12__value_typeINS_12basic_stringIcNS_11char_traitsIcEENS_9allocatorIcEEEEN8nlohmann16json_abi_v3_11_310basic_jsonINS_3mapENS_6vectorES8_bxydS6_NSA_14adl_serializerENSD_IhNS6_IhEEEEvEEEEPNS_11__tree_nodeISI_PvEElEEllvEEvRT_T0_, symObjAddr: 0x1D738, symBinAddr: 0x100028084, symSize: 0x38 }
  - { offset: 0x50F6E, size: 0x8, addend: 0x0, symName: __ZNSt3__17advanceB8ne180100INS_14__map_iteratorINS_15__tree_iteratorINS_12__value_typeINS_12basic_stringIcNS_11char_traitsIcEENS_9allocatorIcEEEEN8nlohmann16json_abi_v3_11_310basic_jsonINS_3mapENS_6vectorES9_bxydS7_NSB_14adl_serializerENSE_IhNS7_IhEEEEvEEEEPNS_11__tree_nodeISJ_PvEElEEEEiivEEvRT_T0_, symObjAddr: 0x2D628, symBinAddr: 0x1000379A8, symSize: 0x40 }
  - { offset: 0x51001, size: 0x8, addend: 0x0, symName: __ZNSt3__17advanceB8ne180100INS_11__wrap_iterIPN8nlohmann16json_abi_v3_11_310basic_jsonINS_3mapENS_6vectorENS_12basic_stringIcNS_11char_traitsIcEENS_9allocatorIcEEEEbxydSA_NS3_14adl_serializerENS6_IhNSA_IhEEEEvEEEEiivEEvRT_T0_, symObjAddr: 0x2D668, symBinAddr: 0x1000379E8, symSize: 0x40 }
  - { offset: 0x52193, size: 0x8, addend: 0x0, symName: __ZNSt3__1plB8ne180100IcNS_11char_traitsIcEENS_9allocatorIcEEEENS_12basic_stringIT_T0_T1_EEOS9_RKS9_, symObjAddr: 0x800, symBinAddr: 0x10000C4FC, symSize: 0x40 }
  - { offset: 0x521EB, size: 0x8, addend: 0x0, symName: __ZNSt3__1plB8ne180100IcNS_11char_traitsIcEENS_9allocatorIcEEEENS_12basic_stringIT_T0_T1_EERKS9_PKS6_, symObjAddr: 0x840, symBinAddr: 0x10000C53C, symSize: 0x11C }
  - { offset: 0x52683, size: 0x8, addend: 0x0, symName: __ZNSt3__1lsB8ne180100INS_11char_traitsIcEEEERNS_13basic_ostreamIcT_EES6_PKc, symObjAddr: 0x9F0, symBinAddr: 0x10000C6EC, symSize: 0x48 }
  - { offset: 0x5312F, size: 0x8, addend: 0x0, symName: __ZNSt3__1neB8ne180100ERKNS_19__hash_map_iteratorINS_15__hash_iteratorIPNS_11__hash_nodeINS_17__hash_value_typeINS_12basic_stringIcNS_11char_traitsIcEENS_9allocatorIcEEEEP8BuildingEEPvEEEEEESJ_, symObjAddr: 0x1650, symBinAddr: 0x10000D26C, symSize: 0x30 }
  - { offset: 0x539EB, size: 0x8, addend: 0x0, symName: __ZNSt3__1plB8ne180100IcNS_11char_traitsIcEENS_9allocatorIcEEEENS_12basic_stringIT_T0_T1_EEOS9_PKS6_, symObjAddr: 0x32C0, symBinAddr: 0x10000EEB0, symSize: 0x40 }
  - { offset: 0x53A43, size: 0x8, addend: 0x0, symName: __ZNSt3__1neB8ne180100IPNS_12basic_stringIcNS_11char_traitsIcEENS_9allocatorIcEEEEEEbRKNS_11__wrap_iterIT_EESC_, symObjAddr: 0x3C9C, symBinAddr: 0x10000F88C, symSize: 0x34 }
  - { offset: 0x53EB2, size: 0x8, addend: 0x0, symName: __ZNSt3__1rsB8ne180100IcNS_11char_traitsIcEEEERNS_13basic_istreamIT_T0_EES7_RS4_, symObjAddr: 0x3E34, symBinAddr: 0x10000FA24, symSize: 0x190 }
  - { offset: 0x53F40, size: 0x8, addend: 0x0, symName: __ZNSt3__1neB8ne180100IPKcEEbRKNS_11__wrap_iterIT_EES7_, symObjAddr: 0x40FC, symBinAddr: 0x10000FCEC, symSize: 0x34 }
  - { offset: 0x53F83, size: 0x8, addend: 0x0, symName: __ZNSt3__1eqB8ne180100IPNS_12basic_stringIcNS_11char_traitsIcEENS_9allocatorIcEEEEEEbRKNS_11__wrap_iterIT_EESC_, symObjAddr: 0x4284, symBinAddr: 0x10000FE74, symSize: 0x48 }
  - { offset: 0x53FC6, size: 0x8, addend: 0x0, symName: __ZNSt3__1eqB8ne180100IPKcEEbRKNS_11__wrap_iterIT_EES7_, symObjAddr: 0x4408, symBinAddr: 0x10000FFF8, symSize: 0x48 }
  - { offset: 0x54009, size: 0x8, addend: 0x0, symName: __ZNSt3__14moveB8ne180100INS_11__wrap_iterIPN8nlohmann16json_abi_v3_11_310basic_jsonINS_3mapENS_6vectorENS_12basic_stringIcNS_11char_traitsIcEENS_9allocatorIcEEEEbxydSA_NS3_14adl_serializerENS6_IhNSA_IhEEEEvEEEENS_20back_insert_iteratorINS6_ISG_NSA_ISG_EEEEEEEET0_T_SO_SN_, symObjAddr: 0x51E0, symBinAddr: 0x100010AC4, symSize: 0x60 }
  - { offset: 0x54063, size: 0x8, addend: 0x0, symName: __ZNSt3__113back_inserterB8ne180100INS_6vectorIN8nlohmann16json_abi_v3_11_310basic_jsonINS_3mapES1_NS_12basic_stringIcNS_11char_traitsIcEENS_9allocatorIcEEEEbxydS9_NS3_14adl_serializerENS1_IhNS9_IhEEEEvEENS9_ISF_EEEEEENS_20back_insert_iteratorIT_EERSJ_, symObjAddr: 0x52A0, symBinAddr: 0x100010B84, symSize: 0x2C }
  - { offset: 0x54098, size: 0x8, addend: 0x0, symName: __ZNSt3__1neB8ne180100ERKNS_14__map_iteratorINS_15__tree_iteratorINS_12__value_typeINS_12basic_stringIcNS_11char_traitsIcEENS_9allocatorIcEEEEN8nlohmann16json_abi_v3_11_310basic_jsonINS_3mapENS_6vectorES8_bxydS6_NSA_14adl_serializerENSD_IhNS6_IhEEEEvEEEEPNS_11__tree_nodeISI_PvEElEEEESQ_, symObjAddr: 0x5364, symBinAddr: 0x100010C48, symSize: 0x30 }
  - { offset: 0x548B2, size: 0x8, addend: 0x0, symName: __ZNSt3__119__allocate_at_leastB8ne180100INS_9allocatorIN8nlohmann16json_abi_v3_11_310basic_jsonINS_3mapENS_6vectorENS_12basic_stringIcNS_11char_traitsIcEENS1_IcEEEEbxydS1_NS3_14adl_serializerENS6_IhNS1_IhEEEEvEEEEEENS_19__allocation_resultINS_16allocator_traitsIT_E7pointerEEERSJ_m, symObjAddr: 0x5F80, symBinAddr: 0x1000116B8, symSize: 0x40 }
  - { offset: 0x548F5, size: 0x8, addend: 0x0, symName: __ZNSt3__142__uninitialized_allocator_move_if_noexceptB8ne180100INS_9allocatorIN8nlohmann16json_abi_v3_11_310basic_jsonINS_3mapENS_6vectorENS_12basic_stringIcNS_11char_traitsIcEENS1_IcEEEEbxydS1_NS3_14adl_serializerENS6_IhNS1_IhEEEEvEEEENS_16reverse_iteratorIPSF_EESJ_SJ_EET2_RT_T0_T1_SK_, symObjAddr: 0x625C, symBinAddr: 0x100011890, symSize: 0x12C }
  - { offset: 0x54995, size: 0x8, addend: 0x0, symName: __ZNSt3__14swapB8ne180100IPN8nlohmann16json_abi_v3_11_310basic_jsonINS_3mapENS_6vectorENS_12basic_stringIcNS_11char_traitsIcEENS_9allocatorIcEEEEbxydS9_NS2_14adl_serializerENS5_IhNS9_IhEEEEvEEEENS_9enable_ifIXaasr21is_move_constructibleIT_EE5valuesr18is_move_assignableISI_EE5valueEvE4typeERSI_SL_, symObjAddr: 0x63D4, symBinAddr: 0x100011A08, symSize: 0x3C }
  - { offset: 0x549E7, size: 0x8, addend: 0x0, symName: __ZNSt3__122__make_exception_guardB8ne180100INS_29_AllocatorDestroyRangeReverseINS_9allocatorIN8nlohmann16json_abi_v3_11_310basic_jsonINS_3mapENS_6vectorENS_12basic_stringIcNS_11char_traitsIcEENS2_IcEEEEbxydS2_NS4_14adl_serializerENS7_IhNS2_IhEEEEvEEEENS_16reverse_iteratorIPSG_EEEEEENS_28__exception_guard_exceptionsIT_EESN_, symObjAddr: 0x644C, symBinAddr: 0x100011A80, symSize: 0x4C }
  - { offset: 0x54A1D, size: 0x8, addend: 0x0, symName: __ZNSt3__1neB8ne180100IPN8nlohmann16json_abi_v3_11_310basic_jsonINS_3mapENS_6vectorENS_12basic_stringIcNS_11char_traitsIcEENS_9allocatorIcEEEEbxydS9_NS2_14adl_serializerENS5_IhNS9_IhEEEEvEESG_EEbRKNS_16reverse_iteratorIT_EERKNSH_IT0_EE, symObjAddr: 0x64DC, symBinAddr: 0x100011B10, symSize: 0x48 }
  - { offset: 0x54A69, size: 0x8, addend: 0x0, symName: __ZNSt3__112__to_addressB8ne180100INS_16reverse_iteratorIPN8nlohmann16json_abi_v3_11_310basic_jsonINS_3mapENS_6vectorENS_12basic_stringIcNS_11char_traitsIcEENS_9allocatorIcEEEEbxydSA_NS3_14adl_serializerENS6_IhNSA_IhEEEEvEEEEvEEu7__decayIDTclsr19__to_address_helperIT_EE6__callclsr3stdE7declvalIRKSJ_EEEEESL_, symObjAddr: 0x6558, symBinAddr: 0x100011B8C, symSize: 0x24 }
  - { offset: 0x54AC9, size: 0x8, addend: 0x0, symName: __ZNSt3__112__to_addressB8ne180100IN8nlohmann16json_abi_v3_11_310basic_jsonINS_3mapENS_6vectorENS_12basic_stringIcNS_11char_traitsIcEENS_9allocatorIcEEEEbxydS9_NS2_14adl_serializerENS5_IhNS9_IhEEEEvEEEEPT_SH_, symObjAddr: 0x6710, symBinAddr: 0x100011D44, symSize: 0x14 }
  - { offset: 0x54AFE, size: 0x8, addend: 0x0, symName: __ZNSt3__119__allocator_destroyB8ne180100INS_9allocatorIN8nlohmann16json_abi_v3_11_310basic_jsonINS_3mapENS_6vectorENS_12basic_stringIcNS_11char_traitsIcEENS1_IcEEEEbxydS1_NS3_14adl_serializerENS6_IhNS1_IhEEEEvEEEENS_16reverse_iteratorINSH_IPSF_EEEESK_EEvRT_T0_T1_, symObjAddr: 0x684C, symBinAddr: 0x100011E80, symSize: 0x70 }
  - { offset: 0x54B63, size: 0x8, addend: 0x0, symName: __ZNSt3__1neB8ne180100INS_16reverse_iteratorIPN8nlohmann16json_abi_v3_11_310basic_jsonINS_3mapENS_6vectorENS_12basic_stringIcNS_11char_traitsIcEENS_9allocatorIcEEEEbxydSA_NS3_14adl_serializerENS6_IhNSA_IhEEEEvEEEESI_EEbRKNS1_IT_EERKNS1_IT0_EE, symObjAddr: 0x68F8, symBinAddr: 0x100011F2C, symSize: 0x60 }
  - { offset: 0x54BAF, size: 0x8, addend: 0x0, symName: __ZNSt3__112__to_addressB8ne180100INS_16reverse_iteratorINS1_IPN8nlohmann16json_abi_v3_11_310basic_jsonINS_3mapENS_6vectorENS_12basic_stringIcNS_11char_traitsIcEENS_9allocatorIcEEEEbxydSA_NS3_14adl_serializerENS6_IhNSA_IhEEEEvEEEEEEvEEu7__decayIDTclsr19__to_address_helperIT_EE6__callclsr3stdE7declvalIRKSK_EEEEESM_, symObjAddr: 0x6984, symBinAddr: 0x100011FB8, symSize: 0x24 }
  - { offset: 0x54C0F, size: 0x8, addend: 0x0, symName: __ZNSt3__16__moveB8ne180100INS_17_ClassicAlgPolicyENS_11__wrap_iterIPN8nlohmann16json_abi_v3_11_310basic_jsonINS_3mapENS_6vectorENS_12basic_stringIcNS_11char_traitsIcEENS_9allocatorIcEEEEbxydSB_NS4_14adl_serializerENS7_IhNSB_IhEEEEvEEEESJ_NS_20back_insert_iteratorINS7_ISH_NSB_ISH_EEEEEEEENS_4pairIT0_T2_EESP_T1_SQ_, symObjAddr: 0x6EB4, symBinAddr: 0x1000123E0, symSize: 0x5C }
  - { offset: 0x54C7B, size: 0x8, addend: 0x0, symName: __ZNSt3__123__dispatch_copy_or_moveB8ne180100INS_17_ClassicAlgPolicyENS_11__move_loopIS1_EENS_14__move_trivialENS_11__wrap_iterIPN8nlohmann16json_abi_v3_11_310basic_jsonINS_3mapENS_6vectorENS_12basic_stringIcNS_11char_traitsIcEENS_9allocatorIcEEEEbxydSE_NS7_14adl_serializerENSA_IhNSE_IhEEEEvEEEESM_NS_20back_insert_iteratorINSA_ISK_NSE_ISK_EEEEEEEENS_4pairIT2_T4_EESS_T3_ST_, symObjAddr: 0x6F10, symBinAddr: 0x10001243C, symSize: 0x5C }
  - { offset: 0x54CF9, size: 0x8, addend: 0x0, symName: __ZNSt3__121__unwrap_and_dispatchB8ne180100INS_10__overloadINS_11__move_loopINS_17_ClassicAlgPolicyEEENS_14__move_trivialEEENS_11__wrap_iterIPN8nlohmann16json_abi_v3_11_310basic_jsonINS_3mapENS_6vectorENS_12basic_stringIcNS_11char_traitsIcEENS_9allocatorIcEEEEbxydSG_NS9_14adl_serializerENSC_IhNSG_IhEEEEvEEEESO_NS_20back_insert_iteratorINSC_ISM_NSG_ISM_EEEEEELi0EEENS_4pairIT0_T2_EESU_T1_SV_, symObjAddr: 0x6F6C, symBinAddr: 0x100012498, symSize: 0xE8 }
  - { offset: 0x54D8A, size: 0x8, addend: 0x0, symName: __ZNSt3__114__unwrap_rangeB8ne180100INS_11__wrap_iterIPN8nlohmann16json_abi_v3_11_310basic_jsonINS_3mapENS_6vectorENS_12basic_stringIcNS_11char_traitsIcEENS_9allocatorIcEEEEbxydSA_NS3_14adl_serializerENS6_IhNSA_IhEEEEvEEEESH_EENS_4pairIT0_SK_EET_SM_, symObjAddr: 0x7054, symBinAddr: 0x100012580, symSize: 0x70 }
  - { offset: 0x54FB9, size: 0x8, addend: 0x0, symName: __ZNSt3__113__unwrap_iterB8ne180100INS_20back_insert_iteratorINS_6vectorIN8nlohmann16json_abi_v3_11_310basic_jsonINS_3mapES2_NS_12basic_stringIcNS_11char_traitsIcEENS_9allocatorIcEEEEbxydSA_NS4_14adl_serializerENS2_IhNSA_IhEEEEvEENSA_ISG_EEEEEENS_18__unwrap_iter_implISJ_Lb0EEELi0EEEDTclsrT0_8__unwrapclsr3stdE7declvalIT_EEEESN_, symObjAddr: 0x715C, symBinAddr: 0x100012688, symSize: 0x34 }
  - { offset: 0x54FFD, size: 0x8, addend: 0x0, symName: __ZNSt3__19make_pairB8ne180100INS_11__wrap_iterIPN8nlohmann16json_abi_v3_11_310basic_jsonINS_3mapENS_6vectorENS_12basic_stringIcNS_11char_traitsIcEENS_9allocatorIcEEEEbxydSA_NS3_14adl_serializerENS6_IhNSA_IhEEEEvEEEENS_20back_insert_iteratorINS6_ISG_NSA_ISG_EEEEEEEENS_4pairINS_18__unwrap_ref_decayIT_E4typeENSO_IT0_E4typeEEEOSP_OSS_, symObjAddr: 0x7190, symBinAddr: 0x1000126BC, symSize: 0x38 }
  - { offset: 0x5504C, size: 0x8, addend: 0x0, symName: __ZNSt3__114__rewrap_rangeB8ne180100INS_11__wrap_iterIPN8nlohmann16json_abi_v3_11_310basic_jsonINS_3mapENS_6vectorENS_12basic_stringIcNS_11char_traitsIcEENS_9allocatorIcEEEEbxydSA_NS3_14adl_serializerENS6_IhNSA_IhEEEEvEEEESH_EET_SJ_T0_, symObjAddr: 0x71C8, symBinAddr: 0x1000126F4, symSize: 0x3C }
  - { offset: 0x55098, size: 0x8, addend: 0x0, symName: __ZNSt3__113__rewrap_iterB8ne180100INS_20back_insert_iteratorINS_6vectorIN8nlohmann16json_abi_v3_11_310basic_jsonINS_3mapES2_NS_12basic_stringIcNS_11char_traitsIcEENS_9allocatorIcEEEEbxydSA_NS4_14adl_serializerENS2_IhNSA_IhEEEEvEENSA_ISG_EEEEEESJ_NS_18__unwrap_iter_implISJ_Lb0EEEEET_SM_T0_, symObjAddr: 0x7204, symBinAddr: 0x100012730, symSize: 0x54 }
  - { offset: 0x550ED, size: 0x8, addend: 0x0, symName: __ZNSt3__19make_pairB8ne180100IPN8nlohmann16json_abi_v3_11_310basic_jsonINS_3mapENS_6vectorENS_12basic_stringIcNS_11char_traitsIcEENS_9allocatorIcEEEEbxydS9_NS2_14adl_serializerENS5_IhNS9_IhEEEEvEESG_EENS_4pairINS_18__unwrap_ref_decayIT_E4typeENSI_IT0_E4typeEEEOSJ_OSM_, symObjAddr: 0x7258, symBinAddr: 0x100012784, symSize: 0x38 }
  - { offset: 0x5513C, size: 0x8, addend: 0x0, symName: __ZNSt3__113__unwrap_iterB8ne180100INS_11__wrap_iterIPN8nlohmann16json_abi_v3_11_310basic_jsonINS_3mapENS_6vectorENS_12basic_stringIcNS_11char_traitsIcEENS_9allocatorIcEEEEbxydSA_NS3_14adl_serializerENS6_IhNSA_IhEEEEvEEEENS_18__unwrap_iter_implISI_Lb1EEELi0EEEDTclsrT0_8__unwrapclsr3stdE7declvalIT_EEEESM_, symObjAddr: 0x7290, symBinAddr: 0x1000127BC, symSize: 0x2C }
  - { offset: 0x552A7, size: 0x8, addend: 0x0, symName: __ZNSt3__112__to_addressB8ne180100INS_11__wrap_iterIPN8nlohmann16json_abi_v3_11_310basic_jsonINS_3mapENS_6vectorENS_12basic_stringIcNS_11char_traitsIcEENS_9allocatorIcEEEEbxydSA_NS3_14adl_serializerENS6_IhNSA_IhEEEEvEEEEvEEu7__decayIDTclsr19__to_address_helperIT_EE6__callclsr3stdE7declvalIRKSJ_EEEEESL_, symObjAddr: 0x7354, symBinAddr: 0x100012880, symSize: 0x24 }
  - { offset: 0x5546D, size: 0x8, addend: 0x0, symName: __ZNSt3__19make_pairB8ne180100IPN8nlohmann16json_abi_v3_11_310basic_jsonINS_3mapENS_6vectorENS_12basic_stringIcNS_11char_traitsIcEENS_9allocatorIcEEEEbxydS9_NS2_14adl_serializerENS5_IhNS9_IhEEEEvEENS_20back_insert_iteratorINS5_ISF_NS9_ISF_EEEEEEEENS_4pairINS_18__unwrap_ref_decayIT_E4typeENSM_IT0_E4typeEEEOSN_OSQ_, symObjAddr: 0x7474, symBinAddr: 0x1000129A0, symSize: 0x38 }
  - { offset: 0x555D8, size: 0x8, addend: 0x0, symName: __ZNSt3__113__rewrap_iterB8ne180100INS_11__wrap_iterIPN8nlohmann16json_abi_v3_11_310basic_jsonINS_3mapENS_6vectorENS_12basic_stringIcNS_11char_traitsIcEENS_9allocatorIcEEEEbxydSA_NS3_14adl_serializerENS6_IhNSA_IhEEEEvEEEESH_NS_18__unwrap_iter_implISI_Lb1EEEEET_SL_T0_, symObjAddr: 0x75AC, symBinAddr: 0x100012AD8, symSize: 0x4C }
  - { offset: 0x55660, size: 0x8, addend: 0x0, symName: __ZNSt3__1neB8ne180100ERKNS_15__tree_iteratorINS_12__value_typeINS_12basic_stringIcNS_11char_traitsIcEENS_9allocatorIcEEEEN8nlohmann16json_abi_v3_11_310basic_jsonINS_3mapENS_6vectorES7_bxydS5_NS9_14adl_serializerENSC_IhNS5_IhEEEEvEEEEPNS_11__tree_nodeISH_PvEElEESO_, symObjAddr: 0x79AC, symBinAddr: 0x100012ED8, symSize: 0x34 }
  - { offset: 0x5569D, size: 0x8, addend: 0x0, symName: __ZNSt3__1eqB8ne180100ERKNS_15__tree_iteratorINS_12__value_typeINS_12basic_stringIcNS_11char_traitsIcEENS_9allocatorIcEEEEN8nlohmann16json_abi_v3_11_310basic_jsonINS_3mapENS_6vectorES7_bxydS5_NS9_14adl_serializerENSC_IhNS5_IhEEEEvEEEEPNS_11__tree_nodeISH_PvEElEESO_, symObjAddr: 0x79E0, symBinAddr: 0x100012F0C, symSize: 0x30 }
  - { offset: 0x5570D, size: 0x8, addend: 0x0, symName: __ZNSt3__17launderB8ne180100INS_4pairIKNS_12basic_stringIcNS_11char_traitsIcEENS_9allocatorIcEEEEN8nlohmann16json_abi_v3_11_310basic_jsonINS_3mapENS_6vectorES7_bxydS5_NSA_14adl_serializerENSD_IhNS5_IhEEEEvEEEEEEPT_SK_, symObjAddr: 0x7A8C, symBinAddr: 0x100012FB8, symSize: 0x24 }
  - { offset: 0x55744, size: 0x8, addend: 0x0, symName: __ZNSt3__19__launderB8ne180100INS_4pairIKNS_12basic_stringIcNS_11char_traitsIcEENS_9allocatorIcEEEEN8nlohmann16json_abi_v3_11_310basic_jsonINS_3mapENS_6vectorES7_bxydS5_NSA_14adl_serializerENSD_IhNS5_IhEEEEvEEEEEEPT_SK_, symObjAddr: 0x7AB0, symBinAddr: 0x100012FDC, symSize: 0x14 }
  - { offset: 0x5577B, size: 0x8, addend: 0x0, symName: __ZNSt3__116__tree_next_iterB8ne180100IPNS_15__tree_end_nodeIPNS_16__tree_node_baseIPvEEEES5_EET_T0_, symObjAddr: 0x7E74, symBinAddr: 0x100013320, symSize: 0x90 }
  - { offset: 0x557B9, size: 0x8, addend: 0x0, symName: __ZNSt3__110__tree_minB8ne180100IPNS_16__tree_node_baseIPvEEEET_S5_, symObjAddr: 0x7F04, symBinAddr: 0x1000133B0, symSize: 0x40 }
  - { offset: 0x557EE, size: 0x8, addend: 0x0, symName: __ZNSt3__120__tree_is_left_childB8ne180100IPNS_16__tree_node_baseIPvEEEEbT_, symObjAddr: 0x7F44, symBinAddr: 0x1000133F0, symSize: 0x2C }
  - { offset: 0x55823, size: 0x8, addend: 0x0, symName: __ZNSt3__112__destroy_atB8ne180100INS_4pairIKNS_12basic_stringIcNS_11char_traitsIcEENS_9allocatorIcEEEEN8nlohmann16json_abi_v3_11_310basic_jsonINS_3mapENS_6vectorES7_bxydS5_NSA_14adl_serializerENSD_IhNS5_IhEEEEvEEEELi0EEEvPT_, symObjAddr: 0x837C, symBinAddr: 0x100013828, symSize: 0x24 }
  - { offset: 0x5585A, size: 0x8, addend: 0x0, symName: __ZNSt3__112__to_addressB8ne180100IhEEPT_S2_, symObjAddr: 0x8C38, symBinAddr: 0x1000140D0, symSize: 0x14 }
  - { offset: 0x5588F, size: 0x8, addend: 0x0, symName: __ZNSt3__112__to_addressB8ne180100INS_12basic_stringIcNS_11char_traitsIcEENS_9allocatorIcEEEEEEPT_S8_, symObjAddr: 0x8FD0, symBinAddr: 0x100014468, symSize: 0x14 }
  - { offset: 0x558C4, size: 0x8, addend: 0x0, symName: __ZNSt3__14copyB8ne180100IPKcPcEET0_T_S5_S4_, symObjAddr: 0x99B0, symBinAddr: 0x100014C80, symSize: 0x40 }
  - { offset: 0x5591E, size: 0x8, addend: 0x0, symName: __ZNSt3__16__copyB8ne180100INS_17_ClassicAlgPolicyEPKcS3_PcEENS_4pairIT0_T2_EES6_T1_S7_, symObjAddr: 0x99F0, symBinAddr: 0x100014CC0, symSize: 0x44 }
  - { offset: 0x5598A, size: 0x8, addend: 0x0, symName: __ZNSt3__123__dispatch_copy_or_moveB8ne180100INS_17_ClassicAlgPolicyENS_11__copy_loopIS1_EENS_14__copy_trivialEPKcS6_PcEENS_4pairIT2_T4_EES9_T3_SA_, symObjAddr: 0x9A34, symBinAddr: 0x100014D04, symSize: 0x44 }
  - { offset: 0x55A08, size: 0x8, addend: 0x0, symName: __ZNSt3__121__unwrap_and_dispatchB8ne180100INS_10__overloadINS_11__copy_loopINS_17_ClassicAlgPolicyEEENS_14__copy_trivialEEEPKcS8_PcLi0EEENS_4pairIT0_T2_EESB_T1_SC_, symObjAddr: 0x9A78, symBinAddr: 0x100014D48, symSize: 0xB4 }
  - { offset: 0x55A98, size: 0x8, addend: 0x0, symName: __ZNSt3__114__unwrap_rangeB8ne180100IPKcS2_EENS_4pairIT0_S4_EET_S6_, symObjAddr: 0x9B2C, symBinAddr: 0x100014DFC, symSize: 0x60 }
  - { offset: 0x55C69, size: 0x8, addend: 0x0, symName: __ZNSt3__113__unwrap_iterB8ne180100IPcNS_18__unwrap_iter_implIS1_Lb1EEELi0EEEDTclsrT0_8__unwrapclsr3stdE7declvalIT_EEEES5_, symObjAddr: 0x9BD4, symBinAddr: 0x100014EA4, symSize: 0x24 }
  - { offset: 0x55CAD, size: 0x8, addend: 0x0, symName: __ZNSt3__19make_pairB8ne180100IPKcPcEENS_4pairINS_18__unwrap_ref_decayIT_E4typeENS5_IT0_E4typeEEEOS6_OS9_, symObjAddr: 0x9BF8, symBinAddr: 0x100014EC8, symSize: 0x38 }
  - { offset: 0x55CFC, size: 0x8, addend: 0x0, symName: __ZNSt3__114__rewrap_rangeB8ne180100IPKcS2_EET_S3_T0_, symObjAddr: 0x9C30, symBinAddr: 0x100014F00, symSize: 0x2C }
  - { offset: 0x55D48, size: 0x8, addend: 0x0, symName: __ZNSt3__113__rewrap_iterB8ne180100IPcS1_NS_18__unwrap_iter_implIS1_Lb1EEEEET_S4_T0_, symObjAddr: 0x9C5C, symBinAddr: 0x100014F2C, symSize: 0x3C }
  - { offset: 0x55D9D, size: 0x8, addend: 0x0, symName: __ZNSt3__19make_pairB8ne180100IPKcS2_EENS_4pairINS_18__unwrap_ref_decayIT_E4typeENS4_IT0_E4typeEEEOS5_OS8_, symObjAddr: 0x9C98, symBinAddr: 0x100014F68, symSize: 0x38 }
  - { offset: 0x55DEC, size: 0x8, addend: 0x0, symName: __ZNSt3__113__unwrap_iterB8ne180100IPKcNS_18__unwrap_iter_implIS2_Lb1EEELi0EEEDTclsrT0_8__unwrapclsr3stdE7declvalIT_EEEES6_, symObjAddr: 0x9CD0, symBinAddr: 0x100014FA0, symSize: 0x24 }
  - { offset: 0x55F57, size: 0x8, addend: 0x0, symName: __ZNSt3__119__copy_trivial_implB8ne180100IKccEENS_4pairIPT_PT0_EES4_S4_S6_, symObjAddr: 0x9D88, symBinAddr: 0x100015058, symSize: 0x78 }
  - { offset: 0x55FC0, size: 0x8, addend: 0x0, symName: __ZNSt3__119__constexpr_memmoveB8ne180100IcKcLi0EEEPT_S3_PT0_NS_15__element_countE, symObjAddr: 0x9E00, symBinAddr: 0x1000150D0, symSize: 0x64 }
  - { offset: 0x5602F, size: 0x8, addend: 0x0, symName: __ZNSt3__19make_pairB8ne180100IRPKcPcEENS_4pairINS_18__unwrap_ref_decayIT_E4typeENS6_IT0_E4typeEEEOS7_OSA_, symObjAddr: 0x9E64, symBinAddr: 0x100015134, symSize: 0x38 }
  - { offset: 0x560D1, size: 0x8, addend: 0x0, symName: __ZNSt3__113__rewrap_iterB8ne180100IPKcS2_NS_18__unwrap_iter_implIS2_Lb1EEEEET_S5_T0_, symObjAddr: 0x9FA0, symBinAddr: 0x100015270, symSize: 0x3C }
  - { offset: 0x56126, size: 0x8, addend: 0x0, symName: __ZNSt3__16fill_nB8ne180100IPcmcEET_S2_T0_RKT1_, symObjAddr: 0xA06C, symBinAddr: 0x10001533C, symSize: 0x44 }
  - { offset: 0x56189, size: 0x8, addend: 0x0, symName: __ZNSt3__18__fill_nB8ne180100IPcmcEET_S2_T0_RKT1_, symObjAddr: 0xA0B0, symBinAddr: 0x100015380, symSize: 0x64 }
  - { offset: 0x561EC, size: 0x8, addend: 0x0, symName: __ZNSt3__121__convert_to_integralB8ne180100Em, symObjAddr: 0xA114, symBinAddr: 0x1000153E4, symSize: 0x14 }
  - { offset: 0x5660F, size: 0x8, addend: 0x0, symName: __ZNSt3__1neB8ne180100INS_3mapINS_12basic_stringIcNS_11char_traitsIcEENS_9allocatorIcEEEEN8nlohmann16json_abi_v3_11_310basic_jsonIS1_NS_6vectorES7_bxydS5_NS9_14adl_serializerENSB_IhNS5_IhEEEEvEENS_4lessIvEENS5_INS_4pairIKS7_SF_EEEEEEZNSF_6createISM_JEEEPT_DpOT0_EUlPSM_E_EEbRKNS_10unique_ptrISO_T0_EEDn, symObjAddr: 0xB66C, symBinAddr: 0x1000160E8, symSize: 0x2C }
  - { offset: 0x56A52, size: 0x8, addend: 0x0, symName: __ZNSt3__1neB8ne180100INS_6vectorIN8nlohmann16json_abi_v3_11_310basic_jsonINS_3mapES1_NS_12basic_stringIcNS_11char_traitsIcEENS_9allocatorIcEEEEbxydS9_NS3_14adl_serializerENS1_IhNS9_IhEEEEvEENS9_ISF_EEEEZNSF_6createISH_JEEEPT_DpOT0_EUlPSH_E_EEbRKNS_10unique_ptrISJ_T0_EEDn, symObjAddr: 0xBEB0, symBinAddr: 0x100016908, symSize: 0x2C }
  - { offset: 0x56DE1, size: 0x8, addend: 0x0, symName: __ZNSt3__1neB8ne180100INS_12basic_stringIcNS_11char_traitsIcEENS_9allocatorIcEEEEZN8nlohmann16json_abi_v3_11_310basic_jsonINS_3mapENS_6vectorES6_bxydS4_NS8_14adl_serializerENSB_IhNS4_IhEEEEvE6createIS6_JRA1_KcEEEPT_DpOT0_EUlPS6_E_EEbRKNS_10unique_ptrISK_T0_EEDn, symObjAddr: 0xC3A8, symBinAddr: 0x100016E00, symSize: 0x2C }
  - { offset: 0x57224, size: 0x8, addend: 0x0, symName: __ZNSt3__1neB8ne180100IN8nlohmann16json_abi_v3_11_327byte_container_with_subtypeINS_6vectorIhNS_9allocatorIhEEEEEEZNS2_10basic_jsonINS_3mapES4_NS_12basic_stringIcNS_11char_traitsIcEENS5_IcEEEEbxydS5_NS2_14adl_serializerES7_vE6createIS8_JEEEPT_DpOT0_EUlPS8_E_EEbRKNS_10unique_ptrISJ_T0_EEDn, symObjAddr: 0xC88C, symBinAddr: 0x1000172E4, symSize: 0x2C }
  - { offset: 0x577FE, size: 0x8, addend: 0x0, symName: __ZNSt3__121__convert_to_integralB8ne180100Ei, symObjAddr: 0x10968, symBinAddr: 0x10001B2B4, symSize: 0x14 }
  - { offset: 0x5782A, size: 0x8, addend: 0x0, symName: __ZNSt3__19__advanceB8ne180100INS_11__wrap_iterIPKcEEEEvRT_NS_15iterator_traitsIS5_E15difference_typeENS_26random_access_iterator_tagE, symObjAddr: 0x1097C, symBinAddr: 0x10001B2C8, symSize: 0x2C }
  - { offset: 0x57874, size: 0x8, addend: 0x0, symName: __ZNSt3__119__allocate_at_leastB8ne180100INS_9allocatorIcEEEENS_19__allocation_resultINS_16allocator_traitsIT_E7pointerEEERS5_m, symObjAddr: 0x111E0, symBinAddr: 0x10001BB2C, symSize: 0x40 }
  - { offset: 0x578B7, size: 0x8, addend: 0x0, symName: __ZNSt3__142__uninitialized_allocator_move_if_noexceptB8ne180100INS_9allocatorIcEENS_16reverse_iteratorIPcEES5_cvEET1_RT_T0_S9_S6_, symObjAddr: 0x1134C, symBinAddr: 0x10001BC98, symSize: 0x78 }
  - { offset: 0x57935, size: 0x8, addend: 0x0, symName: __ZNSt3__14swapB8ne180100IPcEENS_9enable_ifIXaasr21is_move_constructibleIT_EE5valuesr18is_move_assignableIS3_EE5valueEvE4typeERS3_S6_, symObjAddr: 0x11410, symBinAddr: 0x10001BD5C, symSize: 0x3C }
  - { offset: 0x57987, size: 0x8, addend: 0x0, symName: __ZNSt3__14moveB8ne180100INS_16reverse_iteratorIPcEES3_EET0_T_S5_S4_, symObjAddr: 0x11460, symBinAddr: 0x10001BDAC, symSize: 0x78 }
  - { offset: 0x579E1, size: 0x8, addend: 0x0, symName: __ZNSt3__16__moveB8ne180100INS_17_ClassicAlgPolicyENS_16reverse_iteratorIPcEES4_S4_EENS_4pairIT0_T2_EES6_T1_S7_, symObjAddr: 0x114D8, symBinAddr: 0x10001BE24, symSize: 0x64 }
  - { offset: 0x57A4D, size: 0x8, addend: 0x0, symName: __ZNSt3__123__dispatch_copy_or_moveB8ne180100INS_17_ClassicAlgPolicyENS_11__move_loopIS1_EENS_14__move_trivialENS_16reverse_iteratorIPcEES7_S7_EENS_4pairIT2_T4_EES9_T3_SA_, symObjAddr: 0x1153C, symBinAddr: 0x10001BE88, symSize: 0x64 }
  - { offset: 0x57ACB, size: 0x8, addend: 0x0, symName: __ZNSt3__121__unwrap_and_dispatchB8ne180100INS_10__overloadINS_11__move_loopINS_17_ClassicAlgPolicyEEENS_14__move_trivialEEENS_16reverse_iteratorIPcEES9_S9_Li0EEENS_4pairIT0_T2_EESB_T1_SC_, symObjAddr: 0x115A0, symBinAddr: 0x10001BEEC, symSize: 0x12C }
  - { offset: 0x57B5D, size: 0x8, addend: 0x0, symName: __ZNSt3__114__unwrap_rangeB8ne180100INS_16reverse_iteratorIPcEES3_EENS_4pairIT0_S5_EET_S7_, symObjAddr: 0x116CC, symBinAddr: 0x10001C018, symSize: 0x84 }
  - { offset: 0x57C7D, size: 0x8, addend: 0x0, symName: __ZNSt3__113__unwrap_iterB8ne180100INS_16reverse_iteratorIPcEENS_18__unwrap_iter_implIS3_Lb0EEELi0EEEDTclsrT0_8__unwrapclsr3stdE7declvalIT_EEEES7_, symObjAddr: 0x117F0, symBinAddr: 0x10001C13C, symSize: 0x44 }
  - { offset: 0x57CC1, size: 0x8, addend: 0x0, symName: __ZNSt3__19make_pairB8ne180100INS_16reverse_iteratorIPcEES3_EENS_4pairINS_18__unwrap_ref_decayIT_E4typeENS5_IT0_E4typeEEEOS6_OS9_, symObjAddr: 0x11834, symBinAddr: 0x10001C180, symSize: 0x38 }
  - { offset: 0x57D10, size: 0x8, addend: 0x0, symName: __ZNSt3__114__rewrap_rangeB8ne180100INS_16reverse_iteratorIPcEES3_EET_S4_T0_, symObjAddr: 0x1186C, symBinAddr: 0x10001C1B8, symSize: 0x5C }
  - { offset: 0x57D5C, size: 0x8, addend: 0x0, symName: __ZNSt3__113__rewrap_iterB8ne180100INS_16reverse_iteratorIPcEES3_NS_18__unwrap_iter_implIS3_Lb0EEEEET_S6_T0_, symObjAddr: 0x118C8, symBinAddr: 0x10001C214, symSize: 0x74 }
  - { offset: 0x57DB1, size: 0x8, addend: 0x0, symName: __ZNSt3__1neB8ne180100IPcS1_EEbRKNS_16reverse_iteratorIT_EERKNS2_IT0_EE, symObjAddr: 0x1193C, symBinAddr: 0x10001C288, symSize: 0x48 }
  - { offset: 0x57E50, size: 0x8, addend: 0x0, symName: __ZNSt3__15beginB8ne180100INS_12basic_stringIcNS_11char_traitsIcEENS_9allocatorIcEEEEEEDTcldtfp_5beginEERKT_, symObjAddr: 0x127F0, symBinAddr: 0x10001D13C, symSize: 0x2C }
  - { offset: 0x57E85, size: 0x8, addend: 0x0, symName: __ZNSt3__13endB8ne180100INS_12basic_stringIcNS_11char_traitsIcEENS_9allocatorIcEEEEEEDTcldtfp_3endEERKT_, symObjAddr: 0x1281C, symBinAddr: 0x10001D168, symSize: 0x2C }
  - { offset: 0x57EBA, size: 0x8, addend: 0x0, symName: __ZNSt3__119__allocate_at_leastB8ne180100INS_9allocatorImEEEENS_19__allocation_resultINS_16allocator_traitsIT_E7pointerEEERS5_m, symObjAddr: 0x16F88, symBinAddr: 0x1000218D4, symSize: 0x40 }
  - { offset: 0x57EFD, size: 0x8, addend: 0x0, symName: __ZNSt3__16__copyB8ne180100INS_17_ClassicAlgPolicyENS_14__bit_iteratorINS_6vectorIbNS_9allocatorIbEEEELb0ELm0EEES7_S7_EENS_4pairIT0_T2_EES9_T1_SA_, symObjAddr: 0x170F0, symBinAddr: 0x100021A3C, symSize: 0x88 }
  - { offset: 0x57F6C, size: 0x8, addend: 0x0, symName: __ZNSt3__123__dispatch_copy_or_moveB8ne180100INS_17_ClassicAlgPolicyENS_11__copy_loopIS1_EENS_14__copy_trivialENS_14__bit_iteratorINS_6vectorIbNS_9allocatorIbEEEELb0ELm0EEESA_SA_EENS_4pairIT2_T4_EESC_T3_SD_, symObjAddr: 0x17210, symBinAddr: 0x100021B5C, symSize: 0x88 }
  - { offset: 0x57FED, size: 0x8, addend: 0x0, symName: __ZNSt3__121__unwrap_and_dispatchB8ne180100INS_10__overloadINS_11__copy_loopINS_17_ClassicAlgPolicyEEENS_14__copy_trivialEEENS_14__bit_iteratorINS_6vectorIbNS_9allocatorIbEEEELb0ELm0EEESC_SC_Li0EEENS_4pairIT0_T2_EESE_T1_SF_, symObjAddr: 0x17298, symBinAddr: 0x100021BE4, symSize: 0x15C }
  - { offset: 0x58082, size: 0x8, addend: 0x0, symName: __ZNSt3__114__unwrap_rangeB8ne180100INS_14__bit_iteratorINS_6vectorIbNS_9allocatorIbEEEELb0ELm0EEES6_EENS_4pairIT0_S8_EET_SA_, symObjAddr: 0x173F4, symBinAddr: 0x100021D40, symSize: 0x8C }
  - { offset: 0x581F6, size: 0x8, addend: 0x0, symName: __ZNSt3__113__unwrap_iterB8ne180100INS_14__bit_iteratorINS_6vectorIbNS_9allocatorIbEEEELb0ELm0EEENS_18__unwrap_iter_implIS6_Lb0EEELi0EEEDTclsrT0_8__unwrapclsr3stdE7declvalIT_EEEESA_, symObjAddr: 0x17538, symBinAddr: 0x100021E84, symSize: 0x44 }
  - { offset: 0x5823B, size: 0x8, addend: 0x0, symName: __ZNSt3__19make_pairB8ne180100INS_14__bit_iteratorINS_6vectorIbNS_9allocatorIbEEEELb0ELm0EEES6_EENS_4pairINS_18__unwrap_ref_decayIT_E4typeENS8_IT0_E4typeEEEOS9_OSC_, symObjAddr: 0x1757C, symBinAddr: 0x100021EC8, symSize: 0x40 }
  - { offset: 0x5828A, size: 0x8, addend: 0x0, symName: __ZNSt3__114__rewrap_rangeB8ne180100INS_14__bit_iteratorINS_6vectorIbNS_9allocatorIbEEEELb0ELm0EEES6_EET_S7_T0_, symObjAddr: 0x175BC, symBinAddr: 0x100021F08, symSize: 0x6C }
  - { offset: 0x582D8, size: 0x8, addend: 0x0, symName: __ZNSt3__113__rewrap_iterB8ne180100INS_14__bit_iteratorINS_6vectorIbNS_9allocatorIbEEEELb0ELm0EEES6_NS_18__unwrap_iter_implIS6_Lb0EEEEET_S9_T0_, symObjAddr: 0x17628, symBinAddr: 0x100021F74, symSize: 0x74 }
  - { offset: 0x5832F, size: 0x8, addend: 0x0, symName: __ZNSt3__1neB8ne180100ERKNS_14__bit_iteratorINS_6vectorIbNS_9allocatorIbEEEELb0ELm0EEES7_, symObjAddr: 0x1769C, symBinAddr: 0x100021FE8, symSize: 0x34 }
  - { offset: 0x5836C, size: 0x8, addend: 0x0, symName: __ZNSt3__1eqB8ne180100ERKNS_14__bit_iteratorINS_6vectorIbNS_9allocatorIbEEEELb0ELm0EEES7_, symObjAddr: 0x177B0, symBinAddr: 0x1000220FC, symSize: 0x64 }
  - { offset: 0x583F1, size: 0x8, addend: 0x0, symName: __ZNSt3__14swapB8ne180100IPmEENS_9enable_ifIXaasr21is_move_constructibleIT_EE5valuesr18is_move_assignableIS3_EE5valueEvE4typeERS3_S6_, symObjAddr: 0x17A38, symBinAddr: 0x100022384, symSize: 0x3C }
  - { offset: 0x58443, size: 0x8, addend: 0x0, symName: __ZNSt3__14swapB8ne180100ImEENS_9enable_ifIXaasr21is_move_constructibleIT_EE5valuesr18is_move_assignableIS2_EE5valueEvE4typeERS2_S5_, symObjAddr: 0x17A74, symBinAddr: 0x1000223C0, symSize: 0x3C }
  - { offset: 0x58496, size: 0x8, addend: 0x0, symName: __ZNSt3__116__swap_allocatorB8ne180100INS_9allocatorImEEEEvRT_S4_NS_17integral_constantIbLb0EEE, symObjAddr: 0x17AB0, symBinAddr: 0x1000223FC, symSize: 0x14 }
  - { offset: 0x584DA, size: 0x8, addend: 0x0, symName: __ZNSt3__112__to_addressB8ne180100IPN8nlohmann16json_abi_v3_11_310basic_jsonINS_3mapENS_6vectorENS_12basic_stringIcNS_11char_traitsIcEENS_9allocatorIcEEEEbxydS9_NS2_14adl_serializerENS5_IhNS9_IhEEEEvEEEEPT_SI_, symObjAddr: 0x17F7C, symBinAddr: 0x1000228C8, symSize: 0x14 }
  - { offset: 0x58514, size: 0x8, addend: 0x0, symName: __ZNSt3__16__math8isfiniteB8ne180100IdLi0EEEbT_, symObjAddr: 0x18AC4, symBinAddr: 0x100023410, symSize: 0x24 }
  - { offset: 0x5854F, size: 0x8, addend: 0x0, symName: __ZNSt3__16__math4ceilB8ne180100Ef, symObjAddr: 0x2BB74, symBinAddr: 0x100036314, symSize: 0x18 }
  - { offset: 0x586F3, size: 0x8, addend: 0x0, symName: __ZNSt3__125__throw_bad_function_callB8ne180100Ev, symObjAddr: 0x1990C, symBinAddr: 0x100024258, symSize: 0x38 }
  - { offset: 0x58773, size: 0x8, addend: 0x0, symName: __ZNSt3__119__allocate_at_leastB8ne180100INS_9allocatorIPN8nlohmann16json_abi_v3_11_310basic_jsonINS_3mapENS_6vectorENS_12basic_stringIcNS_11char_traitsIcEENS1_IcEEEEbxydS1_NS3_14adl_serializerENS6_IhNS1_IhEEEEvEEEEEENS_19__allocation_resultINS_16allocator_traitsIT_E7pointerEEERSK_m, symObjAddr: 0x1A488, symBinAddr: 0x100024DD4, symSize: 0x40 }
  - { offset: 0x587B6, size: 0x8, addend: 0x0, symName: __ZNSt3__142__uninitialized_allocator_move_if_noexceptB8ne180100INS_9allocatorIPN8nlohmann16json_abi_v3_11_310basic_jsonINS_3mapENS_6vectorENS_12basic_stringIcNS_11char_traitsIcEENS1_IcEEEEbxydS1_NS3_14adl_serializerENS6_IhNS1_IhEEEEvEEEENS_16reverse_iteratorIPSG_EESK_SG_vEET1_RT_T0_SO_SL_, symObjAddr: 0x1A63C, symBinAddr: 0x100024F88, symSize: 0x78 }
  - { offset: 0x58834, size: 0x8, addend: 0x0, symName: __ZNSt3__14swapB8ne180100IPPN8nlohmann16json_abi_v3_11_310basic_jsonINS_3mapENS_6vectorENS_12basic_stringIcNS_11char_traitsIcEENS_9allocatorIcEEEEbxydS9_NS2_14adl_serializerENS5_IhNS9_IhEEEEvEEEENS_9enable_ifIXaasr21is_move_constructibleIT_EE5valuesr18is_move_assignableISJ_EE5valueEvE4typeERSJ_SM_, symObjAddr: 0x1A700, symBinAddr: 0x10002504C, symSize: 0x3C }
  - { offset: 0x58886, size: 0x8, addend: 0x0, symName: __ZNSt3__14moveB8ne180100INS_16reverse_iteratorIPPN8nlohmann16json_abi_v3_11_310basic_jsonINS_3mapENS_6vectorENS_12basic_stringIcNS_11char_traitsIcEENS_9allocatorIcEEEEbxydSA_NS3_14adl_serializerENS6_IhNSA_IhEEEEvEEEESJ_EET0_T_SL_SK_, symObjAddr: 0x1A750, symBinAddr: 0x10002509C, symSize: 0x78 }
  - { offset: 0x588E0, size: 0x8, addend: 0x0, symName: __ZNSt3__16__moveB8ne180100INS_17_ClassicAlgPolicyENS_16reverse_iteratorIPPN8nlohmann16json_abi_v3_11_310basic_jsonINS_3mapENS_6vectorENS_12basic_stringIcNS_11char_traitsIcEENS_9allocatorIcEEEEbxydSB_NS4_14adl_serializerENS7_IhNSB_IhEEEEvEEEESK_SK_EENS_4pairIT0_T2_EESM_T1_SN_, symObjAddr: 0x1A7C8, symBinAddr: 0x100025114, symSize: 0x64 }
  - { offset: 0x5894C, size: 0x8, addend: 0x0, symName: __ZNSt3__123__dispatch_copy_or_moveB8ne180100INS_17_ClassicAlgPolicyENS_11__move_loopIS1_EENS_14__move_trivialENS_16reverse_iteratorIPPN8nlohmann16json_abi_v3_11_310basic_jsonINS_3mapENS_6vectorENS_12basic_stringIcNS_11char_traitsIcEENS_9allocatorIcEEEEbxydSE_NS7_14adl_serializerENSA_IhNSE_IhEEEEvEEEESN_SN_EENS_4pairIT2_T4_EESP_T3_SQ_, symObjAddr: 0x1A82C, symBinAddr: 0x100025178, symSize: 0x64 }
  - { offset: 0x589CA, size: 0x8, addend: 0x0, symName: __ZNSt3__121__unwrap_and_dispatchB8ne180100INS_10__overloadINS_11__move_loopINS_17_ClassicAlgPolicyEEENS_14__move_trivialEEENS_16reverse_iteratorIPPN8nlohmann16json_abi_v3_11_310basic_jsonINS_3mapENS_6vectorENS_12basic_stringIcNS_11char_traitsIcEENS_9allocatorIcEEEEbxydSG_NS9_14adl_serializerENSC_IhNSG_IhEEEEvEEEESP_SP_Li0EEENS_4pairIT0_T2_EESR_T1_SS_, symObjAddr: 0x1A890, symBinAddr: 0x1000251DC, symSize: 0x12C }
  - { offset: 0x58A5C, size: 0x8, addend: 0x0, symName: __ZNSt3__114__unwrap_rangeB8ne180100INS_16reverse_iteratorIPPN8nlohmann16json_abi_v3_11_310basic_jsonINS_3mapENS_6vectorENS_12basic_stringIcNS_11char_traitsIcEENS_9allocatorIcEEEEbxydSA_NS3_14adl_serializerENS6_IhNSA_IhEEEEvEEEESJ_EENS_4pairIT0_SL_EET_SN_, symObjAddr: 0x1A9BC, symBinAddr: 0x100025308, symSize: 0x84 }
  - { offset: 0x58B7C, size: 0x8, addend: 0x0, symName: __ZNSt3__113__unwrap_iterB8ne180100INS_16reverse_iteratorIPPN8nlohmann16json_abi_v3_11_310basic_jsonINS_3mapENS_6vectorENS_12basic_stringIcNS_11char_traitsIcEENS_9allocatorIcEEEEbxydSA_NS3_14adl_serializerENS6_IhNSA_IhEEEEvEEEENS_18__unwrap_iter_implISJ_Lb0EEELi0EEEDTclsrT0_8__unwrapclsr3stdE7declvalIT_EEEESN_, symObjAddr: 0x1AAE0, symBinAddr: 0x10002542C, symSize: 0x44 }
  - { offset: 0x58BC0, size: 0x8, addend: 0x0, symName: __ZNSt3__19make_pairB8ne180100INS_16reverse_iteratorIPPN8nlohmann16json_abi_v3_11_310basic_jsonINS_3mapENS_6vectorENS_12basic_stringIcNS_11char_traitsIcEENS_9allocatorIcEEEEbxydSA_NS3_14adl_serializerENS6_IhNSA_IhEEEEvEEEESJ_EENS_4pairINS_18__unwrap_ref_decayIT_E4typeENSL_IT0_E4typeEEEOSM_OSP_, symObjAddr: 0x1AB24, symBinAddr: 0x100025470, symSize: 0x38 }
  - { offset: 0x58C0F, size: 0x8, addend: 0x0, symName: __ZNSt3__114__rewrap_rangeB8ne180100INS_16reverse_iteratorIPPN8nlohmann16json_abi_v3_11_310basic_jsonINS_3mapENS_6vectorENS_12basic_stringIcNS_11char_traitsIcEENS_9allocatorIcEEEEbxydSA_NS3_14adl_serializerENS6_IhNSA_IhEEEEvEEEESJ_EET_SK_T0_, symObjAddr: 0x1AB5C, symBinAddr: 0x1000254A8, symSize: 0x5C }
  - { offset: 0x58C5B, size: 0x8, addend: 0x0, symName: __ZNSt3__113__rewrap_iterB8ne180100INS_16reverse_iteratorIPPN8nlohmann16json_abi_v3_11_310basic_jsonINS_3mapENS_6vectorENS_12basic_stringIcNS_11char_traitsIcEENS_9allocatorIcEEEEbxydSA_NS3_14adl_serializerENS6_IhNSA_IhEEEEvEEEESJ_NS_18__unwrap_iter_implISJ_Lb0EEEEET_SM_T0_, symObjAddr: 0x1ABB8, symBinAddr: 0x100025504, symSize: 0x74 }
  - { offset: 0x58CB0, size: 0x8, addend: 0x0, symName: __ZNSt3__1neB8ne180100IPPN8nlohmann16json_abi_v3_11_310basic_jsonINS_3mapENS_6vectorENS_12basic_stringIcNS_11char_traitsIcEENS_9allocatorIcEEEEbxydS9_NS2_14adl_serializerENS5_IhNS9_IhEEEEvEESH_EEbRKNS_16reverse_iteratorIT_EERKNSI_IT0_EE, symObjAddr: 0x1AC2C, symBinAddr: 0x100025578, symSize: 0x48 }
  - { offset: 0x59087, size: 0x8, addend: 0x0, symName: __ZNSt3__1neB8ne180100INS_3mapINS_12basic_stringIcNS_11char_traitsIcEENS_9allocatorIcEEEEN8nlohmann16json_abi_v3_11_310basic_jsonIS1_NS_6vectorES7_bxydS5_NS9_14adl_serializerENSB_IhNS5_IhEEEEvEENS_4lessIvEENS5_INS_4pairIKS7_SF_EEEEEEZNSF_6createISM_JRKSM_EEEPT_DpOT0_EUlPSM_E_EEbRKNS_10unique_ptrISQ_T0_EEDn, symObjAddr: 0x1C104, symBinAddr: 0x100026A50, symSize: 0x2C }
  - { offset: 0x590D3, size: 0x8, addend: 0x0, symName: __ZNSt3__1neB8ne180100ERKNS_20__map_const_iteratorINS_21__tree_const_iteratorINS_12__value_typeINS_12basic_stringIcNS_11char_traitsIcEENS_9allocatorIcEEEEN8nlohmann16json_abi_v3_11_310basic_jsonINS_3mapENS_6vectorES8_bxydS6_NSA_14adl_serializerENSD_IhNS6_IhEEEEvEEEEPNS_11__tree_nodeISI_PvEElEEEESQ_, symObjAddr: 0x1C6A4, symBinAddr: 0x100026FF0, symSize: 0x30 }
  - { offset: 0x59110, size: 0x8, addend: 0x0, symName: __ZNSt3__1neB8ne180100ERKNS_21__tree_const_iteratorINS_12__value_typeINS_12basic_stringIcNS_11char_traitsIcEENS_9allocatorIcEEEEN8nlohmann16json_abi_v3_11_310basic_jsonINS_3mapENS_6vectorES7_bxydS5_NS9_14adl_serializerENSC_IhNS5_IhEEEEvEEEEPNS_11__tree_nodeISH_PvEElEESO_, symObjAddr: 0x1C7AC, symBinAddr: 0x1000270F8, symSize: 0x34 }
  - { offset: 0x5914D, size: 0x8, addend: 0x0, symName: __ZNSt3__1eqB8ne180100ERKNS_21__tree_const_iteratorINS_12__value_typeINS_12basic_stringIcNS_11char_traitsIcEENS_9allocatorIcEEEEN8nlohmann16json_abi_v3_11_310basic_jsonINS_3mapENS_6vectorES7_bxydS5_NS9_14adl_serializerENSC_IhNS5_IhEEEEvEEEEPNS_11__tree_nodeISH_PvEElEESO_, symObjAddr: 0x1C7E0, symBinAddr: 0x10002712C, symSize: 0x30 }
  - { offset: 0x5918A, size: 0x8, addend: 0x0, symName: __ZNSt3__14nextB8ne180100INS_21__tree_const_iteratorINS_12__value_typeINS_12basic_stringIcNS_11char_traitsIcEENS_9allocatorIcEEEEN8nlohmann16json_abi_v3_11_310basic_jsonINS_3mapENS_6vectorES8_bxydS6_NSA_14adl_serializerENSD_IhNS6_IhEEEEvEEEEPNS_11__tree_nodeISI_PvEElEELi0EEET_SO_NS_15iterator_traitsISO_E15difference_typeE, symObjAddr: 0x1D244, symBinAddr: 0x100027B90, symSize: 0x3C }
  - { offset: 0x591D3, size: 0x8, addend: 0x0, symName: __ZNSt3__1ltB8ne180100IcNS_11char_traitsIcEENS_9allocatorIcEEEEbRKNS_12basic_stringIT_T0_T1_EESB_, symObjAddr: 0x1D348, symBinAddr: 0x100027C94, symSize: 0x38 }
  - { offset: 0x5922B, size: 0x8, addend: 0x0, symName: __ZNSt3__17launderB8ne180100IKNS_4pairIKNS_12basic_stringIcNS_11char_traitsIcEENS_9allocatorIcEEEEN8nlohmann16json_abi_v3_11_310basic_jsonINS_3mapENS_6vectorES7_bxydS5_NSA_14adl_serializerENSD_IhNS5_IhEEEEvEEEEEEPT_SL_, symObjAddr: 0x1D614, symBinAddr: 0x100027F60, symSize: 0x24 }
  - { offset: 0x59262, size: 0x8, addend: 0x0, symName: __ZNSt3__19__launderB8ne180100IKNS_4pairIKNS_12basic_stringIcNS_11char_traitsIcEENS_9allocatorIcEEEEN8nlohmann16json_abi_v3_11_310basic_jsonINS_3mapENS_6vectorES7_bxydS5_NSA_14adl_serializerENSD_IhNS5_IhEEEEvEEEEEEPT_SL_, symObjAddr: 0x1D638, symBinAddr: 0x100027F84, symSize: 0x14 }
  - { offset: 0x59299, size: 0x8, addend: 0x0, symName: __ZNSt3__116__tree_prev_iterB8ne180100IPNS_16__tree_node_baseIPvEEPNS_15__tree_end_nodeIS4_EEEET_T0_, symObjAddr: 0x1D64C, symBinAddr: 0x100027F98, symSize: 0x88 }
  - { offset: 0x592E6, size: 0x8, addend: 0x0, symName: __ZNSt3__110__tree_maxB8ne180100IPNS_16__tree_node_baseIPvEEEET_S5_, symObjAddr: 0x1D6D4, symBinAddr: 0x100028020, symSize: 0x40 }
  - { offset: 0x5931B, size: 0x8, addend: 0x0, symName: __ZNSt3__121__convert_to_integralB8ne180100El, symObjAddr: 0x1D770, symBinAddr: 0x1000280BC, symSize: 0x14 }
  - { offset: 0x59347, size: 0x8, addend: 0x0, symName: __ZNSt3__19__advanceB8ne180100INS_21__tree_const_iteratorINS_12__value_typeINS_12basic_stringIcNS_11char_traitsIcEENS_9allocatorIcEEEEN8nlohmann16json_abi_v3_11_310basic_jsonINS_3mapENS_6vectorES8_bxydS6_NSA_14adl_serializerENSD_IhNS6_IhEEEEvEEEEPNS_11__tree_nodeISI_PvEElEEEEvRT_NS_15iterator_traitsISO_E15difference_typeENS_26bidirectional_iterator_tagE, symObjAddr: 0x1D784, symBinAddr: 0x1000280D0, symSize: 0xA4 }
  - { offset: 0x593AF, size: 0x8, addend: 0x0, symName: __ZNSt3__127__tree_balance_after_insertB8ne180100IPNS_16__tree_node_baseIPvEEEEvT_S5_, symObjAddr: 0x1DC80, symBinAddr: 0x1000285CC, symSize: 0x27C }
  - { offset: 0x5942B, size: 0x8, addend: 0x0, symName: __ZNSt3__118__tree_left_rotateB8ne180100IPNS_16__tree_node_baseIPvEEEEvT_, symObjAddr: 0x1DEFC, symBinAddr: 0x100028848, symSize: 0xD8 }
  - { offset: 0x5946B, size: 0x8, addend: 0x0, symName: __ZNSt3__119__tree_right_rotateB8ne180100IPNS_16__tree_node_baseIPvEEEEvT_, symObjAddr: 0x1DFD4, symBinAddr: 0x100028920, symSize: 0xCC }
  - { offset: 0x59818, size: 0x8, addend: 0x0, symName: __ZNSt3__1neB8ne180100INS_6vectorIN8nlohmann16json_abi_v3_11_310basic_jsonINS_3mapES1_NS_12basic_stringIcNS_11char_traitsIcEENS_9allocatorIcEEEEbxydS9_NS3_14adl_serializerENS1_IhNS9_IhEEEEvEENS9_ISF_EEEEZNSF_6createISH_JRKSH_EEEPT_DpOT0_EUlPSH_E_EEbRKNS_10unique_ptrISL_T0_EEDn, symObjAddr: 0x1E71C, symBinAddr: 0x100029068, symSize: 0x2C }
  - { offset: 0x59864, size: 0x8, addend: 0x0, symName: __ZNSt3__122__make_exception_guardB8ne180100INS_6vectorIN8nlohmann16json_abi_v3_11_310basic_jsonINS_3mapES1_NS_12basic_stringIcNS_11char_traitsIcEENS_9allocatorIcEEEEbxydS9_NS3_14adl_serializerENS1_IhNS9_IhEEEEvEENS9_ISF_EEE16__destroy_vectorEEENS_28__exception_guard_exceptionsIT_EESK_, symObjAddr: 0x1EB00, symBinAddr: 0x10002944C, symSize: 0x40 }
  - { offset: 0x59899, size: 0x8, addend: 0x0, symName: __ZNSt3__130__uninitialized_allocator_copyB8ne180100INS_9allocatorIN8nlohmann16json_abi_v3_11_310basic_jsonINS_3mapENS_6vectorENS_12basic_stringIcNS_11char_traitsIcEENS1_IcEEEEbxydS1_NS3_14adl_serializerENS6_IhNS1_IhEEEEvEEEEPSF_SH_SH_EET2_RT_T0_T1_SI_, symObjAddr: 0x1ED18, symBinAddr: 0x100029664, symSize: 0x80 }
  - { offset: 0x59936, size: 0x8, addend: 0x0, symName: __ZNSt3__114__unwrap_rangeB8ne180100IPN8nlohmann16json_abi_v3_11_310basic_jsonINS_3mapENS_6vectorENS_12basic_stringIcNS_11char_traitsIcEENS_9allocatorIcEEEEbxydS9_NS2_14adl_serializerENS5_IhNS9_IhEEEEvEESG_EENS_4pairIT0_SI_EET_SK_, symObjAddr: 0x1ED98, symBinAddr: 0x1000296E4, symSize: 0x60 }
  - { offset: 0x59982, size: 0x8, addend: 0x0, symName: __ZNSt3__135__uninitialized_allocator_copy_implB8ne180100INS_9allocatorIN8nlohmann16json_abi_v3_11_310basic_jsonINS_3mapENS_6vectorENS_12basic_stringIcNS_11char_traitsIcEENS1_IcEEEEbxydS1_NS3_14adl_serializerENS6_IhNS1_IhEEEEvEEEEPSF_SH_SH_EET2_RT_T0_T1_SI_, symObjAddr: 0x1EDF8, symBinAddr: 0x100029744, symSize: 0xF4 }
  - { offset: 0x59A20, size: 0x8, addend: 0x0, symName: __ZNSt3__113__unwrap_iterB8ne180100IPN8nlohmann16json_abi_v3_11_310basic_jsonINS_3mapENS_6vectorENS_12basic_stringIcNS_11char_traitsIcEENS_9allocatorIcEEEEbxydS9_NS2_14adl_serializerENS5_IhNS9_IhEEEEvEENS_18__unwrap_iter_implISG_Lb1EEELi0EEEDTclsrT0_8__unwrapclsr3stdE7declvalIT_EEEESK_, symObjAddr: 0x1EEEC, symBinAddr: 0x100029838, symSize: 0x24 }
  - { offset: 0x59A64, size: 0x8, addend: 0x0, symName: __ZNSt3__113__rewrap_iterB8ne180100IPN8nlohmann16json_abi_v3_11_310basic_jsonINS_3mapENS_6vectorENS_12basic_stringIcNS_11char_traitsIcEENS_9allocatorIcEEEEbxydS9_NS2_14adl_serializerENS5_IhNS9_IhEEEEvEESG_NS_18__unwrap_iter_implISG_Lb1EEEEET_SJ_T0_, symObjAddr: 0x1EF10, symBinAddr: 0x10002985C, symSize: 0x3C }
  - { offset: 0x59AB9, size: 0x8, addend: 0x0, symName: __ZNSt3__122__make_exception_guardB8ne180100INS_29_AllocatorDestroyRangeReverseINS_9allocatorIN8nlohmann16json_abi_v3_11_310basic_jsonINS_3mapENS_6vectorENS_12basic_stringIcNS_11char_traitsIcEENS2_IcEEEEbxydS2_NS4_14adl_serializerENS7_IhNS2_IhEEEEvEEEEPSG_EEEENS_28__exception_guard_exceptionsIT_EESL_, symObjAddr: 0x1EF4C, symBinAddr: 0x100029898, symSize: 0x4C }
  - { offset: 0x59AEF, size: 0x8, addend: 0x0, symName: __ZNSt3__119__allocator_destroyB8ne180100INS_9allocatorIN8nlohmann16json_abi_v3_11_310basic_jsonINS_3mapENS_6vectorENS_12basic_stringIcNS_11char_traitsIcEENS1_IcEEEEbxydS1_NS3_14adl_serializerENS6_IhNS1_IhEEEEvEEEENS_16reverse_iteratorIPSF_EESJ_EEvRT_T0_T1_, symObjAddr: 0x1F1DC, symBinAddr: 0x100029B28, symSize: 0x70 }
  - { offset: 0x59EDD, size: 0x8, addend: 0x0, symName: __ZNSt3__1neB8ne180100INS_12basic_stringIcNS_11char_traitsIcEENS_9allocatorIcEEEEZN8nlohmann16json_abi_v3_11_310basic_jsonINS_3mapENS_6vectorES6_bxydS4_NS8_14adl_serializerENSB_IhNS4_IhEEEEvE6createIS6_JRKS6_EEEPT_DpOT0_EUlPS6_E_EEbRKNS_10unique_ptrISJ_T0_EEDn, symObjAddr: 0x1F66C, symBinAddr: 0x100029FB8, symSize: 0x2C }
  - { offset: 0x5A261, size: 0x8, addend: 0x0, symName: __ZNSt3__1neB8ne180100IN8nlohmann16json_abi_v3_11_327byte_container_with_subtypeINS_6vectorIhNS_9allocatorIhEEEEEEZNS2_10basic_jsonINS_3mapES4_NS_12basic_stringIcNS_11char_traitsIcEENS5_IcEEEEbxydS5_NS2_14adl_serializerES7_vE6createIS8_JRKS8_EEEPT_DpOT0_EUlPS8_E_EEbRKNS_10unique_ptrISL_T0_EEDn, symObjAddr: 0x1FC18, symBinAddr: 0x10002A564, symSize: 0x2C }
  - { offset: 0x5A2AD, size: 0x8, addend: 0x0, symName: __ZNSt3__122__make_exception_guardB8ne180100INS_6vectorIhNS_9allocatorIhEEE16__destroy_vectorEEENS_28__exception_guard_exceptionsIT_EES7_, symObjAddr: 0x200C4, symBinAddr: 0x10002AA10, symSize: 0x40 }
  - { offset: 0x5A2E2, size: 0x8, addend: 0x0, symName: __ZNSt3__119__allocate_at_leastB8ne180100INS_9allocatorIhEEEENS_19__allocation_resultINS_16allocator_traitsIT_E7pointerEEERS5_m, symObjAddr: 0x20358, symBinAddr: 0x10002ACA4, symSize: 0x40 }
  - { offset: 0x5A325, size: 0x8, addend: 0x0, symName: __ZNSt3__130__uninitialized_allocator_copyB8ne180100INS_9allocatorIhEEPhS3_S3_EET2_RT_T0_T1_S4_, symObjAddr: 0x204D8, symBinAddr: 0x10002AE24, symSize: 0x80 }
  - { offset: 0x5A3C2, size: 0x8, addend: 0x0, symName: __ZNSt3__114__unwrap_rangeB8ne180100IPhS1_EENS_4pairIT0_S3_EET_S5_, symObjAddr: 0x205C8, symBinAddr: 0x10002AF14, symSize: 0x60 }
  - { offset: 0x5A40E, size: 0x8, addend: 0x0, symName: __ZNSt3__135__uninitialized_allocator_copy_implB8ne180100INS_9allocatorIhEEhhhLPv0EEEPT2_RT_PT0_S9_S5_, symObjAddr: 0x20628, symBinAddr: 0x10002AF74, symSize: 0x38 }
  - { offset: 0x5A491, size: 0x8, addend: 0x0, symName: __ZNSt3__113__unwrap_iterB8ne180100IPhNS_18__unwrap_iter_implIS1_Lb1EEELi0EEEDTclsrT0_8__unwrapclsr3stdE7declvalIT_EEEES5_, symObjAddr: 0x20660, symBinAddr: 0x10002AFAC, symSize: 0x24 }
  - { offset: 0x5A4D5, size: 0x8, addend: 0x0, symName: __ZNSt3__113__rewrap_iterB8ne180100IPhS1_NS_18__unwrap_iter_implIS1_Lb1EEEEET_S4_T0_, symObjAddr: 0x20684, symBinAddr: 0x10002AFD0, symSize: 0x3C }
  - { offset: 0x5A52A, size: 0x8, addend: 0x0, symName: __ZNSt3__19make_pairB8ne180100IPhS1_EENS_4pairINS_18__unwrap_ref_decayIT_E4typeENS3_IT0_E4typeEEEOS4_OS7_, symObjAddr: 0x206C0, symBinAddr: 0x10002B00C, symSize: 0x38 }
  - { offset: 0x5A67C, size: 0x8, addend: 0x0, symName: __ZNSt3__14copyB8ne180100IPhS1_EET0_T_S3_S2_, symObjAddr: 0x20768, symBinAddr: 0x10002B0B4, symSize: 0x40 }
  - { offset: 0x5A6D6, size: 0x8, addend: 0x0, symName: __ZNSt3__16__copyB8ne180100INS_17_ClassicAlgPolicyEPhS2_S2_EENS_4pairIT0_T2_EES4_T1_S5_, symObjAddr: 0x207A8, symBinAddr: 0x10002B0F4, symSize: 0x44 }
  - { offset: 0x5A742, size: 0x8, addend: 0x0, symName: __ZNSt3__123__dispatch_copy_or_moveB8ne180100INS_17_ClassicAlgPolicyENS_11__copy_loopIS1_EENS_14__copy_trivialEPhS5_S5_EENS_4pairIT2_T4_EES7_T3_S8_, symObjAddr: 0x207EC, symBinAddr: 0x10002B138, symSize: 0x44 }
  - { offset: 0x5A7C0, size: 0x8, addend: 0x0, symName: __ZNSt3__121__unwrap_and_dispatchB8ne180100INS_10__overloadINS_11__copy_loopINS_17_ClassicAlgPolicyEEENS_14__copy_trivialEEEPhS7_S7_Li0EEENS_4pairIT0_T2_EES9_T1_SA_, symObjAddr: 0x20830, symBinAddr: 0x10002B17C, symSize: 0xB4 }
  - { offset: 0x5A850, size: 0x8, addend: 0x0, symName: __ZNSt3__114__rewrap_rangeB8ne180100IPhS1_EET_S2_T0_, symObjAddr: 0x2092C, symBinAddr: 0x10002B278, symSize: 0x2C }
  - { offset: 0x5A89C, size: 0x8, addend: 0x0, symName: __ZNSt3__119__copy_trivial_implB8ne180100IhhEENS_4pairIPT_PT0_EES3_S3_S5_, symObjAddr: 0x20958, symBinAddr: 0x10002B2A4, symSize: 0x78 }
  - { offset: 0x5A905, size: 0x8, addend: 0x0, symName: __ZNSt3__119__constexpr_memmoveB8ne180100IhhLi0EEEPT_S2_PT0_NS_15__element_countE, symObjAddr: 0x209D0, symBinAddr: 0x10002B31C, symSize: 0x64 }
  - { offset: 0x5A974, size: 0x8, addend: 0x0, symName: __ZNSt3__19make_pairB8ne180100IRPhS1_EENS_4pairINS_18__unwrap_ref_decayIT_E4typeENS4_IT0_E4typeEEEOS5_OS8_, symObjAddr: 0x20A34, symBinAddr: 0x10002B380, symSize: 0x38 }
  - { offset: 0x5AA16, size: 0x8, addend: 0x0, symName: __ZNSt3__1neB8ne180100IPN8nlohmann16json_abi_v3_11_310basic_jsonINS_3mapENS_6vectorENS_12basic_stringIcNS_11char_traitsIcEENS_9allocatorIcEEEEbxydS9_NS2_14adl_serializerENS5_IhNS9_IhEEEEvEEEEbRKNS_11__wrap_iterIT_EESL_, symObjAddr: 0x20DD8, symBinAddr: 0x10002B724, symSize: 0x34 }
  - { offset: 0x5AA8C, size: 0x8, addend: 0x0, symName: __ZNSt3__1eqB8ne180100IPN8nlohmann16json_abi_v3_11_310basic_jsonINS_3mapENS_6vectorENS_12basic_stringIcNS_11char_traitsIcEENS_9allocatorIcEEEEbxydS9_NS2_14adl_serializerENS5_IhNS9_IhEEEEvEEEEbRKNS_11__wrap_iterIT_EESL_, symObjAddr: 0x20FB8, symBinAddr: 0x10002B904, symSize: 0x48 }
  - { offset: 0x5AACF, size: 0x8, addend: 0x0, symName: __ZNSt3__113__tree_removeB8ne180100IPNS_16__tree_node_baseIPvEEEEvT_S5_, symObjAddr: 0x216BC, symBinAddr: 0x10002C008, symSize: 0x6F0 }
  - { offset: 0x5AB4D, size: 0x8, addend: 0x0, symName: __ZNSt3__111__tree_nextB8ne180100IPNS_16__tree_node_baseIPvEEEET_S5_, symObjAddr: 0x21DAC, symBinAddr: 0x10002C6F8, symSize: 0x80 }
  - { offset: 0x5AB82, size: 0x8, addend: 0x0, symName: __ZNSt3__1miB8ne180100IPKN8nlohmann16json_abi_v3_11_310basic_jsonINS_3mapENS_6vectorENS_12basic_stringIcNS_11char_traitsIcEENS_9allocatorIcEEEEbxydS9_NS2_14adl_serializerENS5_IhNS9_IhEEEEvEESH_EEDTmicldtfp_4baseEcldtfp0_4baseEERKNS_11__wrap_iterIT_EERKNSJ_IT0_EE, symObjAddr: 0x21E2C, symBinAddr: 0x10002C778, symSize: 0x48 }
  - { offset: 0x5ABCE, size: 0x8, addend: 0x0, symName: __ZNSt3__14moveB8ne180100IPN8nlohmann16json_abi_v3_11_310basic_jsonINS_3mapENS_6vectorENS_12basic_stringIcNS_11char_traitsIcEENS_9allocatorIcEEEEbxydS9_NS2_14adl_serializerENS5_IhNS9_IhEEEEvEESG_EET0_T_SI_SH_, symObjAddr: 0x21EA0, symBinAddr: 0x10002C7EC, symSize: 0x40 }
  - { offset: 0x5AC28, size: 0x8, addend: 0x0, symName: __ZNSt3__16__moveB8ne180100INS_17_ClassicAlgPolicyEPN8nlohmann16json_abi_v3_11_310basic_jsonINS_3mapENS_6vectorENS_12basic_stringIcNS_11char_traitsIcEENS_9allocatorIcEEEEbxydSA_NS3_14adl_serializerENS6_IhNSA_IhEEEEvEESH_SH_EENS_4pairIT0_T2_EESJ_T1_SK_, symObjAddr: 0x21FAC, symBinAddr: 0x10002C8F8, symSize: 0x44 }
  - { offset: 0x5AC94, size: 0x8, addend: 0x0, symName: __ZNSt3__123__dispatch_copy_or_moveB8ne180100INS_17_ClassicAlgPolicyENS_11__move_loopIS1_EENS_14__move_trivialEPN8nlohmann16json_abi_v3_11_310basic_jsonINS_3mapENS_6vectorENS_12basic_stringIcNS_11char_traitsIcEENS_9allocatorIcEEEEbxydSD_NS6_14adl_serializerENS9_IhNSD_IhEEEEvEESK_SK_EENS_4pairIT2_T4_EESM_T3_SN_, symObjAddr: 0x21FF0, symBinAddr: 0x10002C93C, symSize: 0x44 }
  - { offset: 0x5AD12, size: 0x8, addend: 0x0, symName: __ZNSt3__121__unwrap_and_dispatchB8ne180100INS_10__overloadINS_11__move_loopINS_17_ClassicAlgPolicyEEENS_14__move_trivialEEEPN8nlohmann16json_abi_v3_11_310basic_jsonINS_3mapENS_6vectorENS_12basic_stringIcNS_11char_traitsIcEENS_9allocatorIcEEEEbxydSF_NS8_14adl_serializerENSB_IhNSF_IhEEEEvEESM_SM_Li0EEENS_4pairIT0_T2_EESO_T1_SP_, symObjAddr: 0x22034, symBinAddr: 0x10002C980, symSize: 0xB4 }
  - { offset: 0x5ADA2, size: 0x8, addend: 0x0, symName: __ZNSt3__114__rewrap_rangeB8ne180100IPN8nlohmann16json_abi_v3_11_310basic_jsonINS_3mapENS_6vectorENS_12basic_stringIcNS_11char_traitsIcEENS_9allocatorIcEEEEbxydS9_NS2_14adl_serializerENS5_IhNS9_IhEEEEvEESG_EET_SH_T0_, symObjAddr: 0x22190, symBinAddr: 0x10002CADC, symSize: 0x2C }
  - { offset: 0x5AE25, size: 0x8, addend: 0x0, symName: __ZNSt3__116forward_as_tupleB8ne180100IJRKNS_12basic_stringIcNS_11char_traitsIcEENS_9allocatorIcEEEEEEENS_5tupleIJDpOT_EEESC_, symObjAddr: 0x226FC, symBinAddr: 0x10002D048, symSize: 0x2C }
  - { offset: 0x5AE5E, size: 0x8, addend: 0x0, symName: __ZNSt3__116forward_as_tupleB8ne180100IJEEENS_5tupleIJDpOT_EEES4_, symObjAddr: 0x22728, symBinAddr: 0x10002D074, symSize: 0x4 }
  - { offset: 0x5AE8E, size: 0x8, addend: 0x0, symName: __ZNSt3__13getB8ne180100ILm0EJRKNS_12basic_stringIcNS_11char_traitsIcEENS_9allocatorIcEEEEEEERNS_13tuple_elementIXT_ENS_5tupleIJDpT0_EEEE4typeERSD_, symObjAddr: 0x22998, symBinAddr: 0x10002D2E4, symSize: 0x24 }
  - { offset: 0x5B1BC, size: 0x8, addend: 0x0, symName: __ZNSt3__14swapB8ne180100IN8nlohmann16json_abi_v3_11_36detail7value_tEEENS_9enable_ifIXaasr21is_move_constructibleIT_EE5valuesr18is_move_assignableIS6_EE5valueEvE4typeERS6_S9_, symObjAddr: 0x28AF0, symBinAddr: 0x10003343C, symSize: 0x3C }
  - { offset: 0x5B20E, size: 0x8, addend: 0x0, symName: __ZNSt3__14swapB8ne180100IN8nlohmann16json_abi_v3_11_310basic_jsonINS_3mapENS_6vectorENS_12basic_stringIcNS_11char_traitsIcEENS_9allocatorIcEEEEbxydS9_NS2_14adl_serializerENS5_IhNS9_IhEEEEvE10json_valueEEENS_9enable_ifIXaasr21is_move_constructibleIT_EE5valuesr18is_move_assignableISI_EE5valueEvE4typeERSI_SL_, symObjAddr: 0x28B2C, symBinAddr: 0x100033478, symSize: 0x3C }
  - { offset: 0x5B260, size: 0x8, addend: 0x0, symName: __ZNSt3__1ltB8ne180100IcNS_11char_traitsIcEENS_9allocatorIcEEEEbRKNS_12basic_stringIT_T0_T1_EEPKS6_, symObjAddr: 0x29870, symBinAddr: 0x1000341BC, symSize: 0x38 }
  - { offset: 0x5B2B8, size: 0x8, addend: 0x0, symName: __ZNSt3__1ltB8ne180100IcNS_11char_traitsIcEENS_9allocatorIcEEEEbPKT_RKNS_12basic_stringIS5_T0_T1_EE, symObjAddr: 0x298DC, symBinAddr: 0x100034228, symSize: 0x38 }
  - { offset: 0x5B310, size: 0x8, addend: 0x0, symName: __ZNSt3__116__constrain_hashB8ne180100Emm, symObjAddr: 0x2A044, symBinAddr: 0x10003495C, symSize: 0x98 }
  - { offset: 0x5B34A, size: 0x8, addend: 0x0, symName: __ZNSt3__116__do_string_hashB8ne180100IPKcEEmT_S3_, symObjAddr: 0x2A2D0, symBinAddr: 0x100034B78, symSize: 0x3C }
  - { offset: 0x5B390, size: 0x8, addend: 0x0, symName: __ZNSt3__110__loadwordB8ne180100ImEET_PKv, symObjAddr: 0x2ACCC, symBinAddr: 0x100035574, symSize: 0x20 }
  - { offset: 0x5B3D4, size: 0x8, addend: 0x0, symName: __ZNSt3__110__loadwordB8ne180100IjEET_PKv, symObjAddr: 0x2AEDC, symBinAddr: 0x100035784, symSize: 0x20 }
  - { offset: 0x5B418, size: 0x8, addend: 0x0, symName: __ZNSt3__1eqB8ne180100INS_9allocatorIcEEEEbRKNS_12basic_stringIcNS_11char_traitsIcEET_EES9_, symObjAddr: 0x2B1B8, symBinAddr: 0x100035A60, symSize: 0x148 }
  - { offset: 0x5B48B, size: 0x8, addend: 0x0, symName: __ZNSt3__17launderB8ne180100IKNS_4pairIKNS_12basic_stringIcNS_11char_traitsIcEENS_9allocatorIcEEEEP8BuildingEEEEPT_SE_, symObjAddr: 0x2B300, symBinAddr: 0x100035BA8, symSize: 0x24 }
  - { offset: 0x5B4C2, size: 0x8, addend: 0x0, symName: __ZNSt3__19__launderB8ne180100IKNS_4pairIKNS_12basic_stringIcNS_11char_traitsIcEENS_9allocatorIcEEEEP8BuildingEEEEPT_SE_, symObjAddr: 0x2B324, symBinAddr: 0x100035BCC, symSize: 0x14 }
  - { offset: 0x5B4F9, size: 0x8, addend: 0x0, symName: __ZNSt3__1neB8ne180100ERKNS_15__hash_iteratorIPNS_11__hash_nodeINS_17__hash_value_typeINS_12basic_stringIcNS_11char_traitsIcEENS_9allocatorIcEEEEP8BuildingEEPvEEEESH_, symObjAddr: 0x2B38C, symBinAddr: 0x100035BE0, symSize: 0x34 }
  - { offset: 0x5B536, size: 0x8, addend: 0x0, symName: __ZNSt3__1eqB8ne180100ERKNS_15__hash_iteratorIPNS_11__hash_nodeINS_17__hash_value_typeINS_12basic_stringIcNS_11char_traitsIcEENS_9allocatorIcEEEEP8BuildingEEPvEEEESH_, symObjAddr: 0x2B3C0, symBinAddr: 0x100035C14, symSize: 0x30 }
  - { offset: 0x5B573, size: 0x8, addend: 0x0, symName: __ZNSt3__116__is_hash_power2B8ne180100Em, symObjAddr: 0x2BB24, symBinAddr: 0x1000362C4, symSize: 0x50 }
  - { offset: 0x5B5BD, size: 0x8, addend: 0x0, symName: __ZNSt3__114__construct_atB8ne180100INS_11__hash_nodeINS_17__hash_value_typeINS_12basic_stringIcNS_11char_traitsIcEENS_9allocatorIcEEEEP8BuildingEEPvEEJDnRmEPSD_EEPT_SH_DpOT0_, symObjAddr: 0x2BDA8, symBinAddr: 0x1000364FC, symSize: 0x40 }
  - { offset: 0x5B623, size: 0x8, addend: 0x0, symName: __ZNSt3__116__next_hash_pow2B8ne180100Em, symObjAddr: 0x2C758, symBinAddr: 0x100036E50, symSize: 0x6C }
  - { offset: 0x5B64F, size: 0x8, addend: 0x0, symName: __ZNSt3__112__libcpp_clzB8ne180100Em, symObjAddr: 0x2CB00, symBinAddr: 0x100037014, symSize: 0x1C }
  - { offset: 0x5B67B, size: 0x8, addend: 0x0, symName: __ZNSt3__1eqB8ne180100ERKNS_14__map_iteratorINS_15__tree_iteratorINS_12__value_typeINS_12basic_stringIcNS_11char_traitsIcEENS_9allocatorIcEEEEN8nlohmann16json_abi_v3_11_310basic_jsonINS_3mapENS_6vectorES8_bxydS6_NSA_14adl_serializerENSD_IhNS6_IhEEEEvEEEEPNS_11__tree_nodeISI_PvEElEEEESQ_, symObjAddr: 0x2D5D0, symBinAddr: 0x100037950, symSize: 0x30 }
  - { offset: 0x5B6B8, size: 0x8, addend: 0x0, symName: __ZNSt3__19__advanceB8ne180100INS_14__map_iteratorINS_15__tree_iteratorINS_12__value_typeINS_12basic_stringIcNS_11char_traitsIcEENS_9allocatorIcEEEEN8nlohmann16json_abi_v3_11_310basic_jsonINS_3mapENS_6vectorES9_bxydS7_NSB_14adl_serializerENSE_IhNS7_IhEEEEvEEEEPNS_11__tree_nodeISJ_PvEElEEEEEEvRT_NS_15iterator_traitsISQ_E15difference_typeENS_26bidirectional_iterator_tagE, symObjAddr: 0x2D6C8, symBinAddr: 0x100037A48, symSize: 0xA4 }
  - { offset: 0x5B702, size: 0x8, addend: 0x0, symName: __ZNSt3__19__advanceB8ne180100INS_11__wrap_iterIPN8nlohmann16json_abi_v3_11_310basic_jsonINS_3mapENS_6vectorENS_12basic_stringIcNS_11char_traitsIcEENS_9allocatorIcEEEEbxydSA_NS3_14adl_serializerENS6_IhNSA_IhEEEEvEEEEEEvRT_NS_15iterator_traitsISJ_E15difference_typeENS_26random_access_iterator_tagE, symObjAddr: 0x2D7D0, symBinAddr: 0x100037B50, symSize: 0x2C }
  - { offset: 0x5B74C, size: 0x8, addend: 0x0, symName: __ZNSt3__119__allocate_at_leastB8ne180100INS_9allocatorINS_12basic_stringIcNS_11char_traitsIcEENS1_IcEEEEEEEENS_19__allocation_resultINS_16allocator_traitsIT_E7pointerEEERSA_m, symObjAddr: 0x35F2C, symBinAddr: 0x1000402AC, symSize: 0x40 }
  - { offset: 0x5B78F, size: 0x8, addend: 0x0, symName: __ZNSt3__142__uninitialized_allocator_move_if_noexceptB8ne180100INS_9allocatorINS_12basic_stringIcNS_11char_traitsIcEENS1_IcEEEEEENS_16reverse_iteratorIPS6_EESA_SA_EET2_RT_T0_T1_SB_, symObjAddr: 0x36088, symBinAddr: 0x100040408, symSize: 0x12C }
  - { offset: 0x5B82F, size: 0x8, addend: 0x0, symName: __ZNSt3__14swapB8ne180100IPNS_12basic_stringIcNS_11char_traitsIcEENS_9allocatorIcEEEEEENS_9enable_ifIXaasr21is_move_constructibleIT_EE5valuesr18is_move_assignableIS9_EE5valueEvE4typeERS9_SC_, symObjAddr: 0x36200, symBinAddr: 0x100040580, symSize: 0x3C }
  - { offset: 0x5B881, size: 0x8, addend: 0x0, symName: __ZNSt3__122__make_exception_guardB8ne180100INS_29_AllocatorDestroyRangeReverseINS_9allocatorINS_12basic_stringIcNS_11char_traitsIcEENS2_IcEEEEEENS_16reverse_iteratorIPS7_EEEEEENS_28__exception_guard_exceptionsIT_EESE_, symObjAddr: 0x36250, symBinAddr: 0x1000405D0, symSize: 0x4C }
  - { offset: 0x5B8B7, size: 0x8, addend: 0x0, symName: __ZNSt3__1neB8ne180100IPNS_12basic_stringIcNS_11char_traitsIcEENS_9allocatorIcEEEES7_EEbRKNS_16reverse_iteratorIT_EERKNS8_IT0_EE, symObjAddr: 0x362E0, symBinAddr: 0x100040660, symSize: 0x48 }
  - { offset: 0x5B903, size: 0x8, addend: 0x0, symName: __ZNSt3__112__to_addressB8ne180100INS_16reverse_iteratorIPNS_12basic_stringIcNS_11char_traitsIcEENS_9allocatorIcEEEEEEvEEu7__decayIDTclsr19__to_address_helperIT_EE6__callclsr3stdE7declvalIRKSA_EEEEESC_, symObjAddr: 0x36328, symBinAddr: 0x1000406A8, symSize: 0x24 }
  - { offset: 0x5B963, size: 0x8, addend: 0x0, symName: __ZNSt3__119__allocator_destroyB8ne180100INS_9allocatorINS_12basic_stringIcNS_11char_traitsIcEENS1_IcEEEEEENS_16reverse_iteratorINS8_IPS6_EEEESB_EEvRT_T0_T1_, symObjAddr: 0x365D8, symBinAddr: 0x100040958, symSize: 0x70 }
  - { offset: 0x5B9C8, size: 0x8, addend: 0x0, symName: __ZNSt3__1neB8ne180100INS_16reverse_iteratorIPNS_12basic_stringIcNS_11char_traitsIcEENS_9allocatorIcEEEEEES9_EEbRKNS1_IT_EERKNS1_IT0_EE, symObjAddr: 0x36684, symBinAddr: 0x100040A04, symSize: 0x60 }
  - { offset: 0x5BA14, size: 0x8, addend: 0x0, symName: __ZNSt3__112__to_addressB8ne180100INS_16reverse_iteratorINS1_IPNS_12basic_stringIcNS_11char_traitsIcEENS_9allocatorIcEEEEEEEEvEEu7__decayIDTclsr19__to_address_helperIT_EE6__callclsr3stdE7declvalIRKSB_EEEEESD_, symObjAddr: 0x366E4, symBinAddr: 0x100040A64, symSize: 0x24 }
  - { offset: 0x5CB4B, size: 0x8, addend: 0x0, symName: __ZN8nlohmann16json_abi_v3_11_36detail12static_constINS1_12from_json_fnEE5valueE, symObjAddr: 0x39E39, symBinAddr: 0x100046031, symSize: 0x0 }
  - { offset: 0x5DD47, size: 0x8, addend: 0x0, symName: __ZNSt3__16vectorIN8nlohmann16json_abi_v3_11_310basic_jsonINS_3mapES0_NS_12basic_stringIcNS_11char_traitsIcEENS_9allocatorIcEEEEbxydS8_NS2_14adl_serializerENS0_IhNS8_IhEEEEvEENS8_ISE_EEE26__swap_out_circular_bufferERNS_14__split_bufferISE_RSF_EE, symObjAddr: 0x5A58, symBinAddr: 0x10001133C, symSize: 0x110 }
  - { offset: 0x5DFCD, size: 0x8, addend: 0x0, symName: __ZNSt3__16vectorIcNS_9allocatorIcEEE26__swap_out_circular_bufferERNS_14__split_bufferIcRS2_EE, symObjAddr: 0x10E34, symBinAddr: 0x10001B780, symSize: 0x110 }
  - { offset: 0x5E332, size: 0x8, addend: 0x0, symName: __ZNSt3__16vectorIPN8nlohmann16json_abi_v3_11_310basic_jsonINS_3mapES0_NS_12basic_stringIcNS_11char_traitsIcEENS_9allocatorIcEEEEbxydS8_NS2_14adl_serializerENS0_IhNS8_IhEEEEvEENS8_ISF_EEE26__swap_out_circular_bufferERNS_14__split_bufferISF_RSG_EE, symObjAddr: 0x1A128, symBinAddr: 0x100024A74, symSize: 0x110 }
  - { offset: 0x5EAF6, size: 0x8, addend: 0x0, symName: __ZNSt3__16vectorINS_12basic_stringIcNS_11char_traitsIcEENS_9allocatorIcEEEENS4_IS6_EEE26__swap_out_circular_bufferERNS_14__split_bufferIS6_RS7_EE, symObjAddr: 0x35BF8, symBinAddr: 0x10003FF78, symSize: 0x110 }
  - { offset: 0x5EBC2, size: 0x8, addend: 0x0, symName: __Z30callPythonScriptAndProcessJSONRKNSt3__112basic_stringIcNS_11char_traitsIcEENS_9allocatorIcEEEERNS_13unordered_mapIS5_P8BuildingNS_4hashIS5_EENS_8equal_toIS5_EENS3_INS_4pairIS6_SA_EEEEEE, symObjAddr: 0x0, symBinAddr: 0x10000BD30, symSize: 0x7CC }
  - { offset: 0x5ECB4, size: 0x8, addend: 0x0, symName: __ZNKSt3__112basic_stringIcNS_11char_traitsIcEENS_9allocatorIcEEE5c_strB8ne180100Ev, symObjAddr: 0x95C, symBinAddr: 0x10000C658, symSize: 0x24 }
  - { offset: 0x5EEF2, size: 0x8, addend: 0x0, symName: __ZNSt3__110unique_ptrI7__sFILEPFiPS1_EEC1B8ne180100ILb1EvEES2_NS_16__dependent_typeINS_27__unique_ptr_deleter_sfinaeIS4_EEXT_EE20__good_rval_ref_typeE, symObjAddr: 0x980, symBinAddr: 0x10000C67C, symSize: 0x3C }
  - { offset: 0x5EF43, size: 0x8, addend: 0x0, symName: __ZNKSt3__110unique_ptrI7__sFILEPFiPS1_EEcvbB8ne180100Ev, symObjAddr: 0x9BC, symBinAddr: 0x10000C6B8, symSize: 0x34 }
  - { offset: 0x5EF69, size: 0x8, addend: 0x0, symName: __ZNKSt3__110unique_ptrI7__sFILEPFiPS1_EE3getB8ne180100Ev, symObjAddr: 0xABC, symBinAddr: 0x10000C734, symSize: 0x28 }
  - { offset: 0x5EF8F, size: 0x8, addend: 0x0, symName: __ZNSt3__112basic_stringIcNS_11char_traitsIcEENS_9allocatorIcEEEpLB8ne180100EPKc, symObjAddr: 0xAE4, symBinAddr: 0x10000C75C, symSize: 0x2C }
  - { offset: 0x5EFC4, size: 0x8, addend: 0x0, symName: __ZN8nlohmann16json_abi_v3_11_310basic_jsonINSt3__13mapENS2_6vectorENS2_12basic_stringIcNS2_11char_traitsIcEENS2_9allocatorIcEEEEbxydS8_NS0_14adl_serializerENS4_IhNS8_IhEEEEvEC1EDn, symObjAddr: 0xB5C, symBinAddr: 0x10000C788, symSize: 0x4C }
  - { offset: 0x5EFFA, size: 0x8, addend: 0x0, symName: __ZN8nlohmann16json_abi_v3_11_310basic_jsonINSt3__13mapENS2_6vectorENS2_12basic_stringIcNS2_11char_traitsIcEENS2_9allocatorIcEEEEbxydS8_NS0_14adl_serializerENS4_IhNS8_IhEEEEvE5parseIRSA_EESE_OT_NS2_8functionIFbiNS0_6detail13parse_event_tERSE_EEEbb, symObjAddr: 0xBA8, symBinAddr: 0x10000C7D4, symSize: 0x1A4 }
  - { offset: 0x5F06A, size: 0x8, addend: 0x0, symName: __ZNSt3__18functionIFbiN8nlohmann16json_abi_v3_11_36detail13parse_event_tERNS2_10basic_jsonINS_3mapENS_6vectorENS_12basic_stringIcNS_11char_traitsIcEENS_9allocatorIcEEEEbxydSB_NS2_14adl_serializerENS7_IhNSB_IhEEEEvEEEEC1B8ne180100EDn, symObjAddr: 0xD4C, symBinAddr: 0x10000C978, symSize: 0x34 }
  - { offset: 0x5F0A0, size: 0x8, addend: 0x0, symName: __ZN8nlohmann16json_abi_v3_11_310basic_jsonINSt3__13mapENS2_6vectorENS2_12basic_stringIcNS2_11char_traitsIcEENS2_9allocatorIcEEEEbxydS8_NS0_14adl_serializerENS4_IhNS8_IhEEEEvEaSESE_, symObjAddr: 0xD80, symBinAddr: 0x10000C9AC, symSize: 0x80 }
  - { offset: 0x5F0D6, size: 0x8, addend: 0x0, symName: __ZN8nlohmann16json_abi_v3_11_310basic_jsonINSt3__13mapENS2_6vectorENS2_12basic_stringIcNS2_11char_traitsIcEENS2_9allocatorIcEEEEbxydS8_NS0_14adl_serializerENS4_IhNS8_IhEEEEvED1Ev, symObjAddr: 0xE00, symBinAddr: 0x10000CA2C, symSize: 0x2C }
  - { offset: 0x5F100, size: 0x8, addend: 0x0, symName: __ZNSt3__18functionIFbiN8nlohmann16json_abi_v3_11_36detail13parse_event_tERNS2_10basic_jsonINS_3mapENS_6vectorENS_12basic_stringIcNS_11char_traitsIcEENS_9allocatorIcEEEEbxydSB_NS2_14adl_serializerENS7_IhNSB_IhEEEEvEEEED1Ev, symObjAddr: 0xE2C, symBinAddr: 0x10000CA58, symSize: 0x2C }
  - { offset: 0x5F12C, size: 0x8, addend: 0x0, symName: __ZNK8nlohmann16json_abi_v3_11_310basic_jsonINSt3__13mapENS2_6vectorENS2_12basic_stringIcNS2_11char_traitsIcEENS2_9allocatorIcEEEEbxydS8_NS0_14adl_serializerENS4_IhNS8_IhEEEEvE8is_arrayEv, symObjAddr: 0xE68, symBinAddr: 0x10000CA84, symSize: 0x24 }
  - { offset: 0x5F152, size: 0x8, addend: 0x0, symName: __ZNK8nlohmann16json_abi_v3_11_310basic_jsonINSt3__13mapENS2_6vectorENS2_12basic_stringIcNS2_11char_traitsIcEENS2_9allocatorIcEEEEbxydS8_NS0_14adl_serializerENS4_IhNS8_IhEEEEvE5emptyEv, symObjAddr: 0xE8C, symBinAddr: 0x10000CAA8, symSize: 0xCC }
  - { offset: 0x5F177, size: 0x8, addend: 0x0, symName: __Z12readJsonFileRKN8nlohmann16json_abi_v3_11_310basic_jsonINSt3__13mapENS2_6vectorENS2_12basic_stringIcNS2_11char_traitsIcEENS2_9allocatorIcEEEEbxydS8_NS0_14adl_serializerENS4_IhNS8_IhEEEEvEEPNS2_13unordered_mapISA_P8BuildingNS2_4hashISA_EENS2_8equal_toISA_EENS8_INS2_4pairIKSA_SJ_EEEEEE, symObjAddr: 0xF80, symBinAddr: 0x10000CB9C, symSize: 0x3D4 }
  - { offset: 0x5F24B, size: 0x8, addend: 0x0, symName: __ZNSt3__110unique_ptrI7__sFILEPFiPS1_EED1B8ne180100Ev, symObjAddr: 0x1354, symBinAddr: 0x10000CF70, symSize: 0x2C }
  - { offset: 0x5F275, size: 0x8, addend: 0x0, symName: __ZNK8nlohmann16json_abi_v3_11_310basic_jsonINSt3__13mapENS2_6vectorENS2_12basic_stringIcNS2_11char_traitsIcEENS2_9allocatorIcEEEEbxydS8_NS0_14adl_serializerENS4_IhNS8_IhEEEEvEixEm, symObjAddr: 0x1380, symBinAddr: 0x10000CF9C, symSize: 0x11C }
  - { offset: 0x5F2DC, size: 0x8, addend: 0x0, symName: __ZNK8nlohmann16json_abi_v3_11_310basic_jsonINSt3__13mapENS2_6vectorENS2_12basic_stringIcNS2_11char_traitsIcEENS2_9allocatorIcEEEEbxydS8_NS0_14adl_serializerENS4_IhNS8_IhEEEEvE5valueIRA4_KcRA9_SG_SA_Li0EEET1_OT0_OT_, symObjAddr: 0x149C, symBinAddr: 0x10000D0B8, symSize: 0x174 }
  - { offset: 0x5F40D, size: 0x8, addend: 0x0, symName: __ZNSt3__113unordered_mapINS_12basic_stringIcNS_11char_traitsIcEENS_9allocatorIcEEEEP8BuildingNS_4hashIS6_EENS_8equal_toIS6_EENS4_INS_4pairIKS6_S8_EEEEE4findB8ne180100ERSE_, symObjAddr: 0x1610, symBinAddr: 0x10000D22C, symSize: 0x40 }
  - { offset: 0x5F442, size: 0x8, addend: 0x0, symName: __ZNSt3__113unordered_mapINS_12basic_stringIcNS_11char_traitsIcEENS_9allocatorIcEEEEP8BuildingNS_4hashIS6_EENS_8equal_toIS6_EENS4_INS_4pairIKS6_S8_EEEEE3endB8ne180100Ev, symObjAddr: 0x1680, symBinAddr: 0x10000D29C, symSize: 0x38 }
  - { offset: 0x5F468, size: 0x8, addend: 0x0, symName: __ZNSt3__113unordered_mapINS_12basic_stringIcNS_11char_traitsIcEENS_9allocatorIcEEEEP8BuildingNS_4hashIS6_EENS_8equal_toIS6_EENS4_INS_4pairIKS6_S8_EEEEEixERSE_, symObjAddr: 0x16E4, symBinAddr: 0x10000D2D4, symSize: 0x80 }
  - { offset: 0x5F4B8, size: 0x8, addend: 0x0, symName: __ZNK8nlohmann16json_abi_v3_11_310basic_jsonINSt3__13mapENS2_6vectorENS2_12basic_stringIcNS2_11char_traitsIcEENS2_9allocatorIcEEEEbxydS8_NS0_14adl_serializerENS4_IhNS8_IhEEEEvE5valueIRA4_KcRA8_SG_SA_Li0EEET1_OT0_OT_, symObjAddr: 0x1764, symBinAddr: 0x10000D354, symSize: 0x174 }
  - { offset: 0x5F53A, size: 0x8, addend: 0x0, symName: __ZNKSt3__113unordered_mapINS_12basic_stringIcNS_11char_traitsIcEENS_9allocatorIcEEEEP8BuildingNS_4hashIS6_EENS_8equal_toIS6_EENS4_INS_4pairIKS6_S8_EEEEE4sizeB8ne180100Ev, symObjAddr: 0x18D8, symBinAddr: 0x10000D4C8, symSize: 0x24 }
  - { offset: 0x5F560, size: 0x8, addend: 0x0, symName: __ZNK8nlohmann16json_abi_v3_11_310basic_jsonINSt3__13mapENS2_6vectorENS2_12basic_stringIcNS2_11char_traitsIcEENS2_9allocatorIcEEEEbxydS8_NS0_14adl_serializerENS4_IhNS8_IhEEEEvE5beginEv, symObjAddr: 0x18FC, symBinAddr: 0x10000D4EC, symSize: 0x2C }
  - { offset: 0x5F586, size: 0x8, addend: 0x0, symName: __ZNK8nlohmann16json_abi_v3_11_310basic_jsonINSt3__13mapENS2_6vectorENS2_12basic_stringIcNS2_11char_traitsIcEENS2_9allocatorIcEEEEbxydS8_NS0_14adl_serializerENS4_IhNS8_IhEEEEvE3endEv, symObjAddr: 0x1928, symBinAddr: 0x10000D518, symSize: 0x2C }
  - { offset: 0x5F5AC, size: 0x8, addend: 0x0, symName: __ZNK8nlohmann16json_abi_v3_11_36detail9iter_implIKNS0_10basic_jsonINSt3__13mapENS4_6vectorENS4_12basic_stringIcNS4_11char_traitsIcEENS4_9allocatorIcEEEEbxydSA_NS0_14adl_serializerENS6_IhNSA_IhEEEEvEEEneISI_LDn0EEEbRKT_, symObjAddr: 0x1954, symBinAddr: 0x10000D544, symSize: 0x34 }
  - { offset: 0x5F5F1, size: 0x8, addend: 0x0, symName: __ZNK8nlohmann16json_abi_v3_11_36detail9iter_implIKNS0_10basic_jsonINSt3__13mapENS4_6vectorENS4_12basic_stringIcNS4_11char_traitsIcEENS4_9allocatorIcEEEEbxydSA_NS0_14adl_serializerENS6_IhNSA_IhEEEEvEEEdeEv, symObjAddr: 0x1988, symBinAddr: 0x10000D578, symSize: 0x32C }
  - { offset: 0x5F617, size: 0x8, addend: 0x0, symName: __ZNK8nlohmann16json_abi_v3_11_310basic_jsonINSt3__13mapENS2_6vectorENS2_12basic_stringIcNS2_11char_traitsIcEENS2_9allocatorIcEEEEbxydS8_NS0_14adl_serializerENS4_IhNS8_IhEEEEvE9is_objectEv, symObjAddr: 0x1CDC, symBinAddr: 0x10000D8CC, symSize: 0x24 }
  - { offset: 0x5F63C, size: 0x8, addend: 0x0, symName: __Z11processEachRKN8nlohmann16json_abi_v3_11_310basic_jsonINSt3__13mapENS2_6vectorENS2_12basic_stringIcNS2_11char_traitsIcEENS2_9allocatorIcEEEEbxydS8_NS0_14adl_serializerENS4_IhNS8_IhEEEEvEEP4Room, symObjAddr: 0x1D00, symBinAddr: 0x10000D8F0, symSize: 0x284 }
  - { offset: 0x5F72A, size: 0x8, addend: 0x0, symName: __ZN8nlohmann16json_abi_v3_11_36detail9iter_implIKNS0_10basic_jsonINSt3__13mapENS4_6vectorENS4_12basic_stringIcNS4_11char_traitsIcEENS4_9allocatorIcEEEEbxydSA_NS0_14adl_serializerENS6_IhNSA_IhEEEEvEEEppEv, symObjAddr: 0x1F84, symBinAddr: 0x10000DB74, symSize: 0xE0 }
  - { offset: 0x5F74F, size: 0x8, addend: 0x0, symName: __Z12readJsonFileRKNSt3__112basic_stringIcNS_11char_traitsIcEENS_9allocatorIcEEEEPNS_13unordered_mapIS5_P8BuildingNS_4hashIS5_EENS_8equal_toIS5_EENS3_INS_4pairIS6_SA_EEEEEE, symObjAddr: 0x208C, symBinAddr: 0x10000DC7C, symSize: 0x5A4 }
  - { offset: 0x5F930, size: 0x8, addend: 0x0, symName: __ZNSt3__114basic_ifstreamIcNS_11char_traitsIcEEEC1ERKNS_12basic_stringIcS2_NS_9allocatorIcEEEEj, symObjAddr: 0x2630, symBinAddr: 0x10000E220, symSize: 0x164 }
  - { offset: 0x5F97A, size: 0x8, addend: 0x0, symName: __ZNKSt3__114basic_ifstreamIcNS_11char_traitsIcEEE7is_openEv, symObjAddr: 0x2794, symBinAddr: 0x10000E384, symSize: 0x2C }
  - { offset: 0x5F9A2, size: 0x8, addend: 0x0, symName: __ZNSt3__114basic_ifstreamIcNS_11char_traitsIcEEE5closeEv, symObjAddr: 0x28F4, symBinAddr: 0x10000E4E4, symSize: 0x58 }
  - { offset: 0x5F9CA, size: 0x8, addend: 0x0, symName: __ZN8nlohmann16json_abi_v3_11_310basic_jsonINSt3__13mapENS2_6vectorENS2_12basic_stringIcNS2_11char_traitsIcEENS2_9allocatorIcEEEEbxydS8_NS0_14adl_serializerENS4_IhNS8_IhEEEEvEixEm, symObjAddr: 0x294C, symBinAddr: 0x10000E53C, symSize: 0x1A8 }
  - { offset: 0x5F9FF, size: 0x8, addend: 0x0, symName: __ZN8nlohmann16json_abi_v3_11_310basic_jsonINSt3__13mapENS2_6vectorENS2_12basic_stringIcNS2_11char_traitsIcEENS2_9allocatorIcEEEEbxydS8_NS0_14adl_serializerENS4_IhNS8_IhEEEEvE5beginEv, symObjAddr: 0x2AF4, symBinAddr: 0x10000E6E4, symSize: 0x40 }
  - { offset: 0x5FA35, size: 0x8, addend: 0x0, symName: __ZN8nlohmann16json_abi_v3_11_310basic_jsonINSt3__13mapENS2_6vectorENS2_12basic_stringIcNS2_11char_traitsIcEENS2_9allocatorIcEEEEbxydS8_NS0_14adl_serializerENS4_IhNS8_IhEEEEvE3endEv, symObjAddr: 0x2B34, symBinAddr: 0x10000E724, symSize: 0x40 }
  - { offset: 0x5FA6B, size: 0x8, addend: 0x0, symName: __ZNK8nlohmann16json_abi_v3_11_36detail9iter_implINS0_10basic_jsonINSt3__13mapENS4_6vectorENS4_12basic_stringIcNS4_11char_traitsIcEENS4_9allocatorIcEEEEbxydSA_NS0_14adl_serializerENS6_IhNSA_IhEEEEvEEEneISH_LDn0EEEbRKT_, symObjAddr: 0x2B74, symBinAddr: 0x10000E764, symSize: 0x34 }
  - { offset: 0x5FAB0, size: 0x8, addend: 0x0, symName: __ZNK8nlohmann16json_abi_v3_11_36detail9iter_implINS0_10basic_jsonINSt3__13mapENS4_6vectorENS4_12basic_stringIcNS4_11char_traitsIcEENS4_9allocatorIcEEEEbxydSA_NS0_14adl_serializerENS6_IhNSA_IhEEEEvEEEdeEv, symObjAddr: 0x2BA8, symBinAddr: 0x10000E798, symSize: 0x32C }
  - { offset: 0x5FAD6, size: 0x8, addend: 0x0, symName: __ZN8nlohmann16json_abi_v3_11_36detail9iter_implINS0_10basic_jsonINSt3__13mapENS4_6vectorENS4_12basic_stringIcNS4_11char_traitsIcEENS4_9allocatorIcEEEEbxydSA_NS0_14adl_serializerENS6_IhNSA_IhEEEEvEEEppEv, symObjAddr: 0x2EFC, symBinAddr: 0x10000EAEC, symSize: 0xE0 }
  - { offset: 0x5FB01, size: 0x8, addend: 0x0, symName: __ZNSt3__114basic_ifstreamIcNS_11char_traitsIcEEED1Ev, symObjAddr: 0x3004, symBinAddr: 0x10000EBF4, symSize: 0x40 }
  - { offset: 0x5FB2D, size: 0x8, addend: 0x0, symName: __Z25callPythonScriptWithInputRKNSt3__112basic_stringIcNS_11char_traitsIcEENS_9allocatorIcEEEE, symObjAddr: 0x3044, symBinAddr: 0x10000EC34, symSize: 0x27C }
  - { offset: 0x5FBB1, size: 0x8, addend: 0x0, symName: __ZNK8nlohmann16json_abi_v3_11_310basic_jsonINSt3__13mapENS2_6vectorENS2_12basic_stringIcNS2_11char_traitsIcEENS2_9allocatorIcEEEEbxydS8_NS0_14adl_serializerENS4_IhNS8_IhEEEEvE5valueIRA4_KcRA10_SG_SA_Li0EEET1_OT0_OT_, symObjAddr: 0x3300, symBinAddr: 0x10000EEF0, symSize: 0x174 }
  - { offset: 0x5FC4C, size: 0x8, addend: 0x0, symName: __ZNK8nlohmann16json_abi_v3_11_310basic_jsonINSt3__13mapENS2_6vectorENS2_12basic_stringIcNS2_11char_traitsIcEENS2_9allocatorIcEEEEbxydS8_NS0_14adl_serializerENS4_IhNS8_IhEEEEvE5valueIRA4_KcRA13_SG_SA_Li0EEET1_OT0_OT_, symObjAddr: 0x3474, symBinAddr: 0x10000F064, symSize: 0x174 }
  - { offset: 0x5FCCD, size: 0x8, addend: 0x0, symName: __Z12timeToDoubleRKNSt3__112basic_stringIcNS_11char_traitsIcEENS_9allocatorIcEEEE, symObjAddr: 0x35E8, symBinAddr: 0x10000F1D8, symSize: 0x24C }
  - { offset: 0x5FD68, size: 0x8, addend: 0x0, symName: __Z18daysOfWeekToStringRKNSt3__112basic_stringIcNS_11char_traitsIcEENS_9allocatorIcEEEE, symObjAddr: 0x3834, symBinAddr: 0x10000F424, symSize: 0x328 }
  - { offset: 0x5FDF8, size: 0x8, addend: 0x0, symName: __ZNSt3__16vectorINS_12basic_stringIcNS_11char_traitsIcEENS_9allocatorIcEEEENS4_IS6_EEE5beginB8ne180100Ev, symObjAddr: 0x3C3C, symBinAddr: 0x10000F82C, symSize: 0x30 }
  - { offset: 0x5FE20, size: 0x8, addend: 0x0, symName: __ZNSt3__16vectorINS_12basic_stringIcNS_11char_traitsIcEENS_9allocatorIcEEEENS4_IS6_EEE3endB8ne180100Ev, symObjAddr: 0x3C6C, symBinAddr: 0x10000F85C, symSize: 0x30 }
  - { offset: 0x5FE48, size: 0x8, addend: 0x0, symName: __ZNKSt3__111__wrap_iterIPNS_12basic_stringIcNS_11char_traitsIcEENS_9allocatorIcEEEEEdeB8ne180100Ev, symObjAddr: 0x3CD0, symBinAddr: 0x10000F8C0, symSize: 0x18 }
  - { offset: 0x5FE6E, size: 0x8, addend: 0x0, symName: __ZNSt3__111__wrap_iterIPNS_12basic_stringIcNS_11char_traitsIcEENS_9allocatorIcEEEEEppB8ne180100Ev, symObjAddr: 0x3CE8, symBinAddr: 0x10000F8D8, symSize: 0x20 }
  - { offset: 0x5FE94, size: 0x8, addend: 0x0, symName: __ZNSt3__16vectorINS_12basic_stringIcNS_11char_traitsIcEENS_9allocatorIcEEEENS4_IS6_EEED1B8ne180100Ev, symObjAddr: 0x3D08, symBinAddr: 0x10000F8F8, symSize: 0x2C }
  - { offset: 0x5FF25, size: 0x8, addend: 0x0, symName: __ZNSt3__118basic_stringstreamIcNS_11char_traitsIcEENS_9allocatorIcEEEC1B8ne180100ERKNS_12basic_stringIcS2_S4_EEj, symObjAddr: 0x3D34, symBinAddr: 0x10000F924, symSize: 0x100 }
  - { offset: 0x5FF6D, size: 0x8, addend: 0x0, symName: __ZNKSt3__19basic_iosIcNS_11char_traitsIcEEEcvbB8ne180100Ev, symObjAddr: 0x3FC4, symBinAddr: 0x10000FBB4, symSize: 0x2C }
  - { offset: 0x5FF98, size: 0x8, addend: 0x0, symName: __ZNSt3__118basic_stringstreamIcNS_11char_traitsIcEENS_9allocatorIcEEED1Ev, symObjAddr: 0x3FF0, symBinAddr: 0x10000FBE0, symSize: 0x40 }
  - { offset: 0x5FFC5, size: 0x8, addend: 0x0, symName: __ZNSt3__16vectorINS_12basic_stringIcNS_11char_traitsIcEENS_9allocatorIcEEEENS4_IS6_EEEC1B8ne180100Ev, symObjAddr: 0x4030, symBinAddr: 0x10000FC20, symSize: 0x2C }
  - { offset: 0x5FFEF, size: 0x8, addend: 0x0, symName: __ZNKSt3__112basic_stringIcNS_11char_traitsIcEENS_9allocatorIcEEE5beginB8ne180100Ev, symObjAddr: 0x405C, symBinAddr: 0x10000FC4C, symSize: 0x4C }
  - { offset: 0x60015, size: 0x8, addend: 0x0, symName: __ZNKSt3__112basic_stringIcNS_11char_traitsIcEENS_9allocatorIcEEE3endB8ne180100Ev, symObjAddr: 0x40A8, symBinAddr: 0x10000FC98, symSize: 0x54 }
  - { offset: 0x6003B, size: 0x8, addend: 0x0, symName: __ZNKSt3__111__wrap_iterIPKcEdeB8ne180100Ev, symObjAddr: 0x4130, symBinAddr: 0x10000FD20, symSize: 0x18 }
  - { offset: 0x60061, size: 0x8, addend: 0x0, symName: __ZNSt3__16vectorINS_12basic_stringIcNS_11char_traitsIcEENS_9allocatorIcEEEENS4_IS6_EEE9push_backB8ne180100EOS6_, symObjAddr: 0x4148, symBinAddr: 0x10000FD38, symSize: 0x90 }
  - { offset: 0x600A7, size: 0x8, addend: 0x0, symName: __ZNSt3__111__wrap_iterIPKcEppB8ne180100Ev, symObjAddr: 0x41D8, symBinAddr: 0x10000FDC8, symSize: 0x20 }
  - { offset: 0x600CD, size: 0x8, addend: 0x0, symName: __ZNSt3__114basic_ifstreamIcNS_11char_traitsIcEEED2Ev, symObjAddr: 0x41F8, symBinAddr: 0x10000FDE8, symSize: 0x64 }
  - { offset: 0x60107, size: 0x8, addend: 0x0, symName: __ZTv0_n24_NSt3__114basic_ifstreamIcNS_11char_traitsIcEEED1Ev, symObjAddr: 0x425C, symBinAddr: 0x10000FE4C, symSize: 0x28 }
  - { offset: 0x6011E, size: 0x8, addend: 0x0, symName: __ZNKSt3__111__wrap_iterIPNS_12basic_stringIcNS_11char_traitsIcEENS_9allocatorIcEEEEE4baseB8ne180100Ev, symObjAddr: 0x42CC, symBinAddr: 0x10000FEBC, symSize: 0x18 }
  - { offset: 0x60144, size: 0x8, addend: 0x0, symName: __ZNSt3__118basic_stringstreamIcNS_11char_traitsIcEENS_9allocatorIcEEED2Ev, symObjAddr: 0x42E4, symBinAddr: 0x10000FED4, symSize: 0x6C }
  - { offset: 0x6017E, size: 0x8, addend: 0x0, symName: __ZThn16_NSt3__118basic_stringstreamIcNS_11char_traitsIcEENS_9allocatorIcEEED1Ev, symObjAddr: 0x4350, symBinAddr: 0x10000FF40, symSize: 0x1C }
  - { offset: 0x60195, size: 0x8, addend: 0x0, symName: __ZTv0_n24_NSt3__118basic_stringstreamIcNS_11char_traitsIcEENS_9allocatorIcEEED1Ev, symObjAddr: 0x436C, symBinAddr: 0x10000FF5C, symSize: 0x28 }
  - { offset: 0x601B1, size: 0x8, addend: 0x0, symName: __ZNSt3__115basic_stringbufIcNS_11char_traitsIcEENS_9allocatorIcEEED1Ev, symObjAddr: 0x4394, symBinAddr: 0x10000FF84, symSize: 0x2C }
  - { offset: 0x601DE, size: 0x8, addend: 0x0, symName: __ZNSt3__115basic_stringbufIcNS_11char_traitsIcEENS_9allocatorIcEEED2Ev, symObjAddr: 0x43C0, symBinAddr: 0x10000FFB0, symSize: 0x48 }
  - { offset: 0x6020B, size: 0x8, addend: 0x0, symName: __ZNKSt3__111__wrap_iterIPKcE4baseB8ne180100Ev, symObjAddr: 0x4450, symBinAddr: 0x100010040, symSize: 0x18 }
  - { offset: 0x60237, size: 0x8, addend: 0x0, symName: __ZNSt3__18functionIFbiN8nlohmann16json_abi_v3_11_36detail13parse_event_tERNS2_10basic_jsonINS_3mapENS_6vectorENS_12basic_stringIcNS_11char_traitsIcEENS_9allocatorIcEEEEbxydSB_NS2_14adl_serializerENS7_IhNSB_IhEEEEvEEEEC2B8ne180100EDn, symObjAddr: 0x4774, symBinAddr: 0x100010058, symSize: 0x30 }
  - { offset: 0x6026D, size: 0x8, addend: 0x0, symName: __ZNSt3__110__function12__value_funcIFbiN8nlohmann16json_abi_v3_11_36detail13parse_event_tERNS3_10basic_jsonINS_3mapENS_6vectorENS_12basic_stringIcNS_11char_traitsIcEENS_9allocatorIcEEEEbxydSC_NS3_14adl_serializerENS8_IhNSC_IhEEEEvEEEEC1B8ne180100Ev, symObjAddr: 0x47A4, symBinAddr: 0x100010088, symSize: 0x2C }
  - { offset: 0x60297, size: 0x8, addend: 0x0, symName: __ZNSt3__110__function12__value_funcIFbiN8nlohmann16json_abi_v3_11_36detail13parse_event_tERNS3_10basic_jsonINS_3mapENS_6vectorENS_12basic_stringIcNS_11char_traitsIcEENS_9allocatorIcEEEEbxydSC_NS3_14adl_serializerENS8_IhNSC_IhEEEEvEEEEC2B8ne180100Ev, symObjAddr: 0x47D0, symBinAddr: 0x1000100B4, symSize: 0x18 }
  - { offset: 0x602C1, size: 0x8, addend: 0x0, symName: __ZNSt3__18functionIFbiN8nlohmann16json_abi_v3_11_36detail13parse_event_tERNS2_10basic_jsonINS_3mapENS_6vectorENS_12basic_stringIcNS_11char_traitsIcEENS_9allocatorIcEEEEbxydSB_NS2_14adl_serializerENS7_IhNSB_IhEEEEvEEEED2Ev, symObjAddr: 0x47E8, symBinAddr: 0x1000100CC, symSize: 0x2C }
  - { offset: 0x602ED, size: 0x8, addend: 0x0, symName: __ZNSt3__110__function12__value_funcIFbiN8nlohmann16json_abi_v3_11_36detail13parse_event_tERNS3_10basic_jsonINS_3mapENS_6vectorENS_12basic_stringIcNS_11char_traitsIcEENS_9allocatorIcEEEEbxydSC_NS3_14adl_serializerENS8_IhNSC_IhEEEEvEEEED1B8ne180100Ev, symObjAddr: 0x4814, symBinAddr: 0x1000100F8, symSize: 0x2C }
  - { offset: 0x60317, size: 0x8, addend: 0x0, symName: __ZNSt3__110__function12__value_funcIFbiN8nlohmann16json_abi_v3_11_36detail13parse_event_tERNS3_10basic_jsonINS_3mapENS_6vectorENS_12basic_stringIcNS_11char_traitsIcEENS_9allocatorIcEEEEbxydSC_NS3_14adl_serializerENS8_IhNSC_IhEEEEvEEEED2B8ne180100Ev, symObjAddr: 0x4840, symBinAddr: 0x100010124, symSize: 0x90 }
  - { offset: 0x60341, size: 0x8, addend: 0x0, symName: __ZN8nlohmann16json_abi_v3_11_310basic_jsonINSt3__13mapENS2_6vectorENS2_12basic_stringIcNS2_11char_traitsIcEENS2_9allocatorIcEEEEbxydS8_NS0_14adl_serializerENS4_IhNS8_IhEEEEvED2Ev, symObjAddr: 0x48D0, symBinAddr: 0x1000101B4, symSize: 0x3C }
  - { offset: 0x6036B, size: 0x8, addend: 0x0, symName: __ZNK8nlohmann16json_abi_v3_11_310basic_jsonINSt3__13mapENS2_6vectorENS2_12basic_stringIcNS2_11char_traitsIcEENS2_9allocatorIcEEEEbxydS8_NS0_14adl_serializerENS4_IhNS8_IhEEEEvE16assert_invariantEb, symObjAddr: 0x490C, symBinAddr: 0x1000101F0, symSize: 0x1F0 }
  - { offset: 0x603A0, size: 0x8, addend: 0x0, symName: __ZN8nlohmann16json_abi_v3_11_310basic_jsonINSt3__13mapENS2_6vectorENS2_12basic_stringIcNS2_11char_traitsIcEENS2_9allocatorIcEEEEbxydS8_NS0_14adl_serializerENS4_IhNS8_IhEEEEvE4dataD1Ev, symObjAddr: 0x4AFC, symBinAddr: 0x1000103E0, symSize: 0x2C }
  - { offset: 0x603CA, size: 0x8, addend: 0x0, symName: __ZN8nlohmann16json_abi_v3_11_310basic_jsonINSt3__13mapENS2_6vectorENS2_12basic_stringIcNS2_11char_traitsIcEENS2_9allocatorIcEEEEbxydS8_NS0_14adl_serializerENS4_IhNS8_IhEEEEvE4dataD2Ev, symObjAddr: 0x4B28, symBinAddr: 0x10001040C, symSize: 0x3C }
  - { offset: 0x603F4, size: 0x8, addend: 0x0, symName: __ZN8nlohmann16json_abi_v3_11_310basic_jsonINSt3__13mapENS2_6vectorENS2_12basic_stringIcNS2_11char_traitsIcEENS2_9allocatorIcEEEEbxydS8_NS0_14adl_serializerENS4_IhNS8_IhEEEEvE10json_value7destroyENS0_6detail7value_tE, symObjAddr: 0x4B64, symBinAddr: 0x100010448, symSize: 0x518 }
  - { offset: 0x6057A, size: 0x8, addend: 0x0, symName: __ZNSt3__16vectorIN8nlohmann16json_abi_v3_11_310basic_jsonINS_3mapES0_NS_12basic_stringIcNS_11char_traitsIcEENS_9allocatorIcEEEEbxydS8_NS2_14adl_serializerENS0_IhNS8_IhEEEEvEENS8_ISE_EEEC1B8ne180100Ev, symObjAddr: 0x50A4, symBinAddr: 0x100010988, symSize: 0x2C }
  - { offset: 0x605A4, size: 0x8, addend: 0x0, symName: __ZNSt3__16vectorIN8nlohmann16json_abi_v3_11_310basic_jsonINS_3mapES0_NS_12basic_stringIcNS_11char_traitsIcEENS_9allocatorIcEEEEbxydS8_NS2_14adl_serializerENS0_IhNS8_IhEEEEvEENS8_ISE_EEE7reserveEm, symObjAddr: 0x50D0, symBinAddr: 0x1000109B4, symSize: 0xE8 }
  - { offset: 0x60601, size: 0x8, addend: 0x0, symName: __ZNKSt3__16vectorIN8nlohmann16json_abi_v3_11_310basic_jsonINS_3mapES0_NS_12basic_stringIcNS_11char_traitsIcEENS_9allocatorIcEEEEbxydS8_NS2_14adl_serializerENS0_IhNS8_IhEEEEvEENS8_ISE_EEE4sizeB8ne180100Ev, symObjAddr: 0x51B8, symBinAddr: 0x100010A9C, symSize: 0x28 }
  - { offset: 0x60627, size: 0x8, addend: 0x0, symName: __ZNSt3__16vectorIN8nlohmann16json_abi_v3_11_310basic_jsonINS_3mapES0_NS_12basic_stringIcNS_11char_traitsIcEENS_9allocatorIcEEEEbxydS8_NS2_14adl_serializerENS0_IhNS8_IhEEEEvEENS8_ISE_EEE5beginB8ne180100Ev, symObjAddr: 0x5240, symBinAddr: 0x100010B24, symSize: 0x30 }
  - { offset: 0x6064F, size: 0x8, addend: 0x0, symName: __ZNSt3__16vectorIN8nlohmann16json_abi_v3_11_310basic_jsonINS_3mapES0_NS_12basic_stringIcNS_11char_traitsIcEENS_9allocatorIcEEEEbxydS8_NS2_14adl_serializerENS0_IhNS8_IhEEEEvEENS8_ISE_EEE3endB8ne180100Ev, symObjAddr: 0x5270, symBinAddr: 0x100010B54, symSize: 0x30 }
  - { offset: 0x60677, size: 0x8, addend: 0x0, symName: __ZNKSt3__13mapINS_12basic_stringIcNS_11char_traitsIcEENS_9allocatorIcEEEEN8nlohmann16json_abi_v3_11_310basic_jsonIS0_NS_6vectorES6_bxydS4_NS8_14adl_serializerENSA_IhNS4_IhEEEEvEENS_4lessIvEENS4_INS_4pairIKS6_SE_EEEEE4sizeB8ne180100Ev, symObjAddr: 0x52CC, symBinAddr: 0x100010BB0, symSize: 0x28 }
  - { offset: 0x6069D, size: 0x8, addend: 0x0, symName: __ZNSt3__13mapINS_12basic_stringIcNS_11char_traitsIcEENS_9allocatorIcEEEEN8nlohmann16json_abi_v3_11_310basic_jsonIS0_NS_6vectorES6_bxydS4_NS8_14adl_serializerENSA_IhNS4_IhEEEEvEENS_4lessIvEENS4_INS_4pairIKS6_SE_EEEEE5beginB8ne180100Ev, symObjAddr: 0x52F4, symBinAddr: 0x100010BD8, symSize: 0x38 }
  - { offset: 0x606C3, size: 0x8, addend: 0x0, symName: __ZNSt3__13mapINS_12basic_stringIcNS_11char_traitsIcEENS_9allocatorIcEEEEN8nlohmann16json_abi_v3_11_310basic_jsonIS0_NS_6vectorES6_bxydS4_NS8_14adl_serializerENSA_IhNS4_IhEEEEvEENS_4lessIvEENS4_INS_4pairIKS6_SE_EEEEE3endB8ne180100Ev, symObjAddr: 0x532C, symBinAddr: 0x100010C10, symSize: 0x38 }
  - { offset: 0x606E9, size: 0x8, addend: 0x0, symName: __ZNKSt3__114__map_iteratorINS_15__tree_iteratorINS_12__value_typeINS_12basic_stringIcNS_11char_traitsIcEENS_9allocatorIcEEEEN8nlohmann16json_abi_v3_11_310basic_jsonINS_3mapENS_6vectorES8_bxydS6_NSA_14adl_serializerENSD_IhNS6_IhEEEEvEEEEPNS_11__tree_nodeISI_PvEElEEEdeB8ne180100Ev, symObjAddr: 0x5394, symBinAddr: 0x100010C78, symSize: 0x28 }
  - { offset: 0x6070F, size: 0x8, addend: 0x0, symName: __ZNSt3__16vectorIN8nlohmann16json_abi_v3_11_310basic_jsonINS_3mapES0_NS_12basic_stringIcNS_11char_traitsIcEENS_9allocatorIcEEEEbxydS8_NS2_14adl_serializerENS0_IhNS8_IhEEEEvEENS8_ISE_EEE9push_backB8ne180100EOSE_, symObjAddr: 0x53BC, symBinAddr: 0x100010CA0, symSize: 0x90 }
  - { offset: 0x60755, size: 0x8, addend: 0x0, symName: __ZNSt3__114__map_iteratorINS_15__tree_iteratorINS_12__value_typeINS_12basic_stringIcNS_11char_traitsIcEENS_9allocatorIcEEEEN8nlohmann16json_abi_v3_11_310basic_jsonINS_3mapENS_6vectorES8_bxydS6_NSA_14adl_serializerENSD_IhNS6_IhEEEEvEEEEPNS_11__tree_nodeISI_PvEElEEEppB8ne180100Ev, symObjAddr: 0x544C, symBinAddr: 0x100010D30, symSize: 0x2C }
  - { offset: 0x6077B, size: 0x8, addend: 0x0, symName: __ZNKSt3__16vectorIN8nlohmann16json_abi_v3_11_310basic_jsonINS_3mapES0_NS_12basic_stringIcNS_11char_traitsIcEENS_9allocatorIcEEEEbxydS8_NS2_14adl_serializerENS0_IhNS8_IhEEEEvEENS8_ISE_EEE5emptyB8ne180100Ev, symObjAddr: 0x5478, symBinAddr: 0x100010D5C, symSize: 0x28 }
  - { offset: 0x607A1, size: 0x8, addend: 0x0, symName: __ZNSt3__16vectorIN8nlohmann16json_abi_v3_11_310basic_jsonINS_3mapES0_NS_12basic_stringIcNS_11char_traitsIcEENS_9allocatorIcEEEEbxydS8_NS2_14adl_serializerENS0_IhNS8_IhEEEEvEENS8_ISE_EEE4backB8ne180100Ev, symObjAddr: 0x54A0, symBinAddr: 0x100010D84, symSize: 0x1C }
  - { offset: 0x607C7, size: 0x8, addend: 0x0, symName: __ZN8nlohmann16json_abi_v3_11_310basic_jsonINSt3__13mapENS2_6vectorENS2_12basic_stringIcNS2_11char_traitsIcEENS2_9allocatorIcEEEEbxydS8_NS0_14adl_serializerENS4_IhNS8_IhEEEEvEC1EOSE_, symObjAddr: 0x54BC, symBinAddr: 0x100010DA0, symSize: 0x34 }
  - { offset: 0x60800, size: 0x8, addend: 0x0, symName: __ZNSt3__16vectorIN8nlohmann16json_abi_v3_11_310basic_jsonINS_3mapES0_NS_12basic_stringIcNS_11char_traitsIcEENS_9allocatorIcEEEEbxydS8_NS2_14adl_serializerENS0_IhNS8_IhEEEEvEENS8_ISE_EEE8pop_backEv, symObjAddr: 0x54F0, symBinAddr: 0x100010DD4, symSize: 0x2C }
  - { offset: 0x60828, size: 0x8, addend: 0x0, symName: __ZNSt3__16vectorIN8nlohmann16json_abi_v3_11_310basic_jsonINS_3mapES0_NS_12basic_stringIcNS_11char_traitsIcEENS_9allocatorIcEEEEbxydS8_NS2_14adl_serializerENS0_IhNS8_IhEEEEvEENS8_ISE_EEE5clearB8ne180100Ev, symObjAddr: 0x551C, symBinAddr: 0x100010E00, symSize: 0x44 }
  - { offset: 0x6085D, size: 0x8, addend: 0x0, symName: __ZNSt3__13mapINS_12basic_stringIcNS_11char_traitsIcEENS_9allocatorIcEEEEN8nlohmann16json_abi_v3_11_310basic_jsonIS0_NS_6vectorES6_bxydS4_NS8_14adl_serializerENSA_IhNS4_IhEEEEvEENS_4lessIvEENS4_INS_4pairIKS6_SE_EEEEE5clearB8ne180100Ev, symObjAddr: 0x5560, symBinAddr: 0x100010E44, symSize: 0x24 }
  - { offset: 0x60883, size: 0x8, addend: 0x0, symName: __ZNSt3__16vectorIN8nlohmann16json_abi_v3_11_310basic_jsonINS_3mapES0_NS_12basic_stringIcNS_11char_traitsIcEENS_9allocatorIcEEEEbxydS8_NS2_14adl_serializerENS0_IhNS8_IhEEEEvEENS8_ISE_EEED1B8ne180100Ev, symObjAddr: 0x5584, symBinAddr: 0x100010E68, symSize: 0x2C }
  - { offset: 0x608C6, size: 0x8, addend: 0x0, symName: __ZNSt3__19allocatorINS_3mapINS_12basic_stringIcNS_11char_traitsIcEENS0_IcEEEEN8nlohmann16json_abi_v3_11_310basic_jsonIS1_NS_6vectorES6_bxydS0_NS8_14adl_serializerENSA_IhNS0_IhEEEEvEENS_4lessIvEENS0_INS_4pairIKS6_SE_EEEEEEEC1B8ne180100Ev, symObjAddr: 0x55B0, symBinAddr: 0x100010E94, symSize: 0x2C }
  - { offset: 0x608F6, size: 0x8, addend: 0x0, symName: __ZNSt3__116allocator_traitsINS_9allocatorINS_3mapINS_12basic_stringIcNS_11char_traitsIcEENS1_IcEEEEN8nlohmann16json_abi_v3_11_310basic_jsonIS2_NS_6vectorES7_bxydS1_NS9_14adl_serializerENSB_IhNS1_IhEEEEvEENS_4lessIvEENS1_INS_4pairIKS7_SF_EEEEEEEEE7destroyB8ne180100ISM_vEEvRSN_PT_, symObjAddr: 0x55DC, symBinAddr: 0x100010EC0, symSize: 0x2C }
  - { offset: 0x60933, size: 0x8, addend: 0x0, symName: __ZNSt3__116allocator_traitsINS_9allocatorINS_3mapINS_12basic_stringIcNS_11char_traitsIcEENS1_IcEEEEN8nlohmann16json_abi_v3_11_310basic_jsonIS2_NS_6vectorES7_bxydS1_NS9_14adl_serializerENSB_IhNS1_IhEEEEvEENS_4lessIvEENS1_INS_4pairIKS7_SF_EEEEEEEEE10deallocateB8ne180100ERSN_PSM_m, symObjAddr: 0x5608, symBinAddr: 0x100010EEC, symSize: 0x34 }
  - { offset: 0x6098E, size: 0x8, addend: 0x0, symName: __ZNSt3__19allocatorINS_6vectorIN8nlohmann16json_abi_v3_11_310basic_jsonINS_3mapES1_NS_12basic_stringIcNS_11char_traitsIcEENS0_IcEEEEbxydS0_NS3_14adl_serializerENS1_IhNS0_IhEEEEvEENS0_ISE_EEEEEC1B8ne180100Ev, symObjAddr: 0x563C, symBinAddr: 0x100010F20, symSize: 0x2C }
  - { offset: 0x609BE, size: 0x8, addend: 0x0, symName: __ZNSt3__116allocator_traitsINS_9allocatorINS_6vectorIN8nlohmann16json_abi_v3_11_310basic_jsonINS_3mapES2_NS_12basic_stringIcNS_11char_traitsIcEENS1_IcEEEEbxydS1_NS4_14adl_serializerENS2_IhNS1_IhEEEEvEENS1_ISF_EEEEEEE7destroyB8ne180100ISH_vEEvRSI_PT_, symObjAddr: 0x5668, symBinAddr: 0x100010F4C, symSize: 0x2C }
  - { offset: 0x609FB, size: 0x8, addend: 0x0, symName: __ZNSt3__116allocator_traitsINS_9allocatorINS_6vectorIN8nlohmann16json_abi_v3_11_310basic_jsonINS_3mapES2_NS_12basic_stringIcNS_11char_traitsIcEENS1_IcEEEEbxydS1_NS4_14adl_serializerENS2_IhNS1_IhEEEEvEENS1_ISF_EEEEEEE10deallocateB8ne180100ERSI_PSH_m, symObjAddr: 0x5694, symBinAddr: 0x100010F78, symSize: 0x34 }
  - { offset: 0x60A3D, size: 0x8, addend: 0x0, symName: __ZNSt3__19allocatorINS_12basic_stringIcNS_11char_traitsIcEENS0_IcEEEEEC1B8ne180100Ev, symObjAddr: 0x56C8, symBinAddr: 0x100010FAC, symSize: 0x2C }
  - { offset: 0x60A67, size: 0x8, addend: 0x0, symName: __ZNSt3__116allocator_traitsINS_9allocatorINS_12basic_stringIcNS_11char_traitsIcEENS1_IcEEEEEEE7destroyB8ne180100IS6_vEEvRS7_PT_, symObjAddr: 0x56F4, symBinAddr: 0x100010FD8, symSize: 0x2C }
  - { offset: 0x60AA4, size: 0x8, addend: 0x0, symName: __ZNSt3__116allocator_traitsINS_9allocatorINS_12basic_stringIcNS_11char_traitsIcEENS1_IcEEEEEEE10deallocateB8ne180100ERS7_PS6_m, symObjAddr: 0x5720, symBinAddr: 0x100011004, symSize: 0x34 }
  - { offset: 0x60B05, size: 0x8, addend: 0x0, symName: __ZNSt3__19allocatorIN8nlohmann16json_abi_v3_11_327byte_container_with_subtypeINS_6vectorIhNS0_IhEEEEEEEC1B8ne180100Ev, symObjAddr: 0x5754, symBinAddr: 0x100011038, symSize: 0x2C }
  - { offset: 0x60B35, size: 0x8, addend: 0x0, symName: __ZNSt3__116allocator_traitsINS_9allocatorIN8nlohmann16json_abi_v3_11_327byte_container_with_subtypeINS_6vectorIhNS1_IhEEEEEEEEE7destroyB8ne180100IS8_vEEvRS9_PT_, symObjAddr: 0x5780, symBinAddr: 0x100011064, symSize: 0x2C }
  - { offset: 0x60B72, size: 0x8, addend: 0x0, symName: __ZNSt3__116allocator_traitsINS_9allocatorIN8nlohmann16json_abi_v3_11_327byte_container_with_subtypeINS_6vectorIhNS1_IhEEEEEEEEE10deallocateB8ne180100ERS9_PS8_m, symObjAddr: 0x57AC, symBinAddr: 0x100011090, symSize: 0x34 }
  - { offset: 0x60BB4, size: 0x8, addend: 0x0, symName: __ZNSt3__16vectorIN8nlohmann16json_abi_v3_11_310basic_jsonINS_3mapES0_NS_12basic_stringIcNS_11char_traitsIcEENS_9allocatorIcEEEEbxydS8_NS2_14adl_serializerENS0_IhNS8_IhEEEEvEENS8_ISE_EEEC2B8ne180100Ev, symObjAddr: 0x57E0, symBinAddr: 0x1000110C4, symSize: 0x4C }
  - { offset: 0x60BE4, size: 0x8, addend: 0x0, symName: __ZNSt3__117__compressed_pairIPN8nlohmann16json_abi_v3_11_310basic_jsonINS_3mapENS_6vectorENS_12basic_stringIcNS_11char_traitsIcEENS_9allocatorIcEEEEbxydS9_NS2_14adl_serializerENS5_IhNS9_IhEEEEvEENS9_ISF_EEEC1B8ne180100IDnNS_18__default_init_tagEEEOT_OT0_, symObjAddr: 0x582C, symBinAddr: 0x100011110, symSize: 0x3C }
  - { offset: 0x60C3C, size: 0x8, addend: 0x0, symName: __ZNSt3__117__compressed_pairIPN8nlohmann16json_abi_v3_11_310basic_jsonINS_3mapENS_6vectorENS_12basic_stringIcNS_11char_traitsIcEENS_9allocatorIcEEEEbxydS9_NS2_14adl_serializerENS5_IhNS9_IhEEEEvEENS9_ISF_EEEC2B8ne180100IDnNS_18__default_init_tagEEEOT_OT0_, symObjAddr: 0x5868, symBinAddr: 0x10001114C, symSize: 0x40 }
  - { offset: 0x60C94, size: 0x8, addend: 0x0, symName: __ZNSt3__122__compressed_pair_elemIPN8nlohmann16json_abi_v3_11_310basic_jsonINS_3mapENS_6vectorENS_12basic_stringIcNS_11char_traitsIcEENS_9allocatorIcEEEEbxydS9_NS2_14adl_serializerENS5_IhNS9_IhEEEEvEELi0ELb0EEC2B8ne180100IDnvEEOT_, symObjAddr: 0x58A8, symBinAddr: 0x10001118C, symSize: 0x1C }
  - { offset: 0x60CD6, size: 0x8, addend: 0x0, symName: __ZNSt3__122__compressed_pair_elemINS_9allocatorIN8nlohmann16json_abi_v3_11_310basic_jsonINS_3mapENS_6vectorENS_12basic_stringIcNS_11char_traitsIcEENS1_IcEEEEbxydS1_NS3_14adl_serializerENS6_IhNS1_IhEEEEvEEEELi1ELb1EEC2B8ne180100ENS_18__default_init_tagE, symObjAddr: 0x58C4, symBinAddr: 0x1000111A8, symSize: 0x2C }
  - { offset: 0x60D0B, size: 0x8, addend: 0x0, symName: __ZNSt3__19allocatorIN8nlohmann16json_abi_v3_11_310basic_jsonINS_3mapENS_6vectorENS_12basic_stringIcNS_11char_traitsIcEENS0_IcEEEEbxydS0_NS2_14adl_serializerENS5_IhNS0_IhEEEEvEEEC2B8ne180100Ev, symObjAddr: 0x58F0, symBinAddr: 0x1000111D4, symSize: 0x2C }
  - { offset: 0x60D35, size: 0x8, addend: 0x0, symName: __ZNSt3__116__non_trivial_ifILb1ENS_9allocatorIN8nlohmann16json_abi_v3_11_310basic_jsonINS_3mapENS_6vectorENS_12basic_stringIcNS_11char_traitsIcEENS1_IcEEEEbxydS1_NS3_14adl_serializerENS6_IhNS1_IhEEEEvEEEEEC2B8ne180100Ev, symObjAddr: 0x591C, symBinAddr: 0x100011200, symSize: 0x14 }
  - { offset: 0x60D5F, size: 0x8, addend: 0x0, symName: __ZNKSt3__16vectorIN8nlohmann16json_abi_v3_11_310basic_jsonINS_3mapES0_NS_12basic_stringIcNS_11char_traitsIcEENS_9allocatorIcEEEEbxydS8_NS2_14adl_serializerENS0_IhNS8_IhEEEEvEENS8_ISE_EEE8capacityB8ne180100Ev, symObjAddr: 0x5930, symBinAddr: 0x100011214, symSize: 0x40 }
  - { offset: 0x60D85, size: 0x8, addend: 0x0, symName: __ZNKSt3__16vectorIN8nlohmann16json_abi_v3_11_310basic_jsonINS_3mapES0_NS_12basic_stringIcNS_11char_traitsIcEENS_9allocatorIcEEEEbxydS8_NS2_14adl_serializerENS0_IhNS8_IhEEEEvEENS8_ISE_EEE8max_sizeEv, symObjAddr: 0x5970, symBinAddr: 0x100011254, symSize: 0x60 }
  - { offset: 0x60DAD, size: 0x8, addend: 0x0, symName: __ZNKSt3__16vectorIN8nlohmann16json_abi_v3_11_310basic_jsonINS_3mapES0_NS_12basic_stringIcNS_11char_traitsIcEENS_9allocatorIcEEEEbxydS8_NS2_14adl_serializerENS0_IhNS8_IhEEEEvEENS8_ISE_EEE20__throw_length_errorB8ne180100Ev, symObjAddr: 0x59D0, symBinAddr: 0x1000112B4, symSize: 0x1C }
  - { offset: 0x60DD3, size: 0x8, addend: 0x0, symName: __ZNSt3__16vectorIN8nlohmann16json_abi_v3_11_310basic_jsonINS_3mapES0_NS_12basic_stringIcNS_11char_traitsIcEENS_9allocatorIcEEEEbxydS8_NS2_14adl_serializerENS0_IhNS8_IhEEEEvEENS8_ISE_EEE7__allocB8ne180100Ev, symObjAddr: 0x59EC, symBinAddr: 0x1000112D0, symSize: 0x28 }
  - { offset: 0x60DF9, size: 0x8, addend: 0x0, symName: __ZNSt3__114__split_bufferIN8nlohmann16json_abi_v3_11_310basic_jsonINS_3mapENS_6vectorENS_12basic_stringIcNS_11char_traitsIcEENS_9allocatorIcEEEEbxydS9_NS2_14adl_serializerENS5_IhNS9_IhEEEEvEERNS9_ISF_EEEC1EmmSH_, symObjAddr: 0x5A14, symBinAddr: 0x1000112F8, symSize: 0x44 }
  - { offset: 0x60E4F, size: 0x8, addend: 0x0, symName: __ZNSt3__114__split_bufferIN8nlohmann16json_abi_v3_11_310basic_jsonINS_3mapENS_6vectorENS_12basic_stringIcNS_11char_traitsIcEENS_9allocatorIcEEEEbxydS9_NS2_14adl_serializerENS5_IhNS9_IhEEEEvEERNS9_ISF_EEED1Ev, symObjAddr: 0x5B68, symBinAddr: 0x10001144C, symSize: 0x2C }
  - { offset: 0x60E7B, size: 0x8, addend: 0x0, symName: __ZNKSt3__16vectorIN8nlohmann16json_abi_v3_11_310basic_jsonINS_3mapES0_NS_12basic_stringIcNS_11char_traitsIcEENS_9allocatorIcEEEEbxydS8_NS2_14adl_serializerENS0_IhNS8_IhEEEEvEENS8_ISE_EEE9__end_capB8ne180100Ev, symObjAddr: 0x5B94, symBinAddr: 0x100011478, symSize: 0x28 }
  - { offset: 0x60EA1, size: 0x8, addend: 0x0, symName: __ZNKSt3__117__compressed_pairIPN8nlohmann16json_abi_v3_11_310basic_jsonINS_3mapENS_6vectorENS_12basic_stringIcNS_11char_traitsIcEENS_9allocatorIcEEEEbxydS9_NS2_14adl_serializerENS5_IhNS9_IhEEEEvEENS9_ISF_EEE5firstB8ne180100Ev, symObjAddr: 0x5BBC, symBinAddr: 0x1000114A0, symSize: 0x24 }
  - { offset: 0x60EC7, size: 0x8, addend: 0x0, symName: __ZNKSt3__122__compressed_pair_elemIPN8nlohmann16json_abi_v3_11_310basic_jsonINS_3mapENS_6vectorENS_12basic_stringIcNS_11char_traitsIcEENS_9allocatorIcEEEEbxydS9_NS2_14adl_serializerENS5_IhNS9_IhEEEEvEELi0ELb0EE5__getB8ne180100Ev, symObjAddr: 0x5BE0, symBinAddr: 0x1000114C4, symSize: 0x14 }
  - { offset: 0x60EF8, size: 0x8, addend: 0x0, symName: __ZNSt3__116allocator_traitsINS_9allocatorIN8nlohmann16json_abi_v3_11_310basic_jsonINS_3mapENS_6vectorENS_12basic_stringIcNS_11char_traitsIcEENS1_IcEEEEbxydS1_NS3_14adl_serializerENS6_IhNS1_IhEEEEvEEEEE8max_sizeB8ne180100ISG_vEEmRKSG_, symObjAddr: 0x5C20, symBinAddr: 0x1000114D8, symSize: 0x24 }
  - { offset: 0x60F26, size: 0x8, addend: 0x0, symName: __ZNKSt3__16vectorIN8nlohmann16json_abi_v3_11_310basic_jsonINS_3mapES0_NS_12basic_stringIcNS_11char_traitsIcEENS_9allocatorIcEEEEbxydS8_NS2_14adl_serializerENS0_IhNS8_IhEEEEvEENS8_ISE_EEE7__allocB8ne180100Ev, symObjAddr: 0x5C44, symBinAddr: 0x1000114FC, symSize: 0x28 }
  - { offset: 0x60F4C, size: 0x8, addend: 0x0, symName: __ZNKSt3__19allocatorIN8nlohmann16json_abi_v3_11_310basic_jsonINS_3mapENS_6vectorENS_12basic_stringIcNS_11char_traitsIcEENS0_IcEEEEbxydS0_NS2_14adl_serializerENS5_IhNS0_IhEEEEvEEE8max_sizeB8ne180100Ev, symObjAddr: 0x5D08, symBinAddr: 0x100011524, symSize: 0x14 }
  - { offset: 0x60F72, size: 0x8, addend: 0x0, symName: __ZNKSt3__117__compressed_pairIPN8nlohmann16json_abi_v3_11_310basic_jsonINS_3mapENS_6vectorENS_12basic_stringIcNS_11char_traitsIcEENS_9allocatorIcEEEEbxydS9_NS2_14adl_serializerENS5_IhNS9_IhEEEEvEENS9_ISF_EEE6secondB8ne180100Ev, symObjAddr: 0x5D1C, symBinAddr: 0x100011538, symSize: 0x24 }
  - { offset: 0x60F98, size: 0x8, addend: 0x0, symName: __ZNKSt3__122__compressed_pair_elemINS_9allocatorIN8nlohmann16json_abi_v3_11_310basic_jsonINS_3mapENS_6vectorENS_12basic_stringIcNS_11char_traitsIcEENS1_IcEEEEbxydS1_NS3_14adl_serializerENS6_IhNS1_IhEEEEvEEEELi1ELb1EE5__getB8ne180100Ev, symObjAddr: 0x5D40, symBinAddr: 0x10001155C, symSize: 0x14 }
  - { offset: 0x60FBE, size: 0x8, addend: 0x0, symName: __ZNSt3__117__compressed_pairIPN8nlohmann16json_abi_v3_11_310basic_jsonINS_3mapENS_6vectorENS_12basic_stringIcNS_11char_traitsIcEENS_9allocatorIcEEEEbxydS9_NS2_14adl_serializerENS5_IhNS9_IhEEEEvEENS9_ISF_EEE6secondB8ne180100Ev, symObjAddr: 0x5E38, symBinAddr: 0x100011570, symSize: 0x24 }
  - { offset: 0x60FE4, size: 0x8, addend: 0x0, symName: __ZNSt3__122__compressed_pair_elemINS_9allocatorIN8nlohmann16json_abi_v3_11_310basic_jsonINS_3mapENS_6vectorENS_12basic_stringIcNS_11char_traitsIcEENS1_IcEEEEbxydS1_NS3_14adl_serializerENS6_IhNS1_IhEEEEvEEEELi1ELb1EE5__getB8ne180100Ev, symObjAddr: 0x5E5C, symBinAddr: 0x100011594, symSize: 0x14 }
  - { offset: 0x6100A, size: 0x8, addend: 0x0, symName: __ZNSt3__114__split_bufferIN8nlohmann16json_abi_v3_11_310basic_jsonINS_3mapENS_6vectorENS_12basic_stringIcNS_11char_traitsIcEENS_9allocatorIcEEEEbxydS9_NS2_14adl_serializerENS5_IhNS9_IhEEEEvEERNS9_ISF_EEEC2EmmSH_, symObjAddr: 0x5E70, symBinAddr: 0x1000115A8, symSize: 0xD4 }
  - { offset: 0x6107D, size: 0x8, addend: 0x0, symName: __ZNSt3__117__compressed_pairIPN8nlohmann16json_abi_v3_11_310basic_jsonINS_3mapENS_6vectorENS_12basic_stringIcNS_11char_traitsIcEENS_9allocatorIcEEEEbxydS9_NS2_14adl_serializerENS5_IhNS9_IhEEEEvEERNS9_ISF_EEEC1B8ne180100IDnSI_EEOT_OT0_, symObjAddr: 0x5F44, symBinAddr: 0x10001167C, symSize: 0x3C }
  - { offset: 0x610D5, size: 0x8, addend: 0x0, symName: __ZNSt3__114__split_bufferIN8nlohmann16json_abi_v3_11_310basic_jsonINS_3mapENS_6vectorENS_12basic_stringIcNS_11char_traitsIcEENS_9allocatorIcEEEEbxydS9_NS2_14adl_serializerENS5_IhNS9_IhEEEEvEERNS9_ISF_EEE7__allocB8ne180100Ev, symObjAddr: 0x5FC0, symBinAddr: 0x1000116F8, symSize: 0x28 }
  - { offset: 0x610FB, size: 0x8, addend: 0x0, symName: __ZNSt3__114__split_bufferIN8nlohmann16json_abi_v3_11_310basic_jsonINS_3mapENS_6vectorENS_12basic_stringIcNS_11char_traitsIcEENS_9allocatorIcEEEEbxydS9_NS2_14adl_serializerENS5_IhNS9_IhEEEEvEERNS9_ISF_EEE9__end_capB8ne180100Ev, symObjAddr: 0x5FE8, symBinAddr: 0x100011720, symSize: 0x28 }
  - { offset: 0x61121, size: 0x8, addend: 0x0, symName: __ZNSt3__117__compressed_pairIPN8nlohmann16json_abi_v3_11_310basic_jsonINS_3mapENS_6vectorENS_12basic_stringIcNS_11char_traitsIcEENS_9allocatorIcEEEEbxydS9_NS2_14adl_serializerENS5_IhNS9_IhEEEEvEERNS9_ISF_EEEC2B8ne180100IDnSI_EEOT_OT0_, symObjAddr: 0x6010, symBinAddr: 0x100011748, symSize: 0x48 }
  - { offset: 0x61179, size: 0x8, addend: 0x0, symName: __ZNSt3__122__compressed_pair_elemIRNS_9allocatorIN8nlohmann16json_abi_v3_11_310basic_jsonINS_3mapENS_6vectorENS_12basic_stringIcNS_11char_traitsIcEENS1_IcEEEEbxydS1_NS3_14adl_serializerENS6_IhNS1_IhEEEEvEEEELi1ELb0EEC2B8ne180100ISH_vEEOT_, symObjAddr: 0x6058, symBinAddr: 0x100011790, symSize: 0x20 }
  - { offset: 0x611BB, size: 0x8, addend: 0x0, symName: __ZNSt3__19allocatorIN8nlohmann16json_abi_v3_11_310basic_jsonINS_3mapENS_6vectorENS_12basic_stringIcNS_11char_traitsIcEENS0_IcEEEEbxydS0_NS2_14adl_serializerENS5_IhNS0_IhEEEEvEEE8allocateB8ne180100Em, symObjAddr: 0x6078, symBinAddr: 0x1000117B0, symSize: 0x58 }
  - { offset: 0x611EF, size: 0x8, addend: 0x0, symName: __ZNSt3__117__compressed_pairIPN8nlohmann16json_abi_v3_11_310basic_jsonINS_3mapENS_6vectorENS_12basic_stringIcNS_11char_traitsIcEENS_9allocatorIcEEEEbxydS9_NS2_14adl_serializerENS5_IhNS9_IhEEEEvEERNS9_ISF_EEE6secondB8ne180100Ev, symObjAddr: 0x61D4, symBinAddr: 0x100011808, symSize: 0x28 }
  - { offset: 0x61215, size: 0x8, addend: 0x0, symName: __ZNSt3__122__compressed_pair_elemIRNS_9allocatorIN8nlohmann16json_abi_v3_11_310basic_jsonINS_3mapENS_6vectorENS_12basic_stringIcNS_11char_traitsIcEENS1_IcEEEEbxydS1_NS3_14adl_serializerENS6_IhNS1_IhEEEEvEEEELi1ELb0EE5__getB8ne180100Ev, symObjAddr: 0x61FC, symBinAddr: 0x100011830, symSize: 0x18 }
  - { offset: 0x6123B, size: 0x8, addend: 0x0, symName: __ZNSt3__117__compressed_pairIPN8nlohmann16json_abi_v3_11_310basic_jsonINS_3mapENS_6vectorENS_12basic_stringIcNS_11char_traitsIcEENS_9allocatorIcEEEEbxydS9_NS2_14adl_serializerENS5_IhNS9_IhEEEEvEERNS9_ISF_EEE5firstB8ne180100Ev, symObjAddr: 0x6214, symBinAddr: 0x100011848, symSize: 0x24 }
  - { offset: 0x61261, size: 0x8, addend: 0x0, symName: __ZNSt3__122__compressed_pair_elemIPN8nlohmann16json_abi_v3_11_310basic_jsonINS_3mapENS_6vectorENS_12basic_stringIcNS_11char_traitsIcEENS_9allocatorIcEEEEbxydS9_NS2_14adl_serializerENS5_IhNS9_IhEEEEvEELi0ELb0EE5__getB8ne180100Ev, symObjAddr: 0x6238, symBinAddr: 0x10001186C, symSize: 0x14 }
  - { offset: 0x61287, size: 0x8, addend: 0x0, symName: __ZNKSt3__16vectorIN8nlohmann16json_abi_v3_11_310basic_jsonINS_3mapES0_NS_12basic_stringIcNS_11char_traitsIcEENS_9allocatorIcEEEEbxydS8_NS2_14adl_serializerENS0_IhNS8_IhEEEEvEENS8_ISE_EEE17__annotate_deleteB8ne180100Ev, symObjAddr: 0x624C, symBinAddr: 0x100011880, symSize: 0x10 }
  - { offset: 0x612AD, size: 0x8, addend: 0x0, symName: __ZNSt3__116reverse_iteratorIPN8nlohmann16json_abi_v3_11_310basic_jsonINS_3mapENS_6vectorENS_12basic_stringIcNS_11char_traitsIcEENS_9allocatorIcEEEEbxydS9_NS2_14adl_serializerENS5_IhNS9_IhEEEEvEEEC1B8ne180100ESG_, symObjAddr: 0x6388, symBinAddr: 0x1000119BC, symSize: 0x34 }
  - { offset: 0x612E5, size: 0x8, addend: 0x0, symName: __ZNKSt3__116reverse_iteratorIPN8nlohmann16json_abi_v3_11_310basic_jsonINS_3mapENS_6vectorENS_12basic_stringIcNS_11char_traitsIcEENS_9allocatorIcEEEEbxydS9_NS2_14adl_serializerENS5_IhNS9_IhEEEEvEEE4baseB8ne180100Ev, symObjAddr: 0x63BC, symBinAddr: 0x1000119F0, symSize: 0x18 }
  - { offset: 0x6130B, size: 0x8, addend: 0x0, symName: __ZNSt3__16vectorIN8nlohmann16json_abi_v3_11_310basic_jsonINS_3mapES0_NS_12basic_stringIcNS_11char_traitsIcEENS_9allocatorIcEEEEbxydS8_NS2_14adl_serializerENS0_IhNS8_IhEEEEvEENS8_ISE_EEE9__end_capB8ne180100Ev, symObjAddr: 0x6410, symBinAddr: 0x100011A44, symSize: 0x28 }
  - { offset: 0x61331, size: 0x8, addend: 0x0, symName: __ZNKSt3__16vectorIN8nlohmann16json_abi_v3_11_310basic_jsonINS_3mapES0_NS_12basic_stringIcNS_11char_traitsIcEENS_9allocatorIcEEEEbxydS8_NS2_14adl_serializerENS0_IhNS8_IhEEEEvEENS8_ISE_EEE14__annotate_newB8ne180100Em, symObjAddr: 0x6438, symBinAddr: 0x100011A6C, symSize: 0x14 }
  - { offset: 0x61366, size: 0x8, addend: 0x0, symName: __ZNSt3__129_AllocatorDestroyRangeReverseINS_9allocatorIN8nlohmann16json_abi_v3_11_310basic_jsonINS_3mapENS_6vectorENS_12basic_stringIcNS_11char_traitsIcEENS1_IcEEEEbxydS1_NS3_14adl_serializerENS6_IhNS1_IhEEEEvEEEENS_16reverse_iteratorIPSF_EEEC1B8ne180100ERSG_RSJ_SM_, symObjAddr: 0x6498, symBinAddr: 0x100011ACC, symSize: 0x44 }
  - { offset: 0x613BD, size: 0x8, addend: 0x0, symName: __ZNSt3__116allocator_traitsINS_9allocatorIN8nlohmann16json_abi_v3_11_310basic_jsonINS_3mapENS_6vectorENS_12basic_stringIcNS_11char_traitsIcEENS1_IcEEEEbxydS1_NS3_14adl_serializerENS6_IhNS1_IhEEEEvEEEEE9constructB8ne180100ISF_JSF_EvEEvRSG_PT_DpOT0_, symObjAddr: 0x6524, symBinAddr: 0x100011B58, symSize: 0x34 }
  - { offset: 0x61414, size: 0x8, addend: 0x0, symName: __ZNKSt3__116reverse_iteratorIPN8nlohmann16json_abi_v3_11_310basic_jsonINS_3mapENS_6vectorENS_12basic_stringIcNS_11char_traitsIcEENS_9allocatorIcEEEEbxydS9_NS2_14adl_serializerENS5_IhNS9_IhEEEEvEEEdeB8ne180100Ev, symObjAddr: 0x657C, symBinAddr: 0x100011BB0, symSize: 0x28 }
  - { offset: 0x61449, size: 0x8, addend: 0x0, symName: __ZNSt3__116reverse_iteratorIPN8nlohmann16json_abi_v3_11_310basic_jsonINS_3mapENS_6vectorENS_12basic_stringIcNS_11char_traitsIcEENS_9allocatorIcEEEEbxydS9_NS2_14adl_serializerENS5_IhNS9_IhEEEEvEEEppB8ne180100Ev, symObjAddr: 0x65A4, symBinAddr: 0x100011BD8, symSize: 0x20 }
  - { offset: 0x6146F, size: 0x8, addend: 0x0, symName: __ZNSt3__128__exception_guard_exceptionsINS_29_AllocatorDestroyRangeReverseINS_9allocatorIN8nlohmann16json_abi_v3_11_310basic_jsonINS_3mapENS_6vectorENS_12basic_stringIcNS_11char_traitsIcEENS2_IcEEEEbxydS2_NS4_14adl_serializerENS7_IhNS2_IhEEEEvEEEENS_16reverse_iteratorIPSG_EEEEE10__completeB8ne180100Ev, symObjAddr: 0x65C4, symBinAddr: 0x100011BF8, symSize: 0x1C }
  - { offset: 0x61495, size: 0x8, addend: 0x0, symName: __ZNSt3__128__exception_guard_exceptionsINS_29_AllocatorDestroyRangeReverseINS_9allocatorIN8nlohmann16json_abi_v3_11_310basic_jsonINS_3mapENS_6vectorENS_12basic_stringIcNS_11char_traitsIcEENS2_IcEEEEbxydS2_NS4_14adl_serializerENS7_IhNS2_IhEEEEvEEEENS_16reverse_iteratorIPSG_EEEEED1B8ne180100Ev, symObjAddr: 0x65E0, symBinAddr: 0x100011C14, symSize: 0x2C }
  - { offset: 0x614BF, size: 0x8, addend: 0x0, symName: __ZNSt3__128__exception_guard_exceptionsINS_29_AllocatorDestroyRangeReverseINS_9allocatorIN8nlohmann16json_abi_v3_11_310basic_jsonINS_3mapENS_6vectorENS_12basic_stringIcNS_11char_traitsIcEENS2_IcEEEEbxydS2_NS4_14adl_serializerENS7_IhNS2_IhEEEEvEEEENS_16reverse_iteratorIPSG_EEEEEC1B8ne180100ESL_, symObjAddr: 0x660C, symBinAddr: 0x100011C40, symSize: 0x34 }
  - { offset: 0x614F8, size: 0x8, addend: 0x0, symName: __ZNSt3__128__exception_guard_exceptionsINS_29_AllocatorDestroyRangeReverseINS_9allocatorIN8nlohmann16json_abi_v3_11_310basic_jsonINS_3mapENS_6vectorENS_12basic_stringIcNS_11char_traitsIcEENS2_IcEEEEbxydS2_NS4_14adl_serializerENS7_IhNS2_IhEEEEvEEEENS_16reverse_iteratorIPSG_EEEEEC2B8ne180100ESL_, symObjAddr: 0x6640, symBinAddr: 0x100011C74, symSize: 0x30 }
  - { offset: 0x61531, size: 0x8, addend: 0x0, symName: __ZNSt3__129_AllocatorDestroyRangeReverseINS_9allocatorIN8nlohmann16json_abi_v3_11_310basic_jsonINS_3mapENS_6vectorENS_12basic_stringIcNS_11char_traitsIcEENS1_IcEEEEbxydS1_NS3_14adl_serializerENS6_IhNS1_IhEEEEvEEEENS_16reverse_iteratorIPSF_EEEC2B8ne180100ERSG_RSJ_SM_, symObjAddr: 0x6670, symBinAddr: 0x100011CA4, symSize: 0x38 }
  - { offset: 0x61588, size: 0x8, addend: 0x0, symName: __ZNSt3__19allocatorIN8nlohmann16json_abi_v3_11_310basic_jsonINS_3mapENS_6vectorENS_12basic_stringIcNS_11char_traitsIcEENS0_IcEEEEbxydS0_NS2_14adl_serializerENS5_IhNS0_IhEEEEvEEE9constructB8ne180100ISE_JSE_EEEvPT_DpOT0_, symObjAddr: 0x66A8, symBinAddr: 0x100011CDC, symSize: 0x30 }
  - { offset: 0x615E4, size: 0x8, addend: 0x0, symName: __ZNSt3__119__to_address_helperINS_16reverse_iteratorIPN8nlohmann16json_abi_v3_11_310basic_jsonINS_3mapENS_6vectorENS_12basic_stringIcNS_11char_traitsIcEENS_9allocatorIcEEEEbxydSA_NS3_14adl_serializerENS6_IhNSA_IhEEEEvEEEEvE6__callB8ne180100ERKSI_, symObjAddr: 0x66D8, symBinAddr: 0x100011D0C, symSize: 0x38 }
  - { offset: 0x61607, size: 0x8, addend: 0x0, symName: __ZNKSt3__116reverse_iteratorIPN8nlohmann16json_abi_v3_11_310basic_jsonINS_3mapENS_6vectorENS_12basic_stringIcNS_11char_traitsIcEENS_9allocatorIcEEEEbxydS9_NS2_14adl_serializerENS5_IhNS9_IhEEEEvEEEptB8ne180100Ev, symObjAddr: 0x6724, symBinAddr: 0x100011D58, symSize: 0x24 }
  - { offset: 0x6162D, size: 0x8, addend: 0x0, symName: __ZNSt3__128__exception_guard_exceptionsINS_29_AllocatorDestroyRangeReverseINS_9allocatorIN8nlohmann16json_abi_v3_11_310basic_jsonINS_3mapENS_6vectorENS_12basic_stringIcNS_11char_traitsIcEENS2_IcEEEEbxydS2_NS4_14adl_serializerENS7_IhNS2_IhEEEEvEEEENS_16reverse_iteratorIPSG_EEEEED2B8ne180100Ev, symObjAddr: 0x6748, symBinAddr: 0x100011D7C, symSize: 0x50 }
  - { offset: 0x61657, size: 0x8, addend: 0x0, symName: __ZNKSt3__129_AllocatorDestroyRangeReverseINS_9allocatorIN8nlohmann16json_abi_v3_11_310basic_jsonINS_3mapENS_6vectorENS_12basic_stringIcNS_11char_traitsIcEENS1_IcEEEEbxydS1_NS3_14adl_serializerENS6_IhNS1_IhEEEEvEEEENS_16reverse_iteratorIPSF_EEEclB8ne180100Ev, symObjAddr: 0x6798, symBinAddr: 0x100011DCC, symSize: 0xB4 }
  - { offset: 0x6167E, size: 0x8, addend: 0x0, symName: __ZNSt3__116reverse_iteratorINS0_IPN8nlohmann16json_abi_v3_11_310basic_jsonINS_3mapENS_6vectorENS_12basic_stringIcNS_11char_traitsIcEENS_9allocatorIcEEEEbxydS9_NS2_14adl_serializerENS5_IhNS9_IhEEEEvEEEEEC1B8ne180100ESH_, symObjAddr: 0x68BC, symBinAddr: 0x100011EF0, symSize: 0x3C }
  - { offset: 0x616B6, size: 0x8, addend: 0x0, symName: __ZNSt3__116allocator_traitsINS_9allocatorIN8nlohmann16json_abi_v3_11_310basic_jsonINS_3mapENS_6vectorENS_12basic_stringIcNS_11char_traitsIcEENS1_IcEEEEbxydS1_NS3_14adl_serializerENS6_IhNS1_IhEEEEvEEEEE7destroyB8ne180100ISF_vEEvRSG_PT_, symObjAddr: 0x6958, symBinAddr: 0x100011F8C, symSize: 0x2C }
  - { offset: 0x616F3, size: 0x8, addend: 0x0, symName: __ZNSt3__116reverse_iteratorINS0_IPN8nlohmann16json_abi_v3_11_310basic_jsonINS_3mapENS_6vectorENS_12basic_stringIcNS_11char_traitsIcEENS_9allocatorIcEEEEbxydS9_NS2_14adl_serializerENS5_IhNS9_IhEEEEvEEEEEppB8ne180100Ev, symObjAddr: 0x69A8, symBinAddr: 0x100011FDC, symSize: 0x30 }
  - { offset: 0x61719, size: 0x8, addend: 0x0, symName: __ZNKSt3__116reverse_iteratorINS0_IPN8nlohmann16json_abi_v3_11_310basic_jsonINS_3mapENS_6vectorENS_12basic_stringIcNS_11char_traitsIcEENS_9allocatorIcEEEEbxydS9_NS2_14adl_serializerENS5_IhNS9_IhEEEEvEEEEE4baseB8ne180100Ev, symObjAddr: 0x69D8, symBinAddr: 0x10001200C, symSize: 0x24 }
  - { offset: 0x6173F, size: 0x8, addend: 0x0, symName: __ZNSt3__19allocatorIN8nlohmann16json_abi_v3_11_310basic_jsonINS_3mapENS_6vectorENS_12basic_stringIcNS_11char_traitsIcEENS0_IcEEEEbxydS0_NS2_14adl_serializerENS5_IhNS0_IhEEEEvEEE7destroyB8ne180100EPSE_, symObjAddr: 0x69FC, symBinAddr: 0x100012030, symSize: 0x28 }
  - { offset: 0x61779, size: 0x8, addend: 0x0, symName: __ZNSt3__119__to_address_helperINS_16reverse_iteratorINS1_IPN8nlohmann16json_abi_v3_11_310basic_jsonINS_3mapENS_6vectorENS_12basic_stringIcNS_11char_traitsIcEENS_9allocatorIcEEEEbxydSA_NS3_14adl_serializerENS6_IhNSA_IhEEEEvEEEEEEvE6__callB8ne180100ERKSJ_, symObjAddr: 0x6A24, symBinAddr: 0x100012058, symSize: 0x38 }
  - { offset: 0x6179C, size: 0x8, addend: 0x0, symName: __ZNKSt3__116reverse_iteratorINS0_IPN8nlohmann16json_abi_v3_11_310basic_jsonINS_3mapENS_6vectorENS_12basic_stringIcNS_11char_traitsIcEENS_9allocatorIcEEEEbxydS9_NS2_14adl_serializerENS5_IhNS9_IhEEEEvEEEEEptB8ne180100Ev, symObjAddr: 0x6A5C, symBinAddr: 0x100012090, symSize: 0x24 }
  - { offset: 0x617C2, size: 0x8, addend: 0x0, symName: __ZNKSt3__116reverse_iteratorINS0_IPN8nlohmann16json_abi_v3_11_310basic_jsonINS_3mapENS_6vectorENS_12basic_stringIcNS_11char_traitsIcEENS_9allocatorIcEEEEbxydS9_NS2_14adl_serializerENS5_IhNS9_IhEEEEvEEEEEdeB8ne180100Ev, symObjAddr: 0x6A80, symBinAddr: 0x1000120B4, symSize: 0x34 }
  - { offset: 0x617F7, size: 0x8, addend: 0x0, symName: __ZNSt3__116reverse_iteratorIPN8nlohmann16json_abi_v3_11_310basic_jsonINS_3mapENS_6vectorENS_12basic_stringIcNS_11char_traitsIcEENS_9allocatorIcEEEEbxydS9_NS2_14adl_serializerENS5_IhNS9_IhEEEEvEEEmmB8ne180100Ev, symObjAddr: 0x6AB4, symBinAddr: 0x1000120E8, symSize: 0x20 }
  - { offset: 0x6181D, size: 0x8, addend: 0x0, symName: __ZNSt3__116reverse_iteratorINS0_IPN8nlohmann16json_abi_v3_11_310basic_jsonINS_3mapENS_6vectorENS_12basic_stringIcNS_11char_traitsIcEENS_9allocatorIcEEEEbxydS9_NS2_14adl_serializerENS5_IhNS9_IhEEEEvEEEEEC2B8ne180100ESH_, symObjAddr: 0x6AD4, symBinAddr: 0x100012108, symSize: 0x2C }
  - { offset: 0x61855, size: 0x8, addend: 0x0, symName: __ZNSt3__116reverse_iteratorIPN8nlohmann16json_abi_v3_11_310basic_jsonINS_3mapENS_6vectorENS_12basic_stringIcNS_11char_traitsIcEENS_9allocatorIcEEEEbxydS9_NS2_14adl_serializerENS5_IhNS9_IhEEEEvEEEC2B8ne180100ESG_, symObjAddr: 0x6B00, symBinAddr: 0x100012134, symSize: 0x28 }
  - { offset: 0x6188D, size: 0x8, addend: 0x0, symName: __ZNSt3__117__compressed_pairIPN8nlohmann16json_abi_v3_11_310basic_jsonINS_3mapENS_6vectorENS_12basic_stringIcNS_11char_traitsIcEENS_9allocatorIcEEEEbxydS9_NS2_14adl_serializerENS5_IhNS9_IhEEEEvEENS9_ISF_EEE5firstB8ne180100Ev, symObjAddr: 0x6B28, symBinAddr: 0x10001215C, symSize: 0x24 }
  - { offset: 0x618B3, size: 0x8, addend: 0x0, symName: __ZNSt3__114__split_bufferIN8nlohmann16json_abi_v3_11_310basic_jsonINS_3mapENS_6vectorENS_12basic_stringIcNS_11char_traitsIcEENS_9allocatorIcEEEEbxydS9_NS2_14adl_serializerENS5_IhNS9_IhEEEEvEERNS9_ISF_EEED2Ev, symObjAddr: 0x6B4C, symBinAddr: 0x100012180, symSize: 0x8C }
  - { offset: 0x618DF, size: 0x8, addend: 0x0, symName: __ZNSt3__114__split_bufferIN8nlohmann16json_abi_v3_11_310basic_jsonINS_3mapENS_6vectorENS_12basic_stringIcNS_11char_traitsIcEENS_9allocatorIcEEEEbxydS9_NS2_14adl_serializerENS5_IhNS9_IhEEEEvEERNS9_ISF_EEE5clearB8ne180100Ev, symObjAddr: 0x6BD8, symBinAddr: 0x10001220C, symSize: 0x28 }
  - { offset: 0x61905, size: 0x8, addend: 0x0, symName: __ZNSt3__116allocator_traitsINS_9allocatorIN8nlohmann16json_abi_v3_11_310basic_jsonINS_3mapENS_6vectorENS_12basic_stringIcNS_11char_traitsIcEENS1_IcEEEEbxydS1_NS3_14adl_serializerENS6_IhNS1_IhEEEEvEEEEE10deallocateB8ne180100ERSG_PSF_m, symObjAddr: 0x6C00, symBinAddr: 0x100012234, symSize: 0x34 }
  - { offset: 0x61947, size: 0x8, addend: 0x0, symName: __ZNKSt3__114__split_bufferIN8nlohmann16json_abi_v3_11_310basic_jsonINS_3mapENS_6vectorENS_12basic_stringIcNS_11char_traitsIcEENS_9allocatorIcEEEEbxydS9_NS2_14adl_serializerENS5_IhNS9_IhEEEEvEERNS9_ISF_EEE8capacityB8ne180100Ev, symObjAddr: 0x6C34, symBinAddr: 0x100012268, symSize: 0x40 }
  - { offset: 0x6196D, size: 0x8, addend: 0x0, symName: __ZNSt3__114__split_bufferIN8nlohmann16json_abi_v3_11_310basic_jsonINS_3mapENS_6vectorENS_12basic_stringIcNS_11char_traitsIcEENS_9allocatorIcEEEEbxydS9_NS2_14adl_serializerENS5_IhNS9_IhEEEEvEERNS9_ISF_EEE17__destruct_at_endB8ne180100EPSF_, symObjAddr: 0x6C74, symBinAddr: 0x1000122A8, symSize: 0x2C }
  - { offset: 0x619A1, size: 0x8, addend: 0x0, symName: __ZNSt3__114__split_bufferIN8nlohmann16json_abi_v3_11_310basic_jsonINS_3mapENS_6vectorENS_12basic_stringIcNS_11char_traitsIcEENS_9allocatorIcEEEEbxydS9_NS2_14adl_serializerENS5_IhNS9_IhEEEEvEERNS9_ISF_EEE17__destruct_at_endB8ne180100EPSF_NS_17integral_constantIbLb0EEE, symObjAddr: 0x6CA0, symBinAddr: 0x1000122D4, symSize: 0x80 }
  - { offset: 0x619E2, size: 0x8, addend: 0x0, symName: __ZNSt3__19allocatorIN8nlohmann16json_abi_v3_11_310basic_jsonINS_3mapENS_6vectorENS_12basic_stringIcNS_11char_traitsIcEENS0_IcEEEEbxydS0_NS2_14adl_serializerENS5_IhNS0_IhEEEEvEEE10deallocateB8ne180100EPSE_m, symObjAddr: 0x6D20, symBinAddr: 0x100012354, symSize: 0x40 }
  - { offset: 0x61A24, size: 0x8, addend: 0x0, symName: __ZNKSt3__114__split_bufferIN8nlohmann16json_abi_v3_11_310basic_jsonINS_3mapENS_6vectorENS_12basic_stringIcNS_11char_traitsIcEENS_9allocatorIcEEEEbxydS9_NS2_14adl_serializerENS5_IhNS9_IhEEEEvEERNS9_ISF_EEE9__end_capB8ne180100Ev, symObjAddr: 0x6E68, symBinAddr: 0x100012394, symSize: 0x28 }
  - { offset: 0x61A4A, size: 0x8, addend: 0x0, symName: __ZNKSt3__117__compressed_pairIPN8nlohmann16json_abi_v3_11_310basic_jsonINS_3mapENS_6vectorENS_12basic_stringIcNS_11char_traitsIcEENS_9allocatorIcEEEEbxydS9_NS2_14adl_serializerENS5_IhNS9_IhEEEEvEERNS9_ISF_EEE5firstB8ne180100Ev, symObjAddr: 0x6E90, symBinAddr: 0x1000123BC, symSize: 0x24 }
  - { offset: 0x61A96, size: 0x8, addend: 0x0, symName: __ZNKSt3__111__move_loopINS_17_ClassicAlgPolicyEEclB8ne180100IPN8nlohmann16json_abi_v3_11_310basic_jsonINS_3mapENS_6vectorENS_12basic_stringIcNS_11char_traitsIcEENS_9allocatorIcEEEEbxydSC_NS5_14adl_serializerENS8_IhNSC_IhEEEEvEESJ_NS_20back_insert_iteratorINS8_ISI_NSC_ISI_EEEEEEEENS_4pairIT_T1_EESP_T0_SQ_, symObjAddr: 0x70C4, symBinAddr: 0x1000125F0, symSize: 0x98 }
  - { offset: 0x61B23, size: 0x8, addend: 0x0, symName: __ZNSt3__14pairIPN8nlohmann16json_abi_v3_11_310basic_jsonINS_3mapENS_6vectorENS_12basic_stringIcNS_11char_traitsIcEENS_9allocatorIcEEEEbxydS9_NS2_14adl_serializerENS5_IhNS9_IhEEEEvEESG_EC1B8ne180100ISG_SG_Li0EEEOT_OT0_, symObjAddr: 0x72BC, symBinAddr: 0x1000127E8, symSize: 0x3C }
  - { offset: 0x61B81, size: 0x8, addend: 0x0, symName: __ZNSt3__14pairIPN8nlohmann16json_abi_v3_11_310basic_jsonINS_3mapENS_6vectorENS_12basic_stringIcNS_11char_traitsIcEENS_9allocatorIcEEEEbxydS9_NS2_14adl_serializerENS5_IhNS9_IhEEEEvEESG_EC2B8ne180100ISG_SG_Li0EEEOT_OT0_, symObjAddr: 0x72F8, symBinAddr: 0x100012824, symSize: 0x34 }
  - { offset: 0x61BDF, size: 0x8, addend: 0x0, symName: __ZNSt3__118__unwrap_iter_implINS_11__wrap_iterIPN8nlohmann16json_abi_v3_11_310basic_jsonINS_3mapENS_6vectorENS_12basic_stringIcNS_11char_traitsIcEENS_9allocatorIcEEEEbxydSA_NS3_14adl_serializerENS6_IhNSA_IhEEEEvEEEELb1EE8__unwrapB8ne180100ESI_, symObjAddr: 0x732C, symBinAddr: 0x100012858, symSize: 0x28 }
  - { offset: 0x61C0D, size: 0x8, addend: 0x0, symName: __ZNSt3__119__to_address_helperINS_11__wrap_iterIPN8nlohmann16json_abi_v3_11_310basic_jsonINS_3mapENS_6vectorENS_12basic_stringIcNS_11char_traitsIcEENS_9allocatorIcEEEEbxydSA_NS3_14adl_serializerENS6_IhNSA_IhEEEEvEEEEvE6__callB8ne180100ERKSI_, symObjAddr: 0x7378, symBinAddr: 0x1000128A4, symSize: 0x30 }
  - { offset: 0x61C30, size: 0x8, addend: 0x0, symName: __ZNSt3__114pointer_traitsINS_11__wrap_iterIPN8nlohmann16json_abi_v3_11_310basic_jsonINS_3mapENS_6vectorENS_12basic_stringIcNS_11char_traitsIcEENS_9allocatorIcEEEEbxydSA_NS3_14adl_serializerENS6_IhNSA_IhEEEEvEEEEE10to_addressB8ne180100ESI_, symObjAddr: 0x73A8, symBinAddr: 0x1000128D4, symSize: 0x2C }
  - { offset: 0x61C53, size: 0x8, addend: 0x0, symName: __ZNKSt3__111__wrap_iterIPN8nlohmann16json_abi_v3_11_310basic_jsonINS_3mapENS_6vectorENS_12basic_stringIcNS_11char_traitsIcEENS_9allocatorIcEEEEbxydS9_NS2_14adl_serializerENS5_IhNS9_IhEEEEvEEE4baseB8ne180100Ev, symObjAddr: 0x73D4, symBinAddr: 0x100012900, symSize: 0x18 }
  - { offset: 0x61C7F, size: 0x8, addend: 0x0, symName: __ZNSt3__18_IterOpsINS_17_ClassicAlgPolicyEE11__iter_moveB8ne180100IRPN8nlohmann16json_abi_v3_11_310basic_jsonINS_3mapENS_6vectorENS_12basic_stringIcNS_11char_traitsIcEENS_9allocatorIcEEEEbxydSC_NS5_14adl_serializerENS8_IhNSC_IhEEEEvEELi0EEEDTclsr3stdE4movedeclsr3stdE7declvalIRT_EEEEOSL_, symObjAddr: 0x73EC, symBinAddr: 0x100012918, symSize: 0x28 }
  - { offset: 0x61CB1, size: 0x8, addend: 0x0, symName: __ZNSt3__120back_insert_iteratorINS_6vectorIN8nlohmann16json_abi_v3_11_310basic_jsonINS_3mapES1_NS_12basic_stringIcNS_11char_traitsIcEENS_9allocatorIcEEEEbxydS9_NS3_14adl_serializerENS1_IhNS9_IhEEEEvEENS9_ISF_EEEEEdeB8ne180100Ev, symObjAddr: 0x7414, symBinAddr: 0x100012940, symSize: 0x14 }
  - { offset: 0x61CD7, size: 0x8, addend: 0x0, symName: __ZNSt3__120back_insert_iteratorINS_6vectorIN8nlohmann16json_abi_v3_11_310basic_jsonINS_3mapES1_NS_12basic_stringIcNS_11char_traitsIcEENS_9allocatorIcEEEEbxydS9_NS3_14adl_serializerENS1_IhNS9_IhEEEEvEENS9_ISF_EEEEEaSB8ne180100EOSF_, symObjAddr: 0x7428, symBinAddr: 0x100012954, symSize: 0x38 }
  - { offset: 0x61D0B, size: 0x8, addend: 0x0, symName: __ZNSt3__120back_insert_iteratorINS_6vectorIN8nlohmann16json_abi_v3_11_310basic_jsonINS_3mapES1_NS_12basic_stringIcNS_11char_traitsIcEENS_9allocatorIcEEEEbxydS9_NS3_14adl_serializerENS1_IhNS9_IhEEEEvEENS9_ISF_EEEEEppB8ne180100Ev, symObjAddr: 0x7460, symBinAddr: 0x10001298C, symSize: 0x14 }
  - { offset: 0x61D31, size: 0x8, addend: 0x0, symName: __ZNSt3__18_IterOpsINS_17_ClassicAlgPolicyEE25__validate_iter_referenceB8ne180100IRPN8nlohmann16json_abi_v3_11_310basic_jsonINS_3mapENS_6vectorENS_12basic_stringIcNS_11char_traitsIcEENS_9allocatorIcEEEEbxydSC_NS5_14adl_serializerENS8_IhNSC_IhEEEEvEEEEvv, symObjAddr: 0x74AC, symBinAddr: 0x1000129D8, symSize: 0x4 }
  - { offset: 0x61D55, size: 0x8, addend: 0x0, symName: __ZNSt3__14pairIPN8nlohmann16json_abi_v3_11_310basic_jsonINS_3mapENS_6vectorENS_12basic_stringIcNS_11char_traitsIcEENS_9allocatorIcEEEEbxydS9_NS2_14adl_serializerENS5_IhNS9_IhEEEEvEENS_20back_insert_iteratorINS5_ISF_NS9_ISF_EEEEEEEC1B8ne180100ISG_SK_Li0EEEOT_OT0_, symObjAddr: 0x74B0, symBinAddr: 0x1000129DC, symSize: 0x3C }
  - { offset: 0x61DB3, size: 0x8, addend: 0x0, symName: __ZNSt3__14pairIPN8nlohmann16json_abi_v3_11_310basic_jsonINS_3mapENS_6vectorENS_12basic_stringIcNS_11char_traitsIcEENS_9allocatorIcEEEEbxydS9_NS2_14adl_serializerENS5_IhNS9_IhEEEEvEENS_20back_insert_iteratorINS5_ISF_NS9_ISF_EEEEEEEC2B8ne180100ISG_SK_Li0EEEOT_OT0_, symObjAddr: 0x74EC, symBinAddr: 0x100012A18, symSize: 0x34 }
  - { offset: 0x61E11, size: 0x8, addend: 0x0, symName: __ZNSt3__118__unwrap_iter_implINS_20back_insert_iteratorINS_6vectorIN8nlohmann16json_abi_v3_11_310basic_jsonINS_3mapES2_NS_12basic_stringIcNS_11char_traitsIcEENS_9allocatorIcEEEEbxydSA_NS4_14adl_serializerENS2_IhNSA_IhEEEEvEENSA_ISG_EEEEEELb0EE8__unwrapB8ne180100ESJ_, symObjAddr: 0x7520, symBinAddr: 0x100012A4C, symSize: 0x1C }
  - { offset: 0x61E56, size: 0x8, addend: 0x0, symName: __ZNSt3__14pairINS_11__wrap_iterIPN8nlohmann16json_abi_v3_11_310basic_jsonINS_3mapENS_6vectorENS_12basic_stringIcNS_11char_traitsIcEENS_9allocatorIcEEEEbxydSA_NS3_14adl_serializerENS6_IhNSA_IhEEEEvEEEENS_20back_insert_iteratorINS6_ISG_NSA_ISG_EEEEEEEC1B8ne180100ISI_SM_Li0EEEOT_OT0_, symObjAddr: 0x753C, symBinAddr: 0x100012A68, symSize: 0x3C }
  - { offset: 0x61EB4, size: 0x8, addend: 0x0, symName: __ZNSt3__14pairINS_11__wrap_iterIPN8nlohmann16json_abi_v3_11_310basic_jsonINS_3mapENS_6vectorENS_12basic_stringIcNS_11char_traitsIcEENS_9allocatorIcEEEEbxydSA_NS3_14adl_serializerENS6_IhNSA_IhEEEEvEEEENS_20back_insert_iteratorINS6_ISG_NSA_ISG_EEEEEEEC2B8ne180100ISI_SM_Li0EEEOT_OT0_, symObjAddr: 0x7578, symBinAddr: 0x100012AA4, symSize: 0x34 }
  - { offset: 0x61F12, size: 0x8, addend: 0x0, symName: __ZNSt3__118__unwrap_iter_implINS_11__wrap_iterIPN8nlohmann16json_abi_v3_11_310basic_jsonINS_3mapENS_6vectorENS_12basic_stringIcNS_11char_traitsIcEENS_9allocatorIcEEEEbxydSA_NS3_14adl_serializerENS6_IhNSA_IhEEEEvEEEELb1EE8__rewrapB8ne180100ESI_SH_, symObjAddr: 0x75F8, symBinAddr: 0x100012B24, symSize: 0x5C }
  - { offset: 0x61F43, size: 0x8, addend: 0x0, symName: __ZNKSt3__111__wrap_iterIPN8nlohmann16json_abi_v3_11_310basic_jsonINS_3mapENS_6vectorENS_12basic_stringIcNS_11char_traitsIcEENS_9allocatorIcEEEEbxydS9_NS2_14adl_serializerENS5_IhNS9_IhEEEEvEEEplB8ne180100El, symObjAddr: 0x7654, symBinAddr: 0x100012B80, symSize: 0x3C }
  - { offset: 0x61F86, size: 0x8, addend: 0x0, symName: __ZNSt3__111__wrap_iterIPN8nlohmann16json_abi_v3_11_310basic_jsonINS_3mapENS_6vectorENS_12basic_stringIcNS_11char_traitsIcEENS_9allocatorIcEEEEbxydS9_NS2_14adl_serializerENS5_IhNS9_IhEEEEvEEEpLB8ne180100El, symObjAddr: 0x7690, symBinAddr: 0x100012BBC, symSize: 0x28 }
  - { offset: 0x61FBA, size: 0x8, addend: 0x0, symName: __ZNSt3__118__unwrap_iter_implINS_20back_insert_iteratorINS_6vectorIN8nlohmann16json_abi_v3_11_310basic_jsonINS_3mapES2_NS_12basic_stringIcNS_11char_traitsIcEENS_9allocatorIcEEEEbxydSA_NS4_14adl_serializerENS2_IhNSA_IhEEEEvEENSA_ISG_EEEEEELb0EE8__rewrapB8ne180100ESJ_SJ_, symObjAddr: 0x76B8, symBinAddr: 0x100012BE4, symSize: 0x20 }
  - { offset: 0x61FE8, size: 0x8, addend: 0x0, symName: __ZNSt3__16vectorIN8nlohmann16json_abi_v3_11_310basic_jsonINS_3mapES0_NS_12basic_stringIcNS_11char_traitsIcEENS_9allocatorIcEEEEbxydS8_NS2_14adl_serializerENS0_IhNS8_IhEEEEvEENS8_ISE_EEE11__make_iterB8ne180100EPSE_, symObjAddr: 0x76D8, symBinAddr: 0x100012C04, symSize: 0x30 }
  - { offset: 0x6201D, size: 0x8, addend: 0x0, symName: __ZNSt3__111__wrap_iterIPN8nlohmann16json_abi_v3_11_310basic_jsonINS_3mapENS_6vectorENS_12basic_stringIcNS_11char_traitsIcEENS_9allocatorIcEEEEbxydS9_NS2_14adl_serializerENS5_IhNS9_IhEEEEvEEEC1B8ne180100ESG_, symObjAddr: 0x7708, symBinAddr: 0x100012C34, symSize: 0x34 }
  - { offset: 0x62055, size: 0x8, addend: 0x0, symName: __ZNSt3__111__wrap_iterIPN8nlohmann16json_abi_v3_11_310basic_jsonINS_3mapENS_6vectorENS_12basic_stringIcNS_11char_traitsIcEENS_9allocatorIcEEEEbxydS9_NS2_14adl_serializerENS5_IhNS9_IhEEEEvEEEC2B8ne180100ESG_, symObjAddr: 0x773C, symBinAddr: 0x100012C68, symSize: 0x20 }
  - { offset: 0x6208D, size: 0x8, addend: 0x0, symName: __ZNSt3__120back_insert_iteratorINS_6vectorIN8nlohmann16json_abi_v3_11_310basic_jsonINS_3mapES1_NS_12basic_stringIcNS_11char_traitsIcEENS_9allocatorIcEEEEbxydS9_NS3_14adl_serializerENS1_IhNS9_IhEEEEvEENS9_ISF_EEEEEC1B8ne180100ERSH_, symObjAddr: 0x775C, symBinAddr: 0x100012C88, symSize: 0x34 }
  - { offset: 0x620C5, size: 0x8, addend: 0x0, symName: __ZNSt3__120back_insert_iteratorINS_6vectorIN8nlohmann16json_abi_v3_11_310basic_jsonINS_3mapES1_NS_12basic_stringIcNS_11char_traitsIcEENS_9allocatorIcEEEEbxydS9_NS3_14adl_serializerENS1_IhNS9_IhEEEEvEENS9_ISF_EEEEEC2B8ne180100ERSH_, symObjAddr: 0x7790, symBinAddr: 0x100012CBC, symSize: 0x20 }
  - { offset: 0x620FD, size: 0x8, addend: 0x0, symName: __ZNKSt3__16__treeINS_12__value_typeINS_12basic_stringIcNS_11char_traitsIcEENS_9allocatorIcEEEEN8nlohmann16json_abi_v3_11_310basic_jsonINS_3mapENS_6vectorES7_bxydS5_NS9_14adl_serializerENSC_IhNS5_IhEEEEvEEEENS_19__map_value_compareIS7_SH_NS_4lessIvEELb1EEENS5_ISH_EEE4sizeB8ne180100Ev, symObjAddr: 0x77B0, symBinAddr: 0x100012CDC, symSize: 0x28 }
  - { offset: 0x62123, size: 0x8, addend: 0x0, symName: __ZNKSt3__117__compressed_pairImNS_19__map_value_compareINS_12basic_stringIcNS_11char_traitsIcEENS_9allocatorIcEEEENS_12__value_typeIS7_N8nlohmann16json_abi_v3_11_310basic_jsonINS_3mapENS_6vectorES7_bxydS5_NSA_14adl_serializerENSD_IhNS5_IhEEEEvEEEENS_4lessIvEELb1EEEE5firstB8ne180100Ev, symObjAddr: 0x77D8, symBinAddr: 0x100012D04, symSize: 0x24 }
  - { offset: 0x62149, size: 0x8, addend: 0x0, symName: __ZNKSt3__122__compressed_pair_elemImLi0ELb0EE5__getB8ne180100Ev, symObjAddr: 0x77FC, symBinAddr: 0x100012D28, symSize: 0x14 }
  - { offset: 0x6216F, size: 0x8, addend: 0x0, symName: __ZNSt3__16__treeINS_12__value_typeINS_12basic_stringIcNS_11char_traitsIcEENS_9allocatorIcEEEEN8nlohmann16json_abi_v3_11_310basic_jsonINS_3mapENS_6vectorES7_bxydS5_NS9_14adl_serializerENSC_IhNS5_IhEEEEvEEEENS_19__map_value_compareIS7_SH_NS_4lessIvEELb1EEENS5_ISH_EEE5beginB8ne180100Ev, symObjAddr: 0x7810, symBinAddr: 0x100012D3C, symSize: 0x34 }
  - { offset: 0x62195, size: 0x8, addend: 0x0, symName: __ZNSt3__114__map_iteratorINS_15__tree_iteratorINS_12__value_typeINS_12basic_stringIcNS_11char_traitsIcEENS_9allocatorIcEEEEN8nlohmann16json_abi_v3_11_310basic_jsonINS_3mapENS_6vectorES8_bxydS6_NSA_14adl_serializerENSD_IhNS6_IhEEEEvEEEEPNS_11__tree_nodeISI_PvEElEEEC1B8ne180100ESN_, symObjAddr: 0x7844, symBinAddr: 0x100012D70, symSize: 0x34 }
  - { offset: 0x621CE, size: 0x8, addend: 0x0, symName: __ZNSt3__16__treeINS_12__value_typeINS_12basic_stringIcNS_11char_traitsIcEENS_9allocatorIcEEEEN8nlohmann16json_abi_v3_11_310basic_jsonINS_3mapENS_6vectorES7_bxydS5_NS9_14adl_serializerENSC_IhNS5_IhEEEEvEEEENS_19__map_value_compareIS7_SH_NS_4lessIvEELb1EEENS5_ISH_EEE12__begin_nodeB8ne180100Ev, symObjAddr: 0x7878, symBinAddr: 0x100012DA4, symSize: 0x14 }
  - { offset: 0x621F4, size: 0x8, addend: 0x0, symName: __ZNSt3__115__tree_iteratorINS_12__value_typeINS_12basic_stringIcNS_11char_traitsIcEENS_9allocatorIcEEEEN8nlohmann16json_abi_v3_11_310basic_jsonINS_3mapENS_6vectorES7_bxydS5_NS9_14adl_serializerENSC_IhNS5_IhEEEEvEEEEPNS_11__tree_nodeISH_PvEElEC1B8ne180100EPNS_15__tree_end_nodeIPNS_16__tree_node_baseISJ_EEEE, symObjAddr: 0x788C, symBinAddr: 0x100012DB8, symSize: 0x34 }
  - { offset: 0x6222D, size: 0x8, addend: 0x0, symName: __ZNSt3__115__tree_iteratorINS_12__value_typeINS_12basic_stringIcNS_11char_traitsIcEENS_9allocatorIcEEEEN8nlohmann16json_abi_v3_11_310basic_jsonINS_3mapENS_6vectorES7_bxydS5_NS9_14adl_serializerENSC_IhNS5_IhEEEEvEEEEPNS_11__tree_nodeISH_PvEElEC2B8ne180100EPNS_15__tree_end_nodeIPNS_16__tree_node_baseISJ_EEEE, symObjAddr: 0x78C0, symBinAddr: 0x100012DEC, symSize: 0x20 }
  - { offset: 0x62266, size: 0x8, addend: 0x0, symName: __ZNSt3__114__map_iteratorINS_15__tree_iteratorINS_12__value_typeINS_12basic_stringIcNS_11char_traitsIcEENS_9allocatorIcEEEEN8nlohmann16json_abi_v3_11_310basic_jsonINS_3mapENS_6vectorES8_bxydS6_NSA_14adl_serializerENSD_IhNS6_IhEEEEvEEEEPNS_11__tree_nodeISI_PvEElEEEC2B8ne180100ESN_, symObjAddr: 0x78E0, symBinAddr: 0x100012E0C, symSize: 0x20 }
  - { offset: 0x6229F, size: 0x8, addend: 0x0, symName: __ZNSt3__16__treeINS_12__value_typeINS_12basic_stringIcNS_11char_traitsIcEENS_9allocatorIcEEEEN8nlohmann16json_abi_v3_11_310basic_jsonINS_3mapENS_6vectorES7_bxydS5_NS9_14adl_serializerENSC_IhNS5_IhEEEEvEEEENS_19__map_value_compareIS7_SH_NS_4lessIvEELb1EEENS5_ISH_EEE3endB8ne180100Ev, symObjAddr: 0x7900, symBinAddr: 0x100012E2C, symSize: 0x34 }
  - { offset: 0x622C5, size: 0x8, addend: 0x0, symName: __ZNSt3__16__treeINS_12__value_typeINS_12basic_stringIcNS_11char_traitsIcEENS_9allocatorIcEEEEN8nlohmann16json_abi_v3_11_310basic_jsonINS_3mapENS_6vectorES7_bxydS5_NS9_14adl_serializerENSC_IhNS5_IhEEEEvEEEENS_19__map_value_compareIS7_SH_NS_4lessIvEELb1EEENS5_ISH_EEE10__end_nodeB8ne180100Ev, symObjAddr: 0x7934, symBinAddr: 0x100012E60, symSize: 0x2C }
  - { offset: 0x622EB, size: 0x8, addend: 0x0, symName: __ZNSt3__114pointer_traitsIPNS_15__tree_end_nodeIPNS_16__tree_node_baseIPvEEEEE10pointer_toB8ne180100ERS6_, symObjAddr: 0x7960, symBinAddr: 0x100012E8C, symSize: 0x14 }
  - { offset: 0x6230E, size: 0x8, addend: 0x0, symName: __ZNSt3__117__compressed_pairINS_15__tree_end_nodeIPNS_16__tree_node_baseIPvEEEENS_9allocatorINS_11__tree_nodeINS_12__value_typeINS_12basic_stringIcNS_11char_traitsIcEENS7_IcEEEEN8nlohmann16json_abi_v3_11_310basic_jsonINS_3mapENS_6vectorESE_bxydS7_NSG_14adl_serializerENSJ_IhNS7_IhEEEEvEEEES3_EEEEE5firstB8ne180100Ev, symObjAddr: 0x7974, symBinAddr: 0x100012EA0, symSize: 0x24 }
  - { offset: 0x62334, size: 0x8, addend: 0x0, symName: __ZNSt3__122__compressed_pair_elemINS_15__tree_end_nodeIPNS_16__tree_node_baseIPvEEEELi0ELb0EE5__getB8ne180100Ev, symObjAddr: 0x7998, symBinAddr: 0x100012EC4, symSize: 0x14 }
  - { offset: 0x6235A, size: 0x8, addend: 0x0, symName: __ZNKSt3__115__tree_iteratorINS_12__value_typeINS_12basic_stringIcNS_11char_traitsIcEENS_9allocatorIcEEEEN8nlohmann16json_abi_v3_11_310basic_jsonINS_3mapENS_6vectorES7_bxydS5_NS9_14adl_serializerENSC_IhNS5_IhEEEEvEEEEPNS_11__tree_nodeISH_PvEElEptB8ne180100Ev, symObjAddr: 0x7A10, symBinAddr: 0x100012F3C, symSize: 0x2C }
  - { offset: 0x62380, size: 0x8, addend: 0x0, symName: __ZNSt3__112__value_typeINS_12basic_stringIcNS_11char_traitsIcEENS_9allocatorIcEEEEN8nlohmann16json_abi_v3_11_310basic_jsonINS_3mapENS_6vectorES6_bxydS4_NS8_14adl_serializerENSB_IhNS4_IhEEEEvEEE11__get_valueB8ne180100Ev, symObjAddr: 0x7A3C, symBinAddr: 0x100012F68, symSize: 0x24 }
  - { offset: 0x623A6, size: 0x8, addend: 0x0, symName: __ZNSt3__114pointer_traitsIPNS_12__value_typeINS_12basic_stringIcNS_11char_traitsIcEENS_9allocatorIcEEEEN8nlohmann16json_abi_v3_11_310basic_jsonINS_3mapENS_6vectorES7_bxydS5_NS9_14adl_serializerENSC_IhNS5_IhEEEEvEEEEE10pointer_toB8ne180100ERSH_, symObjAddr: 0x7A60, symBinAddr: 0x100012F8C, symSize: 0x14 }
  - { offset: 0x623C9, size: 0x8, addend: 0x0, symName: __ZNKSt3__115__tree_iteratorINS_12__value_typeINS_12basic_stringIcNS_11char_traitsIcEENS_9allocatorIcEEEEN8nlohmann16json_abi_v3_11_310basic_jsonINS_3mapENS_6vectorES7_bxydS5_NS9_14adl_serializerENSC_IhNS5_IhEEEEvEEEEPNS_11__tree_nodeISH_PvEElE8__get_npB8ne180100Ev, symObjAddr: 0x7A74, symBinAddr: 0x100012FA0, symSize: 0x18 }
  - { offset: 0x623EF, size: 0x8, addend: 0x0, symName: __ZNSt3__16vectorIN8nlohmann16json_abi_v3_11_310basic_jsonINS_3mapES0_NS_12basic_stringIcNS_11char_traitsIcEENS_9allocatorIcEEEEbxydS8_NS2_14adl_serializerENS0_IhNS8_IhEEEEvEENS8_ISE_EEE22__construct_one_at_endB8ne180100IJSE_EEEvDpOT_, symObjAddr: 0x7AC4, symBinAddr: 0x100012FF0, symSize: 0x90 }
  - { offset: 0x6243E, size: 0x8, addend: 0x0, symName: __ZNSt3__16vectorIN8nlohmann16json_abi_v3_11_310basic_jsonINS_3mapES0_NS_12basic_stringIcNS_11char_traitsIcEENS_9allocatorIcEEEEbxydS8_NS2_14adl_serializerENS0_IhNS8_IhEEEEvEENS8_ISE_EEE21__push_back_slow_pathISE_EEPSE_OT_, symObjAddr: 0x7B54, symBinAddr: 0x100013080, symSize: 0xE8 }
  - { offset: 0x624B7, size: 0x8, addend: 0x0, symName: __ZNSt3__16vectorIN8nlohmann16json_abi_v3_11_310basic_jsonINS_3mapES0_NS_12basic_stringIcNS_11char_traitsIcEENS_9allocatorIcEEEEbxydS8_NS2_14adl_serializerENS0_IhNS8_IhEEEEvEENS8_ISE_EEE21_ConstructTransactionC1B8ne180100ERSG_m, symObjAddr: 0x7C3C, symBinAddr: 0x100013168, symSize: 0x3C }
  - { offset: 0x624FF, size: 0x8, addend: 0x0, symName: __ZNSt3__16vectorIN8nlohmann16json_abi_v3_11_310basic_jsonINS_3mapES0_NS_12basic_stringIcNS_11char_traitsIcEENS_9allocatorIcEEEEbxydS8_NS2_14adl_serializerENS0_IhNS8_IhEEEEvEENS8_ISE_EEE21_ConstructTransactionD1B8ne180100Ev, symObjAddr: 0x7C78, symBinAddr: 0x1000131A4, symSize: 0x2C }
  - { offset: 0x62529, size: 0x8, addend: 0x0, symName: __ZNSt3__16vectorIN8nlohmann16json_abi_v3_11_310basic_jsonINS_3mapES0_NS_12basic_stringIcNS_11char_traitsIcEENS_9allocatorIcEEEEbxydS8_NS2_14adl_serializerENS0_IhNS8_IhEEEEvEENS8_ISE_EEE21_ConstructTransactionC2B8ne180100ERSG_m, symObjAddr: 0x7CA4, symBinAddr: 0x1000131D0, symSize: 0x44 }
  - { offset: 0x62571, size: 0x8, addend: 0x0, symName: __ZNSt3__16vectorIN8nlohmann16json_abi_v3_11_310basic_jsonINS_3mapES0_NS_12basic_stringIcNS_11char_traitsIcEENS_9allocatorIcEEEEbxydS8_NS2_14adl_serializerENS0_IhNS8_IhEEEEvEENS8_ISE_EEE21_ConstructTransactionD2B8ne180100Ev, symObjAddr: 0x7CE8, symBinAddr: 0x100013214, symSize: 0x20 }
  - { offset: 0x6259B, size: 0x8, addend: 0x0, symName: __ZNKSt3__16vectorIN8nlohmann16json_abi_v3_11_310basic_jsonINS_3mapES0_NS_12basic_stringIcNS_11char_traitsIcEENS_9allocatorIcEEEEbxydS8_NS2_14adl_serializerENS0_IhNS8_IhEEEEvEENS8_ISE_EEE11__recommendB8ne180100Em, symObjAddr: 0x7D08, symBinAddr: 0x100013234, symSize: 0xB4 }
  - { offset: 0x625F0, size: 0x8, addend: 0x0, symName: __ZNSt3__115__tree_iteratorINS_12__value_typeINS_12basic_stringIcNS_11char_traitsIcEENS_9allocatorIcEEEEN8nlohmann16json_abi_v3_11_310basic_jsonINS_3mapENS_6vectorES7_bxydS5_NS9_14adl_serializerENSC_IhNS5_IhEEEEvEEEEPNS_11__tree_nodeISH_PvEElEppB8ne180100Ev, symObjAddr: 0x7E3C, symBinAddr: 0x1000132E8, symSize: 0x38 }
  - { offset: 0x62616, size: 0x8, addend: 0x0, symName: __ZNKSt3__116__tree_node_baseIPvE15__parent_unsafeB8ne180100Ev, symObjAddr: 0x7F70, symBinAddr: 0x10001341C, symSize: 0x18 }
  - { offset: 0x6263C, size: 0x8, addend: 0x0, symName: __ZN8nlohmann16json_abi_v3_11_310basic_jsonINSt3__13mapENS2_6vectorENS2_12basic_stringIcNS2_11char_traitsIcEENS2_9allocatorIcEEEEbxydS8_NS0_14adl_serializerENS4_IhNS8_IhEEEEvEC2EOSE_, symObjAddr: 0x7F88, symBinAddr: 0x100013434, symSize: 0x80 }
  - { offset: 0x62675, size: 0x8, addend: 0x0, symName: __ZN8nlohmann16json_abi_v3_11_310basic_jsonINSt3__13mapENS2_6vectorENS2_12basic_stringIcNS2_11char_traitsIcEENS2_9allocatorIcEEEEbxydS8_NS0_14adl_serializerENS4_IhNS8_IhEEEEvE11set_parentsEv, symObjAddr: 0x8008, symBinAddr: 0x1000134B4, symSize: 0x10 }
  - { offset: 0x6269B, size: 0x8, addend: 0x0, symName: __ZNSt3__16vectorIN8nlohmann16json_abi_v3_11_310basic_jsonINS_3mapES0_NS_12basic_stringIcNS_11char_traitsIcEENS_9allocatorIcEEEEbxydS8_NS2_14adl_serializerENS0_IhNS8_IhEEEEvEENS8_ISE_EEE17__destruct_at_endB8ne180100EPSE_, symObjAddr: 0x8018, symBinAddr: 0x1000134C4, symSize: 0x4C }
  - { offset: 0x626DF, size: 0x8, addend: 0x0, symName: __ZNSt3__16vectorIN8nlohmann16json_abi_v3_11_310basic_jsonINS_3mapES0_NS_12basic_stringIcNS_11char_traitsIcEENS_9allocatorIcEEEEbxydS8_NS2_14adl_serializerENS0_IhNS8_IhEEEEvEENS8_ISE_EEE22__base_destruct_at_endB8ne180100EPSE_, symObjAddr: 0x8064, symBinAddr: 0x100013510, symSize: 0x8C }
  - { offset: 0x62723, size: 0x8, addend: 0x0, symName: __ZNKSt3__16vectorIN8nlohmann16json_abi_v3_11_310basic_jsonINS_3mapES0_NS_12basic_stringIcNS_11char_traitsIcEENS_9allocatorIcEEEEbxydS8_NS2_14adl_serializerENS0_IhNS8_IhEEEEvEENS8_ISE_EEE17__annotate_shrinkB8ne180100Em, symObjAddr: 0x80F0, symBinAddr: 0x10001359C, symSize: 0x14 }
  - { offset: 0x62758, size: 0x8, addend: 0x0, symName: __ZNSt3__16vectorIN8nlohmann16json_abi_v3_11_310basic_jsonINS_3mapES0_NS_12basic_stringIcNS_11char_traitsIcEENS_9allocatorIcEEEEbxydS8_NS2_14adl_serializerENS0_IhNS8_IhEEEEvEENS8_ISE_EEE7__clearB8ne180100Ev, symObjAddr: 0x8104, symBinAddr: 0x1000135B0, symSize: 0x28 }
  - { offset: 0x6277E, size: 0x8, addend: 0x0, symName: __ZNSt3__16__treeINS_12__value_typeINS_12basic_stringIcNS_11char_traitsIcEENS_9allocatorIcEEEEN8nlohmann16json_abi_v3_11_310basic_jsonINS_3mapENS_6vectorES7_bxydS5_NS9_14adl_serializerENSC_IhNS5_IhEEEEvEEEENS_19__map_value_compareIS7_SH_NS_4lessIvEELb1EEENS5_ISH_EEE5clearEv, symObjAddr: 0x812C, symBinAddr: 0x1000135D8, symSize: 0x74 }
  - { offset: 0x627A6, size: 0x8, addend: 0x0, symName: __ZNSt3__16__treeINS_12__value_typeINS_12basic_stringIcNS_11char_traitsIcEENS_9allocatorIcEEEEN8nlohmann16json_abi_v3_11_310basic_jsonINS_3mapENS_6vectorES7_bxydS5_NS9_14adl_serializerENSC_IhNS5_IhEEEEvEEEENS_19__map_value_compareIS7_SH_NS_4lessIvEELb1EEENS5_ISH_EEE7destroyEPNS_11__tree_nodeISH_PvEE, symObjAddr: 0x81A0, symBinAddr: 0x10001364C, symSize: 0xAC }
  - { offset: 0x627F3, size: 0x8, addend: 0x0, symName: __ZNKSt3__16__treeINS_12__value_typeINS_12basic_stringIcNS_11char_traitsIcEENS_9allocatorIcEEEEN8nlohmann16json_abi_v3_11_310basic_jsonINS_3mapENS_6vectorES7_bxydS5_NS9_14adl_serializerENSC_IhNS5_IhEEEEvEEEENS_19__map_value_compareIS7_SH_NS_4lessIvEELb1EEENS5_ISH_EEE6__rootB8ne180100Ev, symObjAddr: 0x824C, symBinAddr: 0x1000136F8, symSize: 0x28 }
  - { offset: 0x62819, size: 0x8, addend: 0x0, symName: __ZNSt3__16__treeINS_12__value_typeINS_12basic_stringIcNS_11char_traitsIcEENS_9allocatorIcEEEEN8nlohmann16json_abi_v3_11_310basic_jsonINS_3mapENS_6vectorES7_bxydS5_NS9_14adl_serializerENSC_IhNS5_IhEEEEvEEEENS_19__map_value_compareIS7_SH_NS_4lessIvEELb1EEENS5_ISH_EEE4sizeB8ne180100Ev, symObjAddr: 0x8274, symBinAddr: 0x100013720, symSize: 0x28 }
  - { offset: 0x6283F, size: 0x8, addend: 0x0, symName: __ZNSt3__16__treeINS_12__value_typeINS_12basic_stringIcNS_11char_traitsIcEENS_9allocatorIcEEEEN8nlohmann16json_abi_v3_11_310basic_jsonINS_3mapENS_6vectorES7_bxydS5_NS9_14adl_serializerENSC_IhNS5_IhEEEEvEEEENS_19__map_value_compareIS7_SH_NS_4lessIvEELb1EEENS5_ISH_EEE12__node_allocB8ne180100Ev, symObjAddr: 0x829C, symBinAddr: 0x100013748, symSize: 0x28 }
  - { offset: 0x62865, size: 0x8, addend: 0x0, symName: __ZNSt3__116allocator_traitsINS_9allocatorINS_11__tree_nodeINS_12__value_typeINS_12basic_stringIcNS_11char_traitsIcEENS1_IcEEEEN8nlohmann16json_abi_v3_11_310basic_jsonINS_3mapENS_6vectorES8_bxydS1_NSA_14adl_serializerENSD_IhNS1_IhEEEEvEEEEPvEEEEE7destroyB8ne180100INS_4pairIKS8_SH_EEvvEEvRSL_PT_, symObjAddr: 0x82C4, symBinAddr: 0x100013770, symSize: 0x28 }
  - { offset: 0x628A0, size: 0x8, addend: 0x0, symName: __ZNSt3__122__tree_key_value_typesINS_12__value_typeINS_12basic_stringIcNS_11char_traitsIcEENS_9allocatorIcEEEEN8nlohmann16json_abi_v3_11_310basic_jsonINS_3mapENS_6vectorES7_bxydS5_NS9_14adl_serializerENSC_IhNS5_IhEEEEvEEEEE9__get_ptrB8ne180100ERSH_, symObjAddr: 0x82EC, symBinAddr: 0x100013798, symSize: 0x24 }
  - { offset: 0x628C4, size: 0x8, addend: 0x0, symName: __ZNSt3__116allocator_traitsINS_9allocatorINS_11__tree_nodeINS_12__value_typeINS_12basic_stringIcNS_11char_traitsIcEENS1_IcEEEEN8nlohmann16json_abi_v3_11_310basic_jsonINS_3mapENS_6vectorES8_bxydS1_NSA_14adl_serializerENSD_IhNS1_IhEEEEvEEEEPvEEEEE10deallocateB8ne180100ERSL_PSK_m, symObjAddr: 0x8310, symBinAddr: 0x1000137BC, symSize: 0x34 }
  - { offset: 0x62906, size: 0x8, addend: 0x0, symName: __ZNSt3__117__compressed_pairINS_15__tree_end_nodeIPNS_16__tree_node_baseIPvEEEENS_9allocatorINS_11__tree_nodeINS_12__value_typeINS_12basic_stringIcNS_11char_traitsIcEENS7_IcEEEEN8nlohmann16json_abi_v3_11_310basic_jsonINS_3mapENS_6vectorESE_bxydS7_NSG_14adl_serializerENSJ_IhNS7_IhEEEEvEEEES3_EEEEE6secondB8ne180100Ev, symObjAddr: 0x8344, symBinAddr: 0x1000137F0, symSize: 0x24 }
  - { offset: 0x6292C, size: 0x8, addend: 0x0, symName: __ZNSt3__122__compressed_pair_elemINS_9allocatorINS_11__tree_nodeINS_12__value_typeINS_12basic_stringIcNS_11char_traitsIcEENS1_IcEEEEN8nlohmann16json_abi_v3_11_310basic_jsonINS_3mapENS_6vectorES8_bxydS1_NSA_14adl_serializerENSD_IhNS1_IhEEEEvEEEEPvEEEELi1ELb1EE5__getB8ne180100Ev, symObjAddr: 0x8368, symBinAddr: 0x100013814, symSize: 0x14 }
  - { offset: 0x62952, size: 0x8, addend: 0x0, symName: __ZNSt3__14pairIKNS_12basic_stringIcNS_11char_traitsIcEENS_9allocatorIcEEEEN8nlohmann16json_abi_v3_11_310basic_jsonINS_3mapENS_6vectorES6_bxydS4_NS9_14adl_serializerENSC_IhNS4_IhEEEEvEEED1Ev, symObjAddr: 0x83A0, symBinAddr: 0x10001384C, symSize: 0x2C }
  - { offset: 0x6297E, size: 0x8, addend: 0x0, symName: __ZNSt3__14pairIKNS_12basic_stringIcNS_11char_traitsIcEENS_9allocatorIcEEEEN8nlohmann16json_abi_v3_11_310basic_jsonINS_3mapENS_6vectorES6_bxydS4_NS9_14adl_serializerENSC_IhNS4_IhEEEEvEEED2Ev, symObjAddr: 0x83CC, symBinAddr: 0x100013878, symSize: 0x38 }
  - { offset: 0x629AA, size: 0x8, addend: 0x0, symName: __ZNSt3__19allocatorINS_11__tree_nodeINS_12__value_typeINS_12basic_stringIcNS_11char_traitsIcEENS0_IcEEEEN8nlohmann16json_abi_v3_11_310basic_jsonINS_3mapENS_6vectorES7_bxydS0_NS9_14adl_serializerENSC_IhNS0_IhEEEEvEEEEPvEEE10deallocateB8ne180100EPSJ_m, symObjAddr: 0x8404, symBinAddr: 0x1000138B0, symSize: 0x44 }
  - { offset: 0x629EC, size: 0x8, addend: 0x0, symName: __ZNKSt3__16__treeINS_12__value_typeINS_12basic_stringIcNS_11char_traitsIcEENS_9allocatorIcEEEEN8nlohmann16json_abi_v3_11_310basic_jsonINS_3mapENS_6vectorES7_bxydS5_NS9_14adl_serializerENSC_IhNS5_IhEEEEvEEEENS_19__map_value_compareIS7_SH_NS_4lessIvEELb1EEENS5_ISH_EEE10__end_nodeB8ne180100Ev, symObjAddr: 0x8448, symBinAddr: 0x1000138F4, symSize: 0x2C }
  - { offset: 0x62A12, size: 0x8, addend: 0x0, symName: __ZNKSt3__117__compressed_pairINS_15__tree_end_nodeIPNS_16__tree_node_baseIPvEEEENS_9allocatorINS_11__tree_nodeINS_12__value_typeINS_12basic_stringIcNS_11char_traitsIcEENS7_IcEEEEN8nlohmann16json_abi_v3_11_310basic_jsonINS_3mapENS_6vectorESE_bxydS7_NSG_14adl_serializerENSJ_IhNS7_IhEEEEvEEEES3_EEEEE5firstB8ne180100Ev, symObjAddr: 0x8474, symBinAddr: 0x100013920, symSize: 0x24 }
  - { offset: 0x62A38, size: 0x8, addend: 0x0, symName: __ZNKSt3__122__compressed_pair_elemINS_15__tree_end_nodeIPNS_16__tree_node_baseIPvEEEELi0ELb0EE5__getB8ne180100Ev, symObjAddr: 0x8498, symBinAddr: 0x100013944, symSize: 0x14 }
  - { offset: 0x62A5E, size: 0x8, addend: 0x0, symName: __ZNSt3__117__compressed_pairImNS_19__map_value_compareINS_12basic_stringIcNS_11char_traitsIcEENS_9allocatorIcEEEENS_12__value_typeIS7_N8nlohmann16json_abi_v3_11_310basic_jsonINS_3mapENS_6vectorES7_bxydS5_NSA_14adl_serializerENSD_IhNS5_IhEEEEvEEEENS_4lessIvEELb1EEEE5firstB8ne180100Ev, symObjAddr: 0x84AC, symBinAddr: 0x100013958, symSize: 0x24 }
  - { offset: 0x62A84, size: 0x8, addend: 0x0, symName: __ZNSt3__16vectorIN8nlohmann16json_abi_v3_11_310basic_jsonINS_3mapES0_NS_12basic_stringIcNS_11char_traitsIcEENS_9allocatorIcEEEEbxydS8_NS2_14adl_serializerENS0_IhNS8_IhEEEEvEENS8_ISE_EEED2B8ne180100Ev, symObjAddr: 0x84E4, symBinAddr: 0x10001397C, symSize: 0x44 }
  - { offset: 0x62AAE, size: 0x8, addend: 0x0, symName: __ZNSt3__16vectorIN8nlohmann16json_abi_v3_11_310basic_jsonINS_3mapES0_NS_12basic_stringIcNS_11char_traitsIcEENS_9allocatorIcEEEEbxydS8_NS2_14adl_serializerENS0_IhNS8_IhEEEEvEENS8_ISE_EEE16__destroy_vectorC1B8ne180100ERSG_, symObjAddr: 0x8528, symBinAddr: 0x1000139C0, symSize: 0x34 }
  - { offset: 0x62AE7, size: 0x8, addend: 0x0, symName: __ZNSt3__16vectorIN8nlohmann16json_abi_v3_11_310basic_jsonINS_3mapES0_NS_12basic_stringIcNS_11char_traitsIcEENS_9allocatorIcEEEEbxydS8_NS2_14adl_serializerENS0_IhNS8_IhEEEEvEENS8_ISE_EEE16__destroy_vectorclB8ne180100Ev, symObjAddr: 0x855C, symBinAddr: 0x1000139F4, symSize: 0x90 }
  - { offset: 0x62B0D, size: 0x8, addend: 0x0, symName: __ZNSt3__16vectorIN8nlohmann16json_abi_v3_11_310basic_jsonINS_3mapES0_NS_12basic_stringIcNS_11char_traitsIcEENS_9allocatorIcEEEEbxydS8_NS2_14adl_serializerENS0_IhNS8_IhEEEEvEENS8_ISE_EEE16__destroy_vectorC2B8ne180100ERSG_, symObjAddr: 0x85EC, symBinAddr: 0x100013A84, symSize: 0x20 }
  - { offset: 0x62B46, size: 0x8, addend: 0x0, symName: __ZNSt3__19allocatorINS_3mapINS_12basic_stringIcNS_11char_traitsIcEENS0_IcEEEEN8nlohmann16json_abi_v3_11_310basic_jsonIS1_NS_6vectorES6_bxydS0_NS8_14adl_serializerENSA_IhNS0_IhEEEEvEENS_4lessIvEENS0_INS_4pairIKS6_SE_EEEEEEEC2B8ne180100Ev, symObjAddr: 0x860C, symBinAddr: 0x100013AA4, symSize: 0x2C }
  - { offset: 0x62B70, size: 0x8, addend: 0x0, symName: __ZNSt3__116__non_trivial_ifILb1ENS_9allocatorINS_3mapINS_12basic_stringIcNS_11char_traitsIcEENS1_IcEEEEN8nlohmann16json_abi_v3_11_310basic_jsonIS2_NS_6vectorES7_bxydS1_NS9_14adl_serializerENSB_IhNS1_IhEEEEvEENS_4lessIvEENS1_INS_4pairIKS7_SF_EEEEEEEEEC2B8ne180100Ev, symObjAddr: 0x8638, symBinAddr: 0x100013AD0, symSize: 0x14 }
  - { offset: 0x62B9A, size: 0x8, addend: 0x0, symName: __ZNSt3__19allocatorINS_3mapINS_12basic_stringIcNS_11char_traitsIcEENS0_IcEEEEN8nlohmann16json_abi_v3_11_310basic_jsonIS1_NS_6vectorES6_bxydS0_NS8_14adl_serializerENSA_IhNS0_IhEEEEvEENS_4lessIvEENS0_INS_4pairIKS6_SE_EEEEEEE7destroyB8ne180100EPSL_, symObjAddr: 0x864C, symBinAddr: 0x100013AE4, symSize: 0x28 }
  - { offset: 0x62BCE, size: 0x8, addend: 0x0, symName: __ZNSt3__13mapINS_12basic_stringIcNS_11char_traitsIcEENS_9allocatorIcEEEEN8nlohmann16json_abi_v3_11_310basic_jsonIS0_NS_6vectorES6_bxydS4_NS8_14adl_serializerENSA_IhNS4_IhEEEEvEENS_4lessIvEENS4_INS_4pairIKS6_SE_EEEEED1B8ne180100Ev, symObjAddr: 0x8674, symBinAddr: 0x100013B0C, symSize: 0x2C }
  - { offset: 0x62BF8, size: 0x8, addend: 0x0, symName: __ZNSt3__13mapINS_12basic_stringIcNS_11char_traitsIcEENS_9allocatorIcEEEEN8nlohmann16json_abi_v3_11_310basic_jsonIS0_NS_6vectorES6_bxydS4_NS8_14adl_serializerENSA_IhNS4_IhEEEEvEENS_4lessIvEENS4_INS_4pairIKS6_SE_EEEEED2B8ne180100Ev, symObjAddr: 0x86A0, symBinAddr: 0x100013B38, symSize: 0x2C }
  - { offset: 0x62C22, size: 0x8, addend: 0x0, symName: __ZNSt3__16__treeINS_12__value_typeINS_12basic_stringIcNS_11char_traitsIcEENS_9allocatorIcEEEEN8nlohmann16json_abi_v3_11_310basic_jsonINS_3mapENS_6vectorES7_bxydS5_NS9_14adl_serializerENSC_IhNS5_IhEEEEvEEEENS_19__map_value_compareIS7_SH_NS_4lessIvEELb1EEENS5_ISH_EEED1Ev, symObjAddr: 0x86CC, symBinAddr: 0x100013B64, symSize: 0x2C }
  - { offset: 0x62C4E, size: 0x8, addend: 0x0, symName: __ZNSt3__16__treeINS_12__value_typeINS_12basic_stringIcNS_11char_traitsIcEENS_9allocatorIcEEEEN8nlohmann16json_abi_v3_11_310basic_jsonINS_3mapENS_6vectorES7_bxydS5_NS9_14adl_serializerENSC_IhNS5_IhEEEEvEEEENS_19__map_value_compareIS7_SH_NS_4lessIvEELb1EEENS5_ISH_EEED2Ev, symObjAddr: 0x86F8, symBinAddr: 0x100013B90, symSize: 0x38 }
  - { offset: 0x62C7A, size: 0x8, addend: 0x0, symName: __ZNSt3__19allocatorINS_3mapINS_12basic_stringIcNS_11char_traitsIcEENS0_IcEEEEN8nlohmann16json_abi_v3_11_310basic_jsonIS1_NS_6vectorES6_bxydS0_NS8_14adl_serializerENSA_IhNS0_IhEEEEvEENS_4lessIvEENS0_INS_4pairIKS6_SE_EEEEEEE10deallocateB8ne180100EPSL_m, symObjAddr: 0x8730, symBinAddr: 0x100013BC8, symSize: 0x44 }
  - { offset: 0x62CBC, size: 0x8, addend: 0x0, symName: __ZNSt3__19allocatorINS_6vectorIN8nlohmann16json_abi_v3_11_310basic_jsonINS_3mapES1_NS_12basic_stringIcNS_11char_traitsIcEENS0_IcEEEEbxydS0_NS3_14adl_serializerENS1_IhNS0_IhEEEEvEENS0_ISE_EEEEEC2B8ne180100Ev, symObjAddr: 0x8774, symBinAddr: 0x100013C0C, symSize: 0x2C }
  - { offset: 0x62CE6, size: 0x8, addend: 0x0, symName: __ZNSt3__116__non_trivial_ifILb1ENS_9allocatorINS_6vectorIN8nlohmann16json_abi_v3_11_310basic_jsonINS_3mapES2_NS_12basic_stringIcNS_11char_traitsIcEENS1_IcEEEEbxydS1_NS4_14adl_serializerENS2_IhNS1_IhEEEEvEENS1_ISF_EEEEEEEC2B8ne180100Ev, symObjAddr: 0x87A0, symBinAddr: 0x100013C38, symSize: 0x14 }
  - { offset: 0x62D10, size: 0x8, addend: 0x0, symName: __ZNSt3__19allocatorINS_6vectorIN8nlohmann16json_abi_v3_11_310basic_jsonINS_3mapES1_NS_12basic_stringIcNS_11char_traitsIcEENS0_IcEEEEbxydS0_NS3_14adl_serializerENS1_IhNS0_IhEEEEvEENS0_ISE_EEEEE7destroyB8ne180100EPSG_, symObjAddr: 0x87B4, symBinAddr: 0x100013C4C, symSize: 0x28 }
  - { offset: 0x62D44, size: 0x8, addend: 0x0, symName: __ZNSt3__19allocatorINS_6vectorIN8nlohmann16json_abi_v3_11_310basic_jsonINS_3mapES1_NS_12basic_stringIcNS_11char_traitsIcEENS0_IcEEEEbxydS0_NS3_14adl_serializerENS1_IhNS0_IhEEEEvEENS0_ISE_EEEEE10deallocateB8ne180100EPSG_m, symObjAddr: 0x87DC, symBinAddr: 0x100013C74, symSize: 0x44 }
  - { offset: 0x62D86, size: 0x8, addend: 0x0, symName: __ZNSt3__19allocatorINS_12basic_stringIcNS_11char_traitsIcEENS0_IcEEEEEC2B8ne180100Ev, symObjAddr: 0x8820, symBinAddr: 0x100013CB8, symSize: 0x2C }
  - { offset: 0x62DB0, size: 0x8, addend: 0x0, symName: __ZNSt3__116__non_trivial_ifILb1ENS_9allocatorINS_12basic_stringIcNS_11char_traitsIcEENS1_IcEEEEEEEC2B8ne180100Ev, symObjAddr: 0x884C, symBinAddr: 0x100013CE4, symSize: 0x14 }
  - { offset: 0x62DDA, size: 0x8, addend: 0x0, symName: __ZNSt3__19allocatorINS_12basic_stringIcNS_11char_traitsIcEENS0_IcEEEEE7destroyB8ne180100EPS5_, symObjAddr: 0x8860, symBinAddr: 0x100013CF8, symSize: 0x28 }
  - { offset: 0x62E0E, size: 0x8, addend: 0x0, symName: __ZNSt3__19allocatorINS_12basic_stringIcNS_11char_traitsIcEENS0_IcEEEEE10deallocateB8ne180100EPS5_m, symObjAddr: 0x8888, symBinAddr: 0x100013D20, symSize: 0x44 }
  - { offset: 0x62E50, size: 0x8, addend: 0x0, symName: __ZNSt3__19allocatorIN8nlohmann16json_abi_v3_11_327byte_container_with_subtypeINS_6vectorIhNS0_IhEEEEEEEC2B8ne180100Ev, symObjAddr: 0x88CC, symBinAddr: 0x100013D64, symSize: 0x2C }
  - { offset: 0x62E7A, size: 0x8, addend: 0x0, symName: __ZNSt3__116__non_trivial_ifILb1ENS_9allocatorIN8nlohmann16json_abi_v3_11_327byte_container_with_subtypeINS_6vectorIhNS1_IhEEEEEEEEEC2B8ne180100Ev, symObjAddr: 0x88F8, symBinAddr: 0x100013D90, symSize: 0x14 }
  - { offset: 0x62EA4, size: 0x8, addend: 0x0, symName: __ZNSt3__19allocatorIN8nlohmann16json_abi_v3_11_327byte_container_with_subtypeINS_6vectorIhNS0_IhEEEEEEE7destroyB8ne180100EPS7_, symObjAddr: 0x890C, symBinAddr: 0x100013DA4, symSize: 0x28 }
  - { offset: 0x62ED8, size: 0x8, addend: 0x0, symName: __ZN8nlohmann16json_abi_v3_11_327byte_container_with_subtypeINSt3__16vectorIhNS2_9allocatorIhEEEEED1Ev, symObjAddr: 0x8934, symBinAddr: 0x100013DCC, symSize: 0x2C }
  - { offset: 0x62F04, size: 0x8, addend: 0x0, symName: __ZN8nlohmann16json_abi_v3_11_327byte_container_with_subtypeINSt3__16vectorIhNS2_9allocatorIhEEEEED2Ev, symObjAddr: 0x8960, symBinAddr: 0x100013DF8, symSize: 0x2C }
  - { offset: 0x62F30, size: 0x8, addend: 0x0, symName: __ZNSt3__16vectorIhNS_9allocatorIhEEED2B8ne180100Ev, symObjAddr: 0x898C, symBinAddr: 0x100013E24, symSize: 0x44 }
  - { offset: 0x62F5A, size: 0x8, addend: 0x0, symName: __ZNSt3__16vectorIhNS_9allocatorIhEEE16__destroy_vectorC1B8ne180100ERS3_, symObjAddr: 0x89D0, symBinAddr: 0x100013E68, symSize: 0x34 }
  - { offset: 0x62F93, size: 0x8, addend: 0x0, symName: __ZNSt3__16vectorIhNS_9allocatorIhEEE16__destroy_vectorclB8ne180100Ev, symObjAddr: 0x8A04, symBinAddr: 0x100013E9C, symSize: 0x90 }
  - { offset: 0x62FB9, size: 0x8, addend: 0x0, symName: __ZNSt3__16vectorIhNS_9allocatorIhEEE16__destroy_vectorC2B8ne180100ERS3_, symObjAddr: 0x8A94, symBinAddr: 0x100013F2C, symSize: 0x20 }
  - { offset: 0x62FF2, size: 0x8, addend: 0x0, symName: __ZNSt3__16vectorIhNS_9allocatorIhEEE7__clearB8ne180100Ev, symObjAddr: 0x8AB4, symBinAddr: 0x100013F4C, symSize: 0x28 }
  - { offset: 0x63018, size: 0x8, addend: 0x0, symName: __ZNKSt3__16vectorIhNS_9allocatorIhEEE17__annotate_deleteB8ne180100Ev, symObjAddr: 0x8ADC, symBinAddr: 0x100013F74, symSize: 0x10 }
  - { offset: 0x6303E, size: 0x8, addend: 0x0, symName: __ZNSt3__116allocator_traitsINS_9allocatorIhEEE10deallocateB8ne180100ERS2_Phm, symObjAddr: 0x8AEC, symBinAddr: 0x100013F84, symSize: 0x34 }
  - { offset: 0x63080, size: 0x8, addend: 0x0, symName: __ZNSt3__16vectorIhNS_9allocatorIhEEE7__allocB8ne180100Ev, symObjAddr: 0x8B20, symBinAddr: 0x100013FB8, symSize: 0x28 }
  - { offset: 0x630A6, size: 0x8, addend: 0x0, symName: __ZNKSt3__16vectorIhNS_9allocatorIhEEE8capacityB8ne180100Ev, symObjAddr: 0x8B48, symBinAddr: 0x100013FE0, symSize: 0x38 }
  - { offset: 0x630CC, size: 0x8, addend: 0x0, symName: __ZNSt3__16vectorIhNS_9allocatorIhEEE22__base_destruct_at_endB8ne180100EPh, symObjAddr: 0x8B80, symBinAddr: 0x100014018, symSize: 0x8C }
  - { offset: 0x63110, size: 0x8, addend: 0x0, symName: __ZNSt3__116allocator_traitsINS_9allocatorIhEEE7destroyB8ne180100IhvEEvRS2_PT_, symObjAddr: 0x8C0C, symBinAddr: 0x1000140A4, symSize: 0x2C }
  - { offset: 0x6314D, size: 0x8, addend: 0x0, symName: __ZNSt3__19allocatorIhE7destroyB8ne180100EPh, symObjAddr: 0x8C4C, symBinAddr: 0x1000140E4, symSize: 0x14 }
  - { offset: 0x63181, size: 0x8, addend: 0x0, symName: __ZNSt3__19allocatorIhE10deallocateB8ne180100EPhm, symObjAddr: 0x8C60, symBinAddr: 0x1000140F8, symSize: 0x40 }
  - { offset: 0x631C3, size: 0x8, addend: 0x0, symName: __ZNSt3__117__compressed_pairIPhNS_9allocatorIhEEE6secondB8ne180100Ev, symObjAddr: 0x8CA0, symBinAddr: 0x100014138, symSize: 0x24 }
  - { offset: 0x631E9, size: 0x8, addend: 0x0, symName: __ZNSt3__122__compressed_pair_elemINS_9allocatorIhEELi1ELb1EE5__getB8ne180100Ev, symObjAddr: 0x8CC4, symBinAddr: 0x10001415C, symSize: 0x14 }
  - { offset: 0x6320F, size: 0x8, addend: 0x0, symName: __ZNKSt3__16vectorIhNS_9allocatorIhEEE9__end_capB8ne180100Ev, symObjAddr: 0x8CD8, symBinAddr: 0x100014170, symSize: 0x28 }
  - { offset: 0x63235, size: 0x8, addend: 0x0, symName: __ZNKSt3__117__compressed_pairIPhNS_9allocatorIhEEE5firstB8ne180100Ev, symObjAddr: 0x8D00, symBinAddr: 0x100014198, symSize: 0x24 }
  - { offset: 0x6325B, size: 0x8, addend: 0x0, symName: __ZNKSt3__122__compressed_pair_elemIPhLi0ELb0EE5__getB8ne180100Ev, symObjAddr: 0x8D24, symBinAddr: 0x1000141BC, symSize: 0x14 }
  - { offset: 0x63281, size: 0x8, addend: 0x0, symName: __ZNSt3__19allocatorIN8nlohmann16json_abi_v3_11_327byte_container_with_subtypeINS_6vectorIhNS0_IhEEEEEEE10deallocateB8ne180100EPS7_m, symObjAddr: 0x8D38, symBinAddr: 0x1000141D0, symSize: 0x44 }
  - { offset: 0x632C3, size: 0x8, addend: 0x0, symName: __ZNSt3__16vectorINS_12basic_stringIcNS_11char_traitsIcEENS_9allocatorIcEEEENS4_IS6_EEED2B8ne180100Ev, symObjAddr: 0x8D7C, symBinAddr: 0x100014214, symSize: 0x44 }
  - { offset: 0x632ED, size: 0x8, addend: 0x0, symName: __ZNSt3__16vectorINS_12basic_stringIcNS_11char_traitsIcEENS_9allocatorIcEEEENS4_IS6_EEE16__destroy_vectorC1B8ne180100ERS8_, symObjAddr: 0x8DC0, symBinAddr: 0x100014258, symSize: 0x34 }
  - { offset: 0x63326, size: 0x8, addend: 0x0, symName: __ZNSt3__16vectorINS_12basic_stringIcNS_11char_traitsIcEENS_9allocatorIcEEEENS4_IS6_EEE16__destroy_vectorclB8ne180100Ev, symObjAddr: 0x8DF4, symBinAddr: 0x10001428C, symSize: 0x90 }
  - { offset: 0x6334C, size: 0x8, addend: 0x0, symName: __ZNSt3__16vectorINS_12basic_stringIcNS_11char_traitsIcEENS_9allocatorIcEEEENS4_IS6_EEE16__destroy_vectorC2B8ne180100ERS8_, symObjAddr: 0x8E84, symBinAddr: 0x10001431C, symSize: 0x20 }
  - { offset: 0x63385, size: 0x8, addend: 0x0, symName: __ZNSt3__16vectorINS_12basic_stringIcNS_11char_traitsIcEENS_9allocatorIcEEEENS4_IS6_EEE7__clearB8ne180100Ev, symObjAddr: 0x8EA4, symBinAddr: 0x10001433C, symSize: 0x28 }
  - { offset: 0x633AB, size: 0x8, addend: 0x0, symName: __ZNKSt3__16vectorINS_12basic_stringIcNS_11char_traitsIcEENS_9allocatorIcEEEENS4_IS6_EEE17__annotate_deleteB8ne180100Ev, symObjAddr: 0x8ECC, symBinAddr: 0x100014364, symSize: 0x10 }
  - { offset: 0x633D1, size: 0x8, addend: 0x0, symName: __ZNSt3__16vectorINS_12basic_stringIcNS_11char_traitsIcEENS_9allocatorIcEEEENS4_IS6_EEE7__allocB8ne180100Ev, symObjAddr: 0x8EDC, symBinAddr: 0x100014374, symSize: 0x28 }
  - { offset: 0x633F7, size: 0x8, addend: 0x0, symName: __ZNKSt3__16vectorINS_12basic_stringIcNS_11char_traitsIcEENS_9allocatorIcEEEENS4_IS6_EEE8capacityB8ne180100Ev, symObjAddr: 0x8F04, symBinAddr: 0x10001439C, symSize: 0x40 }
  - { offset: 0x6341D, size: 0x8, addend: 0x0, symName: __ZNSt3__16vectorINS_12basic_stringIcNS_11char_traitsIcEENS_9allocatorIcEEEENS4_IS6_EEE22__base_destruct_at_endB8ne180100EPS6_, symObjAddr: 0x8F44, symBinAddr: 0x1000143DC, symSize: 0x8C }
  - { offset: 0x63461, size: 0x8, addend: 0x0, symName: __ZNSt3__117__compressed_pairIPNS_12basic_stringIcNS_11char_traitsIcEENS_9allocatorIcEEEENS4_IS6_EEE6secondB8ne180100Ev, symObjAddr: 0x8FE4, symBinAddr: 0x10001447C, symSize: 0x24 }
  - { offset: 0x63487, size: 0x8, addend: 0x0, symName: __ZNSt3__122__compressed_pair_elemINS_9allocatorINS_12basic_stringIcNS_11char_traitsIcEENS1_IcEEEEEELi1ELb1EE5__getB8ne180100Ev, symObjAddr: 0x9008, symBinAddr: 0x1000144A0, symSize: 0x14 }
  - { offset: 0x634AD, size: 0x8, addend: 0x0, symName: __ZNKSt3__16vectorINS_12basic_stringIcNS_11char_traitsIcEENS_9allocatorIcEEEENS4_IS6_EEE9__end_capB8ne180100Ev, symObjAddr: 0x901C, symBinAddr: 0x1000144B4, symSize: 0x28 }
  - { offset: 0x634D3, size: 0x8, addend: 0x0, symName: __ZNKSt3__117__compressed_pairIPNS_12basic_stringIcNS_11char_traitsIcEENS_9allocatorIcEEEENS4_IS6_EEE5firstB8ne180100Ev, symObjAddr: 0x9044, symBinAddr: 0x1000144DC, symSize: 0x24 }
  - { offset: 0x634F9, size: 0x8, addend: 0x0, symName: __ZNKSt3__122__compressed_pair_elemIPNS_12basic_stringIcNS_11char_traitsIcEENS_9allocatorIcEEEELi0ELb0EE5__getB8ne180100Ev, symObjAddr: 0x9068, symBinAddr: 0x100014500, symSize: 0x14 }
  - { offset: 0x6352A, size: 0x8, addend: 0x0, symName: __ZNSt3__116allocator_traitsINS_9allocatorIcEEE37select_on_container_copy_constructionB8ne180100IS2_vvEES2_RKS2_, symObjAddr: 0x90D0, symBinAddr: 0x100014514, symSize: 0x10 }
  - { offset: 0x63559, size: 0x8, addend: 0x0, symName: __ZNKSt3__112basic_stringIcNS_11char_traitsIcEENS_9allocatorIcEEE13get_allocatorB8ne180100Ev, symObjAddr: 0x90E0, symBinAddr: 0x100014524, symSize: 0x24 }
  - { offset: 0x6357F, size: 0x8, addend: 0x0, symName: __ZNSt3__112basic_stringIcNS_11char_traitsIcEENS_9allocatorIcEEEC1B8ne180100ENS_24__uninitialized_size_tagEmRKS4_, symObjAddr: 0x9104, symBinAddr: 0x100014548, symSize: 0x3C }
  - { offset: 0x635D3, size: 0x8, addend: 0x0, symName: __ZNSt3__111char_traitsIcE4copyB8ne180100EPcPKcm, symObjAddr: 0x91A8, symBinAddr: 0x100014584, symSize: 0x40 }
  - { offset: 0x63612, size: 0x8, addend: 0x0, symName: __ZNSt3__111char_traitsIcE6assignB8ne180100EPcmc, symObjAddr: 0x91E8, symBinAddr: 0x1000145C4, symSize: 0x44 }
  - { offset: 0x63651, size: 0x8, addend: 0x0, symName: __ZNKSt3__112basic_stringIcNS_11char_traitsIcEENS_9allocatorIcEEE7__allocB8ne180100Ev, symObjAddr: 0x9288, symBinAddr: 0x100014608, symSize: 0x24 }
  - { offset: 0x63677, size: 0x8, addend: 0x0, symName: __ZNKSt3__117__compressed_pairINS_12basic_stringIcNS_11char_traitsIcEENS_9allocatorIcEEE5__repES5_E6secondB8ne180100Ev, symObjAddr: 0x92AC, symBinAddr: 0x10001462C, symSize: 0x24 }
  - { offset: 0x6369D, size: 0x8, addend: 0x0, symName: __ZNKSt3__122__compressed_pair_elemINS_9allocatorIcEELi1ELb1EE5__getB8ne180100Ev, symObjAddr: 0x92D0, symBinAddr: 0x100014650, symSize: 0x14 }
  - { offset: 0x636C3, size: 0x8, addend: 0x0, symName: __ZNSt3__112basic_stringIcNS_11char_traitsIcEENS_9allocatorIcEEEC2B8ne180100ENS_24__uninitialized_size_tagEmRKS4_, symObjAddr: 0x92E4, symBinAddr: 0x100014664, symSize: 0x11C }
  - { offset: 0x63743, size: 0x8, addend: 0x0, symName: __ZNSt3__117__compressed_pairINS_12basic_stringIcNS_11char_traitsIcEENS_9allocatorIcEEE5__repES5_EC1B8ne180100INS_18__default_init_tagERKS5_EEOT_OT0_, symObjAddr: 0x9400, symBinAddr: 0x100014780, symSize: 0x3C }
  - { offset: 0x6379B, size: 0x8, addend: 0x0, symName: __ZNKSt3__112basic_stringIcNS_11char_traitsIcEENS_9allocatorIcEEE8max_sizeB8ne180100Ev, symObjAddr: 0x943C, symBinAddr: 0x1000147BC, symSize: 0xAC }
  - { offset: 0x637ED, size: 0x8, addend: 0x0, symName: __ZNKSt3__112basic_stringIcNS_11char_traitsIcEENS_9allocatorIcEEE20__throw_length_errorB8ne180100Ev, symObjAddr: 0x94E8, symBinAddr: 0x100014868, symSize: 0x1C }
  - { offset: 0x63813, size: 0x8, addend: 0x0, symName: __ZNSt3__112basic_stringIcNS_11char_traitsIcEENS_9allocatorIcEEE13__fits_in_ssoB8ne180100Em, symObjAddr: 0x9504, symBinAddr: 0x100014884, symSize: 0x20 }
  - { offset: 0x63837, size: 0x8, addend: 0x0, symName: __ZNSt3__112basic_stringIcNS_11char_traitsIcEENS_9allocatorIcEEE16__set_short_sizeB8ne180100Em, symObjAddr: 0x9548, symBinAddr: 0x1000148A4, symSize: 0x78 }
  - { offset: 0x6386C, size: 0x8, addend: 0x0, symName: __ZNSt3__112basic_stringIcNS_11char_traitsIcEENS_9allocatorIcEEE11__recommendB8ne180100Em, symObjAddr: 0x95C0, symBinAddr: 0x10001491C, symSize: 0x84 }
  - { offset: 0x6389F, size: 0x8, addend: 0x0, symName: __ZNSt3__116allocator_traitsINS_9allocatorIcEEE8allocateB8ne180100ERS2_m, symObjAddr: 0x9644, symBinAddr: 0x1000149A0, symSize: 0x2C }
  - { offset: 0x638D2, size: 0x8, addend: 0x0, symName: __ZNSt3__112basic_stringIcNS_11char_traitsIcEENS_9allocatorIcEEE7__allocB8ne180100Ev, symObjAddr: 0x9670, symBinAddr: 0x1000149CC, symSize: 0x24 }
  - { offset: 0x638F8, size: 0x8, addend: 0x0, symName: __ZNSt3__112basic_stringIcNS_11char_traitsIcEENS_9allocatorIcEEE16__begin_lifetimeB8ne180100EPcm, symObjAddr: 0x9694, symBinAddr: 0x1000149F0, symSize: 0x14 }
  - { offset: 0x6392B, size: 0x8, addend: 0x0, symName: __ZNSt3__112basic_stringIcNS_11char_traitsIcEENS_9allocatorIcEEE14__set_long_capB8ne180100Em, symObjAddr: 0x96A8, symBinAddr: 0x100014A04, symSize: 0x70 }
  - { offset: 0x63960, size: 0x8, addend: 0x0, symName: __ZNSt3__112basic_stringIcNS_11char_traitsIcEENS_9allocatorIcEEE18__set_long_pointerB8ne180100EPc, symObjAddr: 0x9718, symBinAddr: 0x100014A74, symSize: 0x38 }
  - { offset: 0x63995, size: 0x8, addend: 0x0, symName: __ZNSt3__112basic_stringIcNS_11char_traitsIcEENS_9allocatorIcEEE15__set_long_sizeB8ne180100Em, symObjAddr: 0x9750, symBinAddr: 0x100014AAC, symSize: 0x38 }
  - { offset: 0x639CA, size: 0x8, addend: 0x0, symName: __ZNSt3__117__compressed_pairINS_12basic_stringIcNS_11char_traitsIcEENS_9allocatorIcEEE5__repES5_EC2B8ne180100INS_18__default_init_tagERKS5_EEOT_OT0_, symObjAddr: 0x979C, symBinAddr: 0x100014AE4, symSize: 0x40 }
  - { offset: 0x63A22, size: 0x8, addend: 0x0, symName: __ZNSt3__122__compressed_pair_elemINS_9allocatorIcEELi1ELb1EEC2B8ne180100IRKS2_vEEOT_, symObjAddr: 0x97DC, symBinAddr: 0x100014B24, symSize: 0x18 }
  - { offset: 0x63A64, size: 0x8, addend: 0x0, symName: __ZNSt3__116allocator_traitsINS_9allocatorIcEEE8max_sizeB8ne180100IS2_vEEmRKS2_, symObjAddr: 0x97F4, symBinAddr: 0x100014B3C, symSize: 0x24 }
  - { offset: 0x63A92, size: 0x8, addend: 0x0, symName: __ZNSt3__114numeric_limitsImE3maxB8ne180100Ev, symObjAddr: 0x9818, symBinAddr: 0x100014B60, symSize: 0x14 }
  - { offset: 0x63AA6, size: 0x8, addend: 0x0, symName: __ZNKSt3__19allocatorIcE8max_sizeB8ne180100Ev, symObjAddr: 0x982C, symBinAddr: 0x100014B74, symSize: 0x14 }
  - { offset: 0x63ACC, size: 0x8, addend: 0x0, symName: __ZNSt3__123__libcpp_numeric_limitsImLb1EE3maxB8ne180100Ev, symObjAddr: 0x9840, symBinAddr: 0x100014B88, symSize: 0x8 }
  - { offset: 0x63AE0, size: 0x8, addend: 0x0, symName: __ZNSt3__112basic_stringIcNS_11char_traitsIcEENS_9allocatorIcEEE10__align_itB8ne180100ILm8EEEmm, symObjAddr: 0x985C, symBinAddr: 0x100014B90, symSize: 0x1C }
  - { offset: 0x63B0E, size: 0x8, addend: 0x0, symName: __ZNSt3__19allocatorIcE8allocateB8ne180100Em, symObjAddr: 0x9878, symBinAddr: 0x100014BAC, symSize: 0x58 }
  - { offset: 0x63B42, size: 0x8, addend: 0x0, symName: __ZNSt3__117__compressed_pairINS_12basic_stringIcNS_11char_traitsIcEENS_9allocatorIcEEE5__repES5_E6secondB8ne180100Ev, symObjAddr: 0x98D0, symBinAddr: 0x100014C04, symSize: 0x24 }
  - { offset: 0x63B68, size: 0x8, addend: 0x0, symName: __ZNSt3__122__compressed_pair_elemINS_9allocatorIcEELi1ELb1EE5__getB8ne180100Ev, symObjAddr: 0x98F4, symBinAddr: 0x100014C28, symSize: 0x14 }
  - { offset: 0x63BB4, size: 0x8, addend: 0x0, symName: __ZNKSt3__114__copy_trivialclB8ne180100IKccLi0EEENS_4pairIPT_PT0_EES5_S5_S7_, symObjAddr: 0x9B8C, symBinAddr: 0x100014E5C, symSize: 0x48 }
  - { offset: 0x63C3E, size: 0x8, addend: 0x0, symName: __ZNSt3__14pairIPKcS2_EC1B8ne180100IS2_S2_Li0EEEOT_OT0_, symObjAddr: 0x9CF4, symBinAddr: 0x100014FC4, symSize: 0x3C }
  - { offset: 0x63C9C, size: 0x8, addend: 0x0, symName: __ZNSt3__14pairIPKcS2_EC2B8ne180100IS2_S2_Li0EEEOT_OT0_, symObjAddr: 0x9D30, symBinAddr: 0x100015000, symSize: 0x34 }
  - { offset: 0x63CFA, size: 0x8, addend: 0x0, symName: __ZNSt3__118__unwrap_iter_implIPKcLb1EE8__unwrapB8ne180100ES2_, symObjAddr: 0x9D64, symBinAddr: 0x100015034, symSize: 0x24 }
  - { offset: 0x63D29, size: 0x8, addend: 0x0, symName: __ZNSt3__14pairIPKcPcEC1B8ne180100IRS2_S3_Li0EEEOT_OT0_, symObjAddr: 0x9E9C, symBinAddr: 0x10001516C, symSize: 0x3C }
  - { offset: 0x63D87, size: 0x8, addend: 0x0, symName: __ZNSt3__14pairIPKcPcEC2B8ne180100IRS2_S3_Li0EEEOT_OT0_, symObjAddr: 0x9ED8, symBinAddr: 0x1000151A8, symSize: 0x34 }
  - { offset: 0x63DE5, size: 0x8, addend: 0x0, symName: __ZNSt3__118__unwrap_iter_implIPcLb1EE8__unwrapB8ne180100ES1_, symObjAddr: 0x9F0C, symBinAddr: 0x1000151DC, symSize: 0x24 }
  - { offset: 0x63E08, size: 0x8, addend: 0x0, symName: __ZNSt3__14pairIPKcPcEC1B8ne180100IS2_S3_Li0EEEOT_OT0_, symObjAddr: 0x9F30, symBinAddr: 0x100015200, symSize: 0x3C }
  - { offset: 0x63E66, size: 0x8, addend: 0x0, symName: __ZNSt3__14pairIPKcPcEC2B8ne180100IS2_S3_Li0EEEOT_OT0_, symObjAddr: 0x9F6C, symBinAddr: 0x10001523C, symSize: 0x34 }
  - { offset: 0x63EC4, size: 0x8, addend: 0x0, symName: __ZNSt3__118__unwrap_iter_implIPKcLb1EE8__rewrapB8ne180100ES2_S2_, symObjAddr: 0x9FDC, symBinAddr: 0x1000152AC, symSize: 0x48 }
  - { offset: 0x63EF5, size: 0x8, addend: 0x0, symName: __ZNSt3__118__unwrap_iter_implIPcLb1EE8__rewrapB8ne180100ES1_S1_, symObjAddr: 0xA024, symBinAddr: 0x1000152F4, symSize: 0x48 }
  - { offset: 0x63F26, size: 0x8, addend: 0x0, symName: __ZNSt3__112basic_stringIcNS_11char_traitsIcEENS_9allocatorIcEEE6appendB8ne180100ERKS5_, symObjAddr: 0xA128, symBinAddr: 0x1000153F8, symSize: 0x4C }
  - { offset: 0x63F5B, size: 0x8, addend: 0x0, symName: __ZNSt3__112basic_stringIcNS_11char_traitsIcEENS_9allocatorIcEEEC1B8ne180100EOS5_, symObjAddr: 0xA174, symBinAddr: 0x100015444, symSize: 0x34 }
  - { offset: 0x63F94, size: 0x8, addend: 0x0, symName: __ZNSt3__112basic_stringIcNS_11char_traitsIcEENS_9allocatorIcEEEC2B8ne180100EOS5_, symObjAddr: 0xA1A8, symBinAddr: 0x100015478, symSize: 0xB8 }
  - { offset: 0x63FFE, size: 0x8, addend: 0x0, symName: __ZZNSt3__112basic_stringIcNS_11char_traitsIcEENS_9allocatorIcEEEC1B8ne180100EOS5_ENKUlRS5_E_clES7_, symObjAddr: 0xA260, symBinAddr: 0x100015530, symSize: 0x40 }
  - { offset: 0x64037, size: 0x8, addend: 0x0, symName: __ZNKSt3__112basic_stringIcNS_11char_traitsIcEENS_9allocatorIcEEE17__annotate_deleteB8ne180100Ev, symObjAddr: 0xA2A0, symBinAddr: 0x100015570, symSize: 0x10 }
  - { offset: 0x6405D, size: 0x8, addend: 0x0, symName: __ZNSt3__110unique_ptrI7__sFILEPFiPS1_EEC2B8ne180100ILb1EvEES2_NS_16__dependent_typeINS_27__unique_ptr_deleter_sfinaeIS4_EEXT_EE20__good_rval_ref_typeE, symObjAddr: 0xA2B0, symBinAddr: 0x100015580, symSize: 0x48 }
  - { offset: 0x640AE, size: 0x8, addend: 0x0, symName: __ZNSt3__117__compressed_pairIP7__sFILEPFiS2_EEC1B8ne180100IRS2_S4_EEOT_OT0_, symObjAddr: 0xA2F8, symBinAddr: 0x1000155C8, symSize: 0x3C }
  - { offset: 0x64106, size: 0x8, addend: 0x0, symName: __ZNSt3__117__compressed_pairIP7__sFILEPFiS2_EEC2B8ne180100IRS2_S4_EEOT_OT0_, symObjAddr: 0xA334, symBinAddr: 0x100015604, symSize: 0x48 }
  - { offset: 0x6415E, size: 0x8, addend: 0x0, symName: __ZNSt3__122__compressed_pair_elemIP7__sFILELi0ELb0EEC2B8ne180100IRS2_vEEOT_, symObjAddr: 0xA37C, symBinAddr: 0x10001564C, symSize: 0x24 }
  - { offset: 0x641A0, size: 0x8, addend: 0x0, symName: __ZNSt3__122__compressed_pair_elemIPFiP7__sFILEELi1ELb0EEC2B8ne180100IS4_vEEOT_, symObjAddr: 0xA3A0, symBinAddr: 0x100015670, symSize: 0x24 }
  - { offset: 0x641E2, size: 0x8, addend: 0x0, symName: __ZNSt3__110unique_ptrI7__sFILEPFiPS1_EED2B8ne180100Ev, symObjAddr: 0xA3C4, symBinAddr: 0x100015694, symSize: 0x30 }
  - { offset: 0x6420C, size: 0x8, addend: 0x0, symName: __ZNSt3__110unique_ptrI7__sFILEPFiPS1_EE5resetB8ne180100ES2_, symObjAddr: 0xA3F4, symBinAddr: 0x1000156C4, symSize: 0x84 }
  - { offset: 0x64250, size: 0x8, addend: 0x0, symName: __ZNSt3__117__compressed_pairIP7__sFILEPFiS2_EE5firstB8ne180100Ev, symObjAddr: 0xA478, symBinAddr: 0x100015748, symSize: 0x24 }
  - { offset: 0x64276, size: 0x8, addend: 0x0, symName: __ZNSt3__117__compressed_pairIP7__sFILEPFiS2_EE6secondB8ne180100Ev, symObjAddr: 0xA49C, symBinAddr: 0x10001576C, symSize: 0x28 }
  - { offset: 0x6429C, size: 0x8, addend: 0x0, symName: __ZNSt3__122__compressed_pair_elemIP7__sFILELi0ELb0EE5__getB8ne180100Ev, symObjAddr: 0xA4C4, symBinAddr: 0x100015794, symSize: 0x14 }
  - { offset: 0x642C2, size: 0x8, addend: 0x0, symName: __ZNSt3__122__compressed_pair_elemIPFiP7__sFILEELi1ELb0EE5__getB8ne180100Ev, symObjAddr: 0xA4D8, symBinAddr: 0x1000157A8, symSize: 0x14 }
  - { offset: 0x642E8, size: 0x8, addend: 0x0, symName: __ZNKSt3__117__compressed_pairIP7__sFILEPFiS2_EE5firstB8ne180100Ev, symObjAddr: 0xA4EC, symBinAddr: 0x1000157BC, symSize: 0x24 }
  - { offset: 0x6430E, size: 0x8, addend: 0x0, symName: __ZNKSt3__122__compressed_pair_elemIP7__sFILELi0ELb0EE5__getB8ne180100Ev, symObjAddr: 0xA510, symBinAddr: 0x1000157E0, symSize: 0x14 }
  - { offset: 0x6434F, size: 0x8, addend: 0x0, symName: __ZN8nlohmann16json_abi_v3_11_310basic_jsonINSt3__13mapENS2_6vectorENS2_12basic_stringIcNS2_11char_traitsIcEENS2_9allocatorIcEEEEbxydS8_NS0_14adl_serializerENS4_IhNS8_IhEEEEvEC1ENS0_6detail7value_tE, symObjAddr: 0xAD78, symBinAddr: 0x1000157F4, symSize: 0x34 }
  - { offset: 0x64388, size: 0x8, addend: 0x0, symName: __ZN8nlohmann16json_abi_v3_11_310basic_jsonINSt3__13mapENS2_6vectorENS2_12basic_stringIcNS2_11char_traitsIcEENS2_9allocatorIcEEEEbxydS8_NS0_14adl_serializerENS4_IhNS8_IhEEEEvEC2ENS0_6detail7value_tE, symObjAddr: 0xADAC, symBinAddr: 0x100015828, symSize: 0x44 }
  - { offset: 0x643C1, size: 0x8, addend: 0x0, symName: __ZN8nlohmann16json_abi_v3_11_310basic_jsonINSt3__13mapENS2_6vectorENS2_12basic_stringIcNS2_11char_traitsIcEENS2_9allocatorIcEEEEbxydS8_NS0_14adl_serializerENS4_IhNS8_IhEEEEvE4dataC1ENS0_6detail7value_tE, symObjAddr: 0xADF0, symBinAddr: 0x10001586C, symSize: 0x34 }
  - { offset: 0x643FA, size: 0x8, addend: 0x0, symName: __ZN8nlohmann16json_abi_v3_11_310basic_jsonINSt3__13mapENS2_6vectorENS2_12basic_stringIcNS2_11char_traitsIcEENS2_9allocatorIcEEEEbxydS8_NS0_14adl_serializerENS4_IhNS8_IhEEEEvE4dataC2ENS0_6detail7value_tE, symObjAddr: 0xAE24, symBinAddr: 0x1000158A0, symSize: 0x40 }
  - { offset: 0x64433, size: 0x8, addend: 0x0, symName: __ZN8nlohmann16json_abi_v3_11_310basic_jsonINSt3__13mapENS2_6vectorENS2_12basic_stringIcNS2_11char_traitsIcEENS2_9allocatorIcEEEEbxydS8_NS0_14adl_serializerENS4_IhNS8_IhEEEEvE10json_valueC1ENS0_6detail7value_tE, symObjAddr: 0xAE64, symBinAddr: 0x1000158E0, symSize: 0x34 }
  - { offset: 0x6446C, size: 0x8, addend: 0x0, symName: __ZN8nlohmann16json_abi_v3_11_310basic_jsonINSt3__13mapENS2_6vectorENS2_12basic_stringIcNS2_11char_traitsIcEENS2_9allocatorIcEEEEbxydS8_NS0_14adl_serializerENS4_IhNS8_IhEEEEvE10json_valueC2ENS0_6detail7value_tE, symObjAddr: 0xAE98, symBinAddr: 0x100015914, symSize: 0x1DC }
  - { offset: 0x644A5, size: 0x8, addend: 0x0, symName: __ZN8nlohmann16json_abi_v3_11_310basic_jsonINSt3__13mapENS2_6vectorENS2_12basic_stringIcNS2_11char_traitsIcEENS2_9allocatorIcEEEEbxydS8_NS0_14adl_serializerENS4_IhNS8_IhEEEEvE6createINS3_ISA_SE_NS2_4lessIvEENS8_INS2_4pairIKSA_SE_EEEEEEJEEEPT_DpOT0_, symObjAddr: 0xB09C, symBinAddr: 0x100015B18, symSize: 0xEC }
  - { offset: 0x6451E, size: 0x8, addend: 0x0, symName: __ZN8nlohmann16json_abi_v3_11_310basic_jsonINSt3__13mapENS2_6vectorENS2_12basic_stringIcNS2_11char_traitsIcEENS2_9allocatorIcEEEEbxydS8_NS0_14adl_serializerENS4_IhNS8_IhEEEEvE6createINS4_ISE_NS8_ISE_EEEEJEEEPT_DpOT0_, symObjAddr: 0xB188, symBinAddr: 0x100015C04, symSize: 0xEC }
  - { offset: 0x645B0, size: 0x8, addend: 0x0, symName: __ZN8nlohmann16json_abi_v3_11_310basic_jsonINSt3__13mapENS2_6vectorENS2_12basic_stringIcNS2_11char_traitsIcEENS2_9allocatorIcEEEEbxydS8_NS0_14adl_serializerENS4_IhNS8_IhEEEEvE6createISA_JRA1_KcEEEPT_DpOT0_, symObjAddr: 0xB274, symBinAddr: 0x100015CF0, symSize: 0xF4 }
  - { offset: 0x6463E, size: 0x8, addend: 0x0, symName: __ZN8nlohmann16json_abi_v3_11_310basic_jsonINSt3__13mapENS2_6vectorENS2_12basic_stringIcNS2_11char_traitsIcEENS2_9allocatorIcEEEEbxydS8_NS0_14adl_serializerENS4_IhNS8_IhEEEEvE6createINS0_27byte_container_with_subtypeISD_EEJEEEPT_DpOT0_, symObjAddr: 0xB368, symBinAddr: 0x100015DE4, symSize: 0xEC }
  - { offset: 0x646E6, size: 0x8, addend: 0x0, symName: __ZN8nlohmann16json_abi_v3_11_36detail11other_error6createIDnLi0EEES2_iRKNSt3__112basic_stringIcNS4_11char_traitsIcEENS4_9allocatorIcEEEET_, symObjAddr: 0xB454, symBinAddr: 0x100015ED0, symSize: 0x130 }
  - { offset: 0x64743, size: 0x8, addend: 0x0, symName: __ZN8nlohmann16json_abi_v3_11_36detail11other_errorD1Ev, symObjAddr: 0xB584, symBinAddr: 0x100016000, symSize: 0x2C }
  - { offset: 0x6476F, size: 0x8, addend: 0x0, symName: __ZNSt3__116allocator_traitsINS_9allocatorINS_3mapINS_12basic_stringIcNS_11char_traitsIcEENS1_IcEEEEN8nlohmann16json_abi_v3_11_310basic_jsonIS2_NS_6vectorES7_bxydS1_NS9_14adl_serializerENSB_IhNS1_IhEEEEvEENS_4lessIvEENS1_INS_4pairIKS7_SF_EEEEEEEEE8allocateB8ne180100ERSN_m, symObjAddr: 0xB5B0, symBinAddr: 0x10001602C, symSize: 0x2C }
  - { offset: 0x64838, size: 0x8, addend: 0x0, symName: __ZNSt3__110unique_ptrINS_3mapINS_12basic_stringIcNS_11char_traitsIcEENS_9allocatorIcEEEEN8nlohmann16json_abi_v3_11_310basic_jsonIS1_NS_6vectorES7_bxydS5_NS9_14adl_serializerENSB_IhNS5_IhEEEEvEENS_4lessIvEENS5_INS_4pairIKS7_SF_EEEEEEZNSF_6createISM_JEEEPT_DpOT0_EUlPSM_E_EC1B8ne180100ILb1EvEEST_NS_16__dependent_typeINS_27__unique_ptr_deleter_sfinaeISU_EEXT_EE15__lval_ref_typeE, symObjAddr: 0xB5DC, symBinAddr: 0x100016058, symSize: 0x3C }
  - { offset: 0x64889, size: 0x8, addend: 0x0, symName: __ZNSt3__116allocator_traitsINS_9allocatorINS_3mapINS_12basic_stringIcNS_11char_traitsIcEENS1_IcEEEEN8nlohmann16json_abi_v3_11_310basic_jsonIS2_NS_6vectorES7_bxydS1_NS9_14adl_serializerENSB_IhNS1_IhEEEEvEENS_4lessIvEENS1_INS_4pairIKS7_SF_EEEEEEEEE9constructB8ne180100ISM_JEvEEvRSN_PT_DpOT0_, symObjAddr: 0xB618, symBinAddr: 0x100016094, symSize: 0x2C }
  - { offset: 0x648CB, size: 0x8, addend: 0x0, symName: __ZNKSt3__110unique_ptrINS_3mapINS_12basic_stringIcNS_11char_traitsIcEENS_9allocatorIcEEEEN8nlohmann16json_abi_v3_11_310basic_jsonIS1_NS_6vectorES7_bxydS5_NS9_14adl_serializerENSB_IhNS5_IhEEEEvEENS_4lessIvEENS5_INS_4pairIKS7_SF_EEEEEEZNSF_6createISM_JEEEPT_DpOT0_EUlPSM_E_E3getB8ne180100Ev, symObjAddr: 0xB644, symBinAddr: 0x1000160C0, symSize: 0x28 }
  - { offset: 0x648F1, size: 0x8, addend: 0x0, symName: __ZNSt3__110unique_ptrINS_3mapINS_12basic_stringIcNS_11char_traitsIcEENS_9allocatorIcEEEEN8nlohmann16json_abi_v3_11_310basic_jsonIS1_NS_6vectorES7_bxydS5_NS9_14adl_serializerENSB_IhNS5_IhEEEEvEENS_4lessIvEENS5_INS_4pairIKS7_SF_EEEEEEZNSF_6createISM_JEEEPT_DpOT0_EUlPSM_E_E7releaseB8ne180100Ev, symObjAddr: 0xB698, symBinAddr: 0x100016114, symSize: 0x44 }
  - { offset: 0x64926, size: 0x8, addend: 0x0, symName: __ZNSt3__110unique_ptrINS_3mapINS_12basic_stringIcNS_11char_traitsIcEENS_9allocatorIcEEEEN8nlohmann16json_abi_v3_11_310basic_jsonIS1_NS_6vectorES7_bxydS5_NS9_14adl_serializerENSB_IhNS5_IhEEEEvEENS_4lessIvEENS5_INS_4pairIKS7_SF_EEEEEEZNSF_6createISM_JEEEPT_DpOT0_EUlPSM_E_ED1B8ne180100Ev, symObjAddr: 0xB6DC, symBinAddr: 0x100016158, symSize: 0x2C }
  - { offset: 0x64950, size: 0x8, addend: 0x0, symName: __ZNSt3__19allocatorINS_3mapINS_12basic_stringIcNS_11char_traitsIcEENS0_IcEEEEN8nlohmann16json_abi_v3_11_310basic_jsonIS1_NS_6vectorES6_bxydS0_NS8_14adl_serializerENSA_IhNS0_IhEEEEvEENS_4lessIvEENS0_INS_4pairIKS6_SE_EEEEEEE8allocateB8ne180100Em, symObjAddr: 0xB708, symBinAddr: 0x100016184, symSize: 0x5C }
  - { offset: 0x6498F, size: 0x8, addend: 0x0, symName: __ZNSt3__116allocator_traitsINS_9allocatorINS_3mapINS_12basic_stringIcNS_11char_traitsIcEENS1_IcEEEEN8nlohmann16json_abi_v3_11_310basic_jsonIS2_NS_6vectorES7_bxydS1_NS9_14adl_serializerENSB_IhNS1_IhEEEEvEENS_4lessIvEENS1_INS_4pairIKS7_SF_EEEEEEEEE8max_sizeB8ne180100ISN_vEEmRKSN_, symObjAddr: 0xB764, symBinAddr: 0x1000161E0, symSize: 0x24 }
  - { offset: 0x649BD, size: 0x8, addend: 0x0, symName: __ZNKSt3__19allocatorINS_3mapINS_12basic_stringIcNS_11char_traitsIcEENS0_IcEEEEN8nlohmann16json_abi_v3_11_310basic_jsonIS1_NS_6vectorES6_bxydS0_NS8_14adl_serializerENSA_IhNS0_IhEEEEvEENS_4lessIvEENS0_INS_4pairIKS6_SE_EEEEEEE8max_sizeB8ne180100Ev, symObjAddr: 0xB788, symBinAddr: 0x100016204, symSize: 0x18 }
  - { offset: 0x649E3, size: 0x8, addend: 0x0, symName: __ZNSt3__110unique_ptrINS_3mapINS_12basic_stringIcNS_11char_traitsIcEENS_9allocatorIcEEEEN8nlohmann16json_abi_v3_11_310basic_jsonIS1_NS_6vectorES7_bxydS5_NS9_14adl_serializerENSB_IhNS5_IhEEEEvEENS_4lessIvEENS5_INS_4pairIKS7_SF_EEEEEEZNSF_6createISM_JEEEPT_DpOT0_EUlPSM_E_EC2B8ne180100ILb1EvEEST_NS_16__dependent_typeINS_27__unique_ptr_deleter_sfinaeISU_EEXT_EE15__lval_ref_typeE, symObjAddr: 0xB7A0, symBinAddr: 0x10001621C, symSize: 0x48 }
  - { offset: 0x64A34, size: 0x8, addend: 0x0, symName: __ZNSt3__117__compressed_pairIPNS_3mapINS_12basic_stringIcNS_11char_traitsIcEENS_9allocatorIcEEEEN8nlohmann16json_abi_v3_11_310basic_jsonIS1_NS_6vectorES7_bxydS5_NS9_14adl_serializerENSB_IhNS5_IhEEEEvEENS_4lessIvEENS5_INS_4pairIKS7_SF_EEEEEEZNSF_6createISM_JEEEPT_DpOT0_EUlSN_E_EC1B8ne180100IRSN_RKSU_EEOSP_OT0_, symObjAddr: 0xB7E8, symBinAddr: 0x100016264, symSize: 0x3C }
  - { offset: 0x64A8C, size: 0x8, addend: 0x0, symName: __ZNSt3__117__compressed_pairIPNS_3mapINS_12basic_stringIcNS_11char_traitsIcEENS_9allocatorIcEEEEN8nlohmann16json_abi_v3_11_310basic_jsonIS1_NS_6vectorES7_bxydS5_NS9_14adl_serializerENSB_IhNS5_IhEEEEvEENS_4lessIvEENS5_INS_4pairIKS7_SF_EEEEEEZNSF_6createISM_JEEEPT_DpOT0_EUlSN_E_EC2B8ne180100IRSN_RKSU_EEOSP_OT0_, symObjAddr: 0xB824, symBinAddr: 0x1000162A0, symSize: 0x48 }
  - { offset: 0x64AE4, size: 0x8, addend: 0x0, symName: __ZNSt3__122__compressed_pair_elemIPNS_3mapINS_12basic_stringIcNS_11char_traitsIcEENS_9allocatorIcEEEEN8nlohmann16json_abi_v3_11_310basic_jsonIS1_NS_6vectorES7_bxydS5_NS9_14adl_serializerENSB_IhNS5_IhEEEEvEENS_4lessIvEENS5_INS_4pairIKS7_SF_EEEEEELi0ELb0EEC2B8ne180100IRSN_vEEOT_, symObjAddr: 0xB86C, symBinAddr: 0x1000162E8, symSize: 0x24 }
  - { offset: 0x64B26, size: 0x8, addend: 0x0, symName: __ZNSt3__122__compressed_pair_elemIZN8nlohmann16json_abi_v3_11_310basic_jsonINS_3mapENS_6vectorENS_12basic_stringIcNS_11char_traitsIcEENS_9allocatorIcEEEEbxydS9_NS2_14adl_serializerENS5_IhNS9_IhEEEEvE6createINS4_ISB_SF_NS_4lessIvEENS9_INS_4pairIKSB_SF_EEEEEEJEEEPT_DpOT0_EUlPSN_E_Li1ELb0EEC2B8ne180100IRKSU_vEEOSO_, symObjAddr: 0xB890, symBinAddr: 0x10001630C, symSize: 0x24 }
  - { offset: 0x64B68, size: 0x8, addend: 0x0, symName: __ZNSt3__19allocatorINS_3mapINS_12basic_stringIcNS_11char_traitsIcEENS0_IcEEEEN8nlohmann16json_abi_v3_11_310basic_jsonIS1_NS_6vectorES6_bxydS0_NS8_14adl_serializerENSA_IhNS0_IhEEEEvEENS_4lessIvEENS0_INS_4pairIKS6_SE_EEEEEEE9constructB8ne180100ISL_JEEEvPT_DpOT0_, symObjAddr: 0xB8B4, symBinAddr: 0x100016330, symSize: 0x28 }
  - { offset: 0x64BAA, size: 0x8, addend: 0x0, symName: __ZNSt3__13mapINS_12basic_stringIcNS_11char_traitsIcEENS_9allocatorIcEEEEN8nlohmann16json_abi_v3_11_310basic_jsonIS0_NS_6vectorES6_bxydS4_NS8_14adl_serializerENSA_IhNS4_IhEEEEvEENS_4lessIvEENS4_INS_4pairIKS6_SE_EEEEEC1B8ne180100Ev, symObjAddr: 0xB8DC, symBinAddr: 0x100016358, symSize: 0x2C }
  - { offset: 0x64BD4, size: 0x8, addend: 0x0, symName: __ZNSt3__13mapINS_12basic_stringIcNS_11char_traitsIcEENS_9allocatorIcEEEEN8nlohmann16json_abi_v3_11_310basic_jsonIS0_NS_6vectorES6_bxydS4_NS8_14adl_serializerENSA_IhNS4_IhEEEEvEENS_4lessIvEENS4_INS_4pairIKS6_SE_EEEEEC2B8ne180100Ev, symObjAddr: 0xB908, symBinAddr: 0x100016384, symSize: 0x40 }
  - { offset: 0x64BFE, size: 0x8, addend: 0x0, symName: __ZNSt3__119__map_value_compareINS_12basic_stringIcNS_11char_traitsIcEENS_9allocatorIcEEEENS_12__value_typeIS6_N8nlohmann16json_abi_v3_11_310basic_jsonINS_3mapENS_6vectorES6_bxydS4_NS9_14adl_serializerENSC_IhNS4_IhEEEEvEEEENS_4lessIvEELb1EEC1B8ne180100ESJ_, symObjAddr: 0xB948, symBinAddr: 0x1000163C4, symSize: 0x2C }
  - { offset: 0x64C37, size: 0x8, addend: 0x0, symName: __ZNSt3__16__treeINS_12__value_typeINS_12basic_stringIcNS_11char_traitsIcEENS_9allocatorIcEEEEN8nlohmann16json_abi_v3_11_310basic_jsonINS_3mapENS_6vectorES7_bxydS5_NS9_14adl_serializerENSC_IhNS5_IhEEEEvEEEENS_19__map_value_compareIS7_SH_NS_4lessIvEELb1EEENS5_ISH_EEEC1ERKSL_, symObjAddr: 0xB974, symBinAddr: 0x1000163F0, symSize: 0x34 }
  - { offset: 0x64C72, size: 0x8, addend: 0x0, symName: __ZNSt3__119__map_value_compareINS_12basic_stringIcNS_11char_traitsIcEENS_9allocatorIcEEEENS_12__value_typeIS6_N8nlohmann16json_abi_v3_11_310basic_jsonINS_3mapENS_6vectorES6_bxydS4_NS9_14adl_serializerENSC_IhNS4_IhEEEEvEEEENS_4lessIvEELb1EEC2B8ne180100ESJ_, symObjAddr: 0xB9A8, symBinAddr: 0x100016424, symSize: 0x14 }
  - { offset: 0x64CAB, size: 0x8, addend: 0x0, symName: __ZNSt3__16__treeINS_12__value_typeINS_12basic_stringIcNS_11char_traitsIcEENS_9allocatorIcEEEEN8nlohmann16json_abi_v3_11_310basic_jsonINS_3mapENS_6vectorES7_bxydS5_NS9_14adl_serializerENSC_IhNS5_IhEEEEvEEEENS_19__map_value_compareIS7_SH_NS_4lessIvEELb1EEENS5_ISH_EEEC2ERKSL_, symObjAddr: 0xB9BC, symBinAddr: 0x100016438, symSize: 0x7C }
  - { offset: 0x64CE6, size: 0x8, addend: 0x0, symName: __ZNSt3__117__compressed_pairINS_15__tree_end_nodeIPNS_16__tree_node_baseIPvEEEENS_9allocatorINS_11__tree_nodeINS_12__value_typeINS_12basic_stringIcNS_11char_traitsIcEENS7_IcEEEEN8nlohmann16json_abi_v3_11_310basic_jsonINS_3mapENS_6vectorESE_bxydS7_NSG_14adl_serializerENSJ_IhNS7_IhEEEEvEEEES3_EEEEEC1B8ne180100ILb1EvEEv, symObjAddr: 0xBA38, symBinAddr: 0x1000164B4, symSize: 0x2C }
  - { offset: 0x64D1B, size: 0x8, addend: 0x0, symName: __ZNSt3__117__compressed_pairImNS_19__map_value_compareINS_12basic_stringIcNS_11char_traitsIcEENS_9allocatorIcEEEENS_12__value_typeIS7_N8nlohmann16json_abi_v3_11_310basic_jsonINS_3mapENS_6vectorES7_bxydS5_NSA_14adl_serializerENSD_IhNS5_IhEEEEvEEEENS_4lessIvEELb1EEEEC1B8ne180100IiRKSL_EEOT_OT0_, symObjAddr: 0xBA64, symBinAddr: 0x1000164E0, symSize: 0x3C }
  - { offset: 0x64D73, size: 0x8, addend: 0x0, symName: __ZNSt3__117__compressed_pairINS_15__tree_end_nodeIPNS_16__tree_node_baseIPvEEEENS_9allocatorINS_11__tree_nodeINS_12__value_typeINS_12basic_stringIcNS_11char_traitsIcEENS7_IcEEEEN8nlohmann16json_abi_v3_11_310basic_jsonINS_3mapENS_6vectorESE_bxydS7_NSG_14adl_serializerENSJ_IhNS7_IhEEEEvEEEES3_EEEEEC2B8ne180100ILb1EvEEv, symObjAddr: 0xBAA0, symBinAddr: 0x10001651C, symSize: 0x34 }
  - { offset: 0x64DA8, size: 0x8, addend: 0x0, symName: __ZNSt3__122__compressed_pair_elemINS_15__tree_end_nodeIPNS_16__tree_node_baseIPvEEEELi0ELb0EEC2B8ne180100ENS_16__value_init_tagE, symObjAddr: 0xBAD4, symBinAddr: 0x100016550, symSize: 0x2C }
  - { offset: 0x64DDD, size: 0x8, addend: 0x0, symName: __ZNSt3__122__compressed_pair_elemINS_9allocatorINS_11__tree_nodeINS_12__value_typeINS_12basic_stringIcNS_11char_traitsIcEENS1_IcEEEEN8nlohmann16json_abi_v3_11_310basic_jsonINS_3mapENS_6vectorES8_bxydS1_NSA_14adl_serializerENSD_IhNS1_IhEEEEvEEEEPvEEEELi1ELb1EEC2B8ne180100ENS_16__value_init_tagE, symObjAddr: 0xBB00, symBinAddr: 0x10001657C, symSize: 0x2C }
  - { offset: 0x64E12, size: 0x8, addend: 0x0, symName: __ZNSt3__115__tree_end_nodeIPNS_16__tree_node_baseIPvEEEC1B8ne180100Ev, symObjAddr: 0xBB2C, symBinAddr: 0x1000165A8, symSize: 0x2C }
  - { offset: 0x64E3C, size: 0x8, addend: 0x0, symName: __ZNSt3__115__tree_end_nodeIPNS_16__tree_node_baseIPvEEEC2B8ne180100Ev, symObjAddr: 0xBB58, symBinAddr: 0x1000165D4, symSize: 0x18 }
  - { offset: 0x64E66, size: 0x8, addend: 0x0, symName: __ZNSt3__19allocatorINS_11__tree_nodeINS_12__value_typeINS_12basic_stringIcNS_11char_traitsIcEENS0_IcEEEEN8nlohmann16json_abi_v3_11_310basic_jsonINS_3mapENS_6vectorES7_bxydS0_NS9_14adl_serializerENSC_IhNS0_IhEEEEvEEEEPvEEEC2B8ne180100Ev, symObjAddr: 0xBB70, symBinAddr: 0x1000165EC, symSize: 0x2C }
  - { offset: 0x64E90, size: 0x8, addend: 0x0, symName: __ZNSt3__116__non_trivial_ifILb1ENS_9allocatorINS_11__tree_nodeINS_12__value_typeINS_12basic_stringIcNS_11char_traitsIcEENS1_IcEEEEN8nlohmann16json_abi_v3_11_310basic_jsonINS_3mapENS_6vectorES8_bxydS1_NSA_14adl_serializerENSD_IhNS1_IhEEEEvEEEEPvEEEEEC2B8ne180100Ev, symObjAddr: 0xBB9C, symBinAddr: 0x100016618, symSize: 0x14 }
  - { offset: 0x64EBA, size: 0x8, addend: 0x0, symName: __ZNSt3__117__compressed_pairImNS_19__map_value_compareINS_12basic_stringIcNS_11char_traitsIcEENS_9allocatorIcEEEENS_12__value_typeIS7_N8nlohmann16json_abi_v3_11_310basic_jsonINS_3mapENS_6vectorES7_bxydS5_NSA_14adl_serializerENSD_IhNS5_IhEEEEvEEEENS_4lessIvEELb1EEEEC2B8ne180100IiRKSL_EEOT_OT0_, symObjAddr: 0xBBB0, symBinAddr: 0x10001662C, symSize: 0x44 }
  - { offset: 0x64F12, size: 0x8, addend: 0x0, symName: __ZNSt3__122__compressed_pair_elemINS_19__map_value_compareINS_12basic_stringIcNS_11char_traitsIcEENS_9allocatorIcEEEENS_12__value_typeIS7_N8nlohmann16json_abi_v3_11_310basic_jsonINS_3mapENS_6vectorES7_bxydS5_NSA_14adl_serializerENSD_IhNS5_IhEEEEvEEEENS_4lessIvEELb1EEELi1ELb1EEC2B8ne180100IRKSL_vEEOT_, symObjAddr: 0xBC18, symBinAddr: 0x100016670, symSize: 0x18 }
  - { offset: 0x64F54, size: 0x8, addend: 0x0, symName: __ZNKSt3__117__compressed_pairIPNS_3mapINS_12basic_stringIcNS_11char_traitsIcEENS_9allocatorIcEEEEN8nlohmann16json_abi_v3_11_310basic_jsonIS1_NS_6vectorES7_bxydS5_NS9_14adl_serializerENSB_IhNS5_IhEEEEvEENS_4lessIvEENS5_INS_4pairIKS7_SF_EEEEEEZNSF_6createISM_JEEEPT_DpOT0_EUlSN_E_E5firstB8ne180100Ev, symObjAddr: 0xBC30, symBinAddr: 0x100016688, symSize: 0x24 }
  - { offset: 0x64F7A, size: 0x8, addend: 0x0, symName: __ZNKSt3__122__compressed_pair_elemIPNS_3mapINS_12basic_stringIcNS_11char_traitsIcEENS_9allocatorIcEEEEN8nlohmann16json_abi_v3_11_310basic_jsonIS1_NS_6vectorES7_bxydS5_NS9_14adl_serializerENSB_IhNS5_IhEEEEvEENS_4lessIvEENS5_INS_4pairIKS7_SF_EEEEEELi0ELb0EE5__getB8ne180100Ev, symObjAddr: 0xBC54, symBinAddr: 0x1000166AC, symSize: 0x14 }
  - { offset: 0x64FA0, size: 0x8, addend: 0x0, symName: __ZNKSt3__110unique_ptrINS_3mapINS_12basic_stringIcNS_11char_traitsIcEENS_9allocatorIcEEEEN8nlohmann16json_abi_v3_11_310basic_jsonIS1_NS_6vectorES7_bxydS5_NS9_14adl_serializerENSB_IhNS5_IhEEEEvEENS_4lessIvEENS5_INS_4pairIKS7_SF_EEEEEEZNSF_6createISM_JEEEPT_DpOT0_EUlPSM_E_EcvbB8ne180100Ev, symObjAddr: 0xBC68, symBinAddr: 0x1000166C0, symSize: 0x34 }
  - { offset: 0x64FC6, size: 0x8, addend: 0x0, symName: __ZNSt3__117__compressed_pairIPNS_3mapINS_12basic_stringIcNS_11char_traitsIcEENS_9allocatorIcEEEEN8nlohmann16json_abi_v3_11_310basic_jsonIS1_NS_6vectorES7_bxydS5_NS9_14adl_serializerENSB_IhNS5_IhEEEEvEENS_4lessIvEENS5_INS_4pairIKS7_SF_EEEEEEZNSF_6createISM_JEEEPT_DpOT0_EUlSN_E_E5firstB8ne180100Ev, symObjAddr: 0xBC9C, symBinAddr: 0x1000166F4, symSize: 0x24 }
  - { offset: 0x64FEC, size: 0x8, addend: 0x0, symName: __ZNSt3__122__compressed_pair_elemIPNS_3mapINS_12basic_stringIcNS_11char_traitsIcEENS_9allocatorIcEEEEN8nlohmann16json_abi_v3_11_310basic_jsonIS1_NS_6vectorES7_bxydS5_NS9_14adl_serializerENSB_IhNS5_IhEEEEvEENS_4lessIvEENS5_INS_4pairIKS7_SF_EEEEEELi0ELb0EE5__getB8ne180100Ev, symObjAddr: 0xBCC0, symBinAddr: 0x100016718, symSize: 0x14 }
  - { offset: 0x65012, size: 0x8, addend: 0x0, symName: __ZNSt3__110unique_ptrINS_3mapINS_12basic_stringIcNS_11char_traitsIcEENS_9allocatorIcEEEEN8nlohmann16json_abi_v3_11_310basic_jsonIS1_NS_6vectorES7_bxydS5_NS9_14adl_serializerENSB_IhNS5_IhEEEEvEENS_4lessIvEENS5_INS_4pairIKS7_SF_EEEEEEZNSF_6createISM_JEEEPT_DpOT0_EUlPSM_E_ED2B8ne180100Ev, symObjAddr: 0xBCD4, symBinAddr: 0x10001672C, symSize: 0x30 }
  - { offset: 0x6503C, size: 0x8, addend: 0x0, symName: __ZNSt3__110unique_ptrINS_3mapINS_12basic_stringIcNS_11char_traitsIcEENS_9allocatorIcEEEEN8nlohmann16json_abi_v3_11_310basic_jsonIS1_NS_6vectorES7_bxydS5_NS9_14adl_serializerENSB_IhNS5_IhEEEEvEENS_4lessIvEENS5_INS_4pairIKS7_SF_EEEEEEZNSF_6createISM_JEEEPT_DpOT0_EUlPSM_E_E5resetB8ne180100EST_, symObjAddr: 0xBD04, symBinAddr: 0x10001675C, symSize: 0x80 }
  - { offset: 0x65080, size: 0x8, addend: 0x0, symName: __ZNSt3__117__compressed_pairIPNS_3mapINS_12basic_stringIcNS_11char_traitsIcEENS_9allocatorIcEEEEN8nlohmann16json_abi_v3_11_310basic_jsonIS1_NS_6vectorES7_bxydS5_NS9_14adl_serializerENSB_IhNS5_IhEEEEvEENS_4lessIvEENS5_INS_4pairIKS7_SF_EEEEEEZNSF_6createISM_JEEEPT_DpOT0_EUlSN_E_E6secondB8ne180100Ev, symObjAddr: 0xBD84, symBinAddr: 0x1000167DC, symSize: 0x28 }
  - { offset: 0x650AB, size: 0x8, addend: 0x0, symName: __ZZN8nlohmann16json_abi_v3_11_310basic_jsonINSt3__13mapENS2_6vectorENS2_12basic_stringIcNS2_11char_traitsIcEENS2_9allocatorIcEEEEbxydS8_NS0_14adl_serializerENS4_IhNS8_IhEEEEvE6createINS3_ISA_SE_NS2_4lessIvEENS8_INS2_4pairIKSA_SE_EEEEEEJEEEPT_DpOT0_ENKUlPSM_E_clESS_, symObjAddr: 0xBDAC, symBinAddr: 0x100016804, symSize: 0x34 }
  - { offset: 0x650E4, size: 0x8, addend: 0x0, symName: __ZNSt3__122__compressed_pair_elemIZN8nlohmann16json_abi_v3_11_310basic_jsonINS_3mapENS_6vectorENS_12basic_stringIcNS_11char_traitsIcEENS_9allocatorIcEEEEbxydS9_NS2_14adl_serializerENS5_IhNS9_IhEEEEvE6createINS4_ISB_SF_NS_4lessIvEENS9_INS_4pairIKSB_SF_EEEEEEJEEEPT_DpOT0_EUlPSN_E_Li1ELb0EE5__getB8ne180100Ev, symObjAddr: 0xBDE0, symBinAddr: 0x100016838, symSize: 0x14 }
  - { offset: 0x6510A, size: 0x8, addend: 0x0, symName: __ZNSt3__116allocator_traitsINS_9allocatorINS_6vectorIN8nlohmann16json_abi_v3_11_310basic_jsonINS_3mapES2_NS_12basic_stringIcNS_11char_traitsIcEENS1_IcEEEEbxydS1_NS4_14adl_serializerENS2_IhNS1_IhEEEEvEENS1_ISF_EEEEEEE8allocateB8ne180100ERSI_m, symObjAddr: 0xBDF4, symBinAddr: 0x10001684C, symSize: 0x2C }
  - { offset: 0x651D3, size: 0x8, addend: 0x0, symName: __ZNSt3__110unique_ptrINS_6vectorIN8nlohmann16json_abi_v3_11_310basic_jsonINS_3mapES1_NS_12basic_stringIcNS_11char_traitsIcEENS_9allocatorIcEEEEbxydS9_NS3_14adl_serializerENS1_IhNS9_IhEEEEvEENS9_ISF_EEEEZNSF_6createISH_JEEEPT_DpOT0_EUlPSH_E_EC1B8ne180100ILb1EvEESO_NS_16__dependent_typeINS_27__unique_ptr_deleter_sfinaeISP_EEXT_EE15__lval_ref_typeE, symObjAddr: 0xBE20, symBinAddr: 0x100016878, symSize: 0x3C }
  - { offset: 0x65224, size: 0x8, addend: 0x0, symName: __ZNSt3__116allocator_traitsINS_9allocatorINS_6vectorIN8nlohmann16json_abi_v3_11_310basic_jsonINS_3mapES2_NS_12basic_stringIcNS_11char_traitsIcEENS1_IcEEEEbxydS1_NS4_14adl_serializerENS2_IhNS1_IhEEEEvEENS1_ISF_EEEEEEE9constructB8ne180100ISH_JEvEEvRSI_PT_DpOT0_, symObjAddr: 0xBE5C, symBinAddr: 0x1000168B4, symSize: 0x2C }
  - { offset: 0x65266, size: 0x8, addend: 0x0, symName: __ZNKSt3__110unique_ptrINS_6vectorIN8nlohmann16json_abi_v3_11_310basic_jsonINS_3mapES1_NS_12basic_stringIcNS_11char_traitsIcEENS_9allocatorIcEEEEbxydS9_NS3_14adl_serializerENS1_IhNS9_IhEEEEvEENS9_ISF_EEEEZNSF_6createISH_JEEEPT_DpOT0_EUlPSH_E_E3getB8ne180100Ev, symObjAddr: 0xBE88, symBinAddr: 0x1000168E0, symSize: 0x28 }
  - { offset: 0x6528C, size: 0x8, addend: 0x0, symName: __ZNSt3__110unique_ptrINS_6vectorIN8nlohmann16json_abi_v3_11_310basic_jsonINS_3mapES1_NS_12basic_stringIcNS_11char_traitsIcEENS_9allocatorIcEEEEbxydS9_NS3_14adl_serializerENS1_IhNS9_IhEEEEvEENS9_ISF_EEEEZNSF_6createISH_JEEEPT_DpOT0_EUlPSH_E_E7releaseB8ne180100Ev, symObjAddr: 0xBEDC, symBinAddr: 0x100016934, symSize: 0x44 }
  - { offset: 0x652C1, size: 0x8, addend: 0x0, symName: __ZNSt3__110unique_ptrINS_6vectorIN8nlohmann16json_abi_v3_11_310basic_jsonINS_3mapES1_NS_12basic_stringIcNS_11char_traitsIcEENS_9allocatorIcEEEEbxydS9_NS3_14adl_serializerENS1_IhNS9_IhEEEEvEENS9_ISF_EEEEZNSF_6createISH_JEEEPT_DpOT0_EUlPSH_E_ED1B8ne180100Ev, symObjAddr: 0xBF20, symBinAddr: 0x100016978, symSize: 0x2C }
  - { offset: 0x652EB, size: 0x8, addend: 0x0, symName: __ZNSt3__19allocatorINS_6vectorIN8nlohmann16json_abi_v3_11_310basic_jsonINS_3mapES1_NS_12basic_stringIcNS_11char_traitsIcEENS0_IcEEEEbxydS0_NS3_14adl_serializerENS1_IhNS0_IhEEEEvEENS0_ISE_EEEEE8allocateB8ne180100Em, symObjAddr: 0xBF4C, symBinAddr: 0x1000169A4, symSize: 0x5C }
  - { offset: 0x6532A, size: 0x8, addend: 0x0, symName: __ZNSt3__116allocator_traitsINS_9allocatorINS_6vectorIN8nlohmann16json_abi_v3_11_310basic_jsonINS_3mapES2_NS_12basic_stringIcNS_11char_traitsIcEENS1_IcEEEEbxydS1_NS4_14adl_serializerENS2_IhNS1_IhEEEEvEENS1_ISF_EEEEEEE8max_sizeB8ne180100ISI_vEEmRKSI_, symObjAddr: 0xBFA8, symBinAddr: 0x100016A00, symSize: 0x24 }
  - { offset: 0x65358, size: 0x8, addend: 0x0, symName: __ZNKSt3__19allocatorINS_6vectorIN8nlohmann16json_abi_v3_11_310basic_jsonINS_3mapES1_NS_12basic_stringIcNS_11char_traitsIcEENS0_IcEEEEbxydS0_NS3_14adl_serializerENS1_IhNS0_IhEEEEvEENS0_ISE_EEEEE8max_sizeB8ne180100Ev, symObjAddr: 0xBFCC, symBinAddr: 0x100016A24, symSize: 0x18 }
  - { offset: 0x6537E, size: 0x8, addend: 0x0, symName: __ZNSt3__110unique_ptrINS_6vectorIN8nlohmann16json_abi_v3_11_310basic_jsonINS_3mapES1_NS_12basic_stringIcNS_11char_traitsIcEENS_9allocatorIcEEEEbxydS9_NS3_14adl_serializerENS1_IhNS9_IhEEEEvEENS9_ISF_EEEEZNSF_6createISH_JEEEPT_DpOT0_EUlPSH_E_EC2B8ne180100ILb1EvEESO_NS_16__dependent_typeINS_27__unique_ptr_deleter_sfinaeISP_EEXT_EE15__lval_ref_typeE, symObjAddr: 0xBFE4, symBinAddr: 0x100016A3C, symSize: 0x48 }
  - { offset: 0x653CF, size: 0x8, addend: 0x0, symName: __ZNSt3__117__compressed_pairIPNS_6vectorIN8nlohmann16json_abi_v3_11_310basic_jsonINS_3mapES1_NS_12basic_stringIcNS_11char_traitsIcEENS_9allocatorIcEEEEbxydS9_NS3_14adl_serializerENS1_IhNS9_IhEEEEvEENS9_ISF_EEEEZNSF_6createISH_JEEEPT_DpOT0_EUlSI_E_EC1B8ne180100IRSI_RKSP_EEOSK_OT0_, symObjAddr: 0xC02C, symBinAddr: 0x100016A84, symSize: 0x3C }
  - { offset: 0x65427, size: 0x8, addend: 0x0, symName: __ZNSt3__117__compressed_pairIPNS_6vectorIN8nlohmann16json_abi_v3_11_310basic_jsonINS_3mapES1_NS_12basic_stringIcNS_11char_traitsIcEENS_9allocatorIcEEEEbxydS9_NS3_14adl_serializerENS1_IhNS9_IhEEEEvEENS9_ISF_EEEEZNSF_6createISH_JEEEPT_DpOT0_EUlSI_E_EC2B8ne180100IRSI_RKSP_EEOSK_OT0_, symObjAddr: 0xC068, symBinAddr: 0x100016AC0, symSize: 0x48 }
  - { offset: 0x6547F, size: 0x8, addend: 0x0, symName: __ZNSt3__122__compressed_pair_elemIPNS_6vectorIN8nlohmann16json_abi_v3_11_310basic_jsonINS_3mapES1_NS_12basic_stringIcNS_11char_traitsIcEENS_9allocatorIcEEEEbxydS9_NS3_14adl_serializerENS1_IhNS9_IhEEEEvEENS9_ISF_EEEELi0ELb0EEC2B8ne180100IRSI_vEEOT_, symObjAddr: 0xC0B0, symBinAddr: 0x100016B08, symSize: 0x24 }
  - { offset: 0x654C1, size: 0x8, addend: 0x0, symName: __ZNSt3__122__compressed_pair_elemIZN8nlohmann16json_abi_v3_11_310basic_jsonINS_3mapENS_6vectorENS_12basic_stringIcNS_11char_traitsIcEENS_9allocatorIcEEEEbxydS9_NS2_14adl_serializerENS5_IhNS9_IhEEEEvE6createINS5_ISF_NS9_ISF_EEEEJEEEPT_DpOT0_EUlPSI_E_Li1ELb0EEC2B8ne180100IRKSP_vEEOSJ_, symObjAddr: 0xC0D4, symBinAddr: 0x100016B2C, symSize: 0x24 }
  - { offset: 0x65503, size: 0x8, addend: 0x0, symName: __ZNSt3__19allocatorINS_6vectorIN8nlohmann16json_abi_v3_11_310basic_jsonINS_3mapES1_NS_12basic_stringIcNS_11char_traitsIcEENS0_IcEEEEbxydS0_NS3_14adl_serializerENS1_IhNS0_IhEEEEvEENS0_ISE_EEEEE9constructB8ne180100ISG_JEEEvPT_DpOT0_, symObjAddr: 0xC0F8, symBinAddr: 0x100016B50, symSize: 0x28 }
  - { offset: 0x65545, size: 0x8, addend: 0x0, symName: __ZNKSt3__117__compressed_pairIPNS_6vectorIN8nlohmann16json_abi_v3_11_310basic_jsonINS_3mapES1_NS_12basic_stringIcNS_11char_traitsIcEENS_9allocatorIcEEEEbxydS9_NS3_14adl_serializerENS1_IhNS9_IhEEEEvEENS9_ISF_EEEEZNSF_6createISH_JEEEPT_DpOT0_EUlSI_E_E5firstB8ne180100Ev, symObjAddr: 0xC120, symBinAddr: 0x100016B78, symSize: 0x24 }
  - { offset: 0x6556B, size: 0x8, addend: 0x0, symName: __ZNKSt3__122__compressed_pair_elemIPNS_6vectorIN8nlohmann16json_abi_v3_11_310basic_jsonINS_3mapES1_NS_12basic_stringIcNS_11char_traitsIcEENS_9allocatorIcEEEEbxydS9_NS3_14adl_serializerENS1_IhNS9_IhEEEEvEENS9_ISF_EEEELi0ELb0EE5__getB8ne180100Ev, symObjAddr: 0xC144, symBinAddr: 0x100016B9C, symSize: 0x14 }
  - { offset: 0x65591, size: 0x8, addend: 0x0, symName: __ZNKSt3__110unique_ptrINS_6vectorIN8nlohmann16json_abi_v3_11_310basic_jsonINS_3mapES1_NS_12basic_stringIcNS_11char_traitsIcEENS_9allocatorIcEEEEbxydS9_NS3_14adl_serializerENS1_IhNS9_IhEEEEvEENS9_ISF_EEEEZNSF_6createISH_JEEEPT_DpOT0_EUlPSH_E_EcvbB8ne180100Ev, symObjAddr: 0xC158, symBinAddr: 0x100016BB0, symSize: 0x34 }
  - { offset: 0x655B7, size: 0x8, addend: 0x0, symName: __ZNSt3__117__compressed_pairIPNS_6vectorIN8nlohmann16json_abi_v3_11_310basic_jsonINS_3mapES1_NS_12basic_stringIcNS_11char_traitsIcEENS_9allocatorIcEEEEbxydS9_NS3_14adl_serializerENS1_IhNS9_IhEEEEvEENS9_ISF_EEEEZNSF_6createISH_JEEEPT_DpOT0_EUlSI_E_E5firstB8ne180100Ev, symObjAddr: 0xC18C, symBinAddr: 0x100016BE4, symSize: 0x24 }
  - { offset: 0x655DD, size: 0x8, addend: 0x0, symName: __ZNSt3__122__compressed_pair_elemIPNS_6vectorIN8nlohmann16json_abi_v3_11_310basic_jsonINS_3mapES1_NS_12basic_stringIcNS_11char_traitsIcEENS_9allocatorIcEEEEbxydS9_NS3_14adl_serializerENS1_IhNS9_IhEEEEvEENS9_ISF_EEEELi0ELb0EE5__getB8ne180100Ev, symObjAddr: 0xC1B0, symBinAddr: 0x100016C08, symSize: 0x14 }
  - { offset: 0x65603, size: 0x8, addend: 0x0, symName: __ZNSt3__110unique_ptrINS_6vectorIN8nlohmann16json_abi_v3_11_310basic_jsonINS_3mapES1_NS_12basic_stringIcNS_11char_traitsIcEENS_9allocatorIcEEEEbxydS9_NS3_14adl_serializerENS1_IhNS9_IhEEEEvEENS9_ISF_EEEEZNSF_6createISH_JEEEPT_DpOT0_EUlPSH_E_ED2B8ne180100Ev, symObjAddr: 0xC1C4, symBinAddr: 0x100016C1C, symSize: 0x30 }
  - { offset: 0x6562D, size: 0x8, addend: 0x0, symName: __ZNSt3__110unique_ptrINS_6vectorIN8nlohmann16json_abi_v3_11_310basic_jsonINS_3mapES1_NS_12basic_stringIcNS_11char_traitsIcEENS_9allocatorIcEEEEbxydS9_NS3_14adl_serializerENS1_IhNS9_IhEEEEvEENS9_ISF_EEEEZNSF_6createISH_JEEEPT_DpOT0_EUlPSH_E_E5resetB8ne180100ESO_, symObjAddr: 0xC1F4, symBinAddr: 0x100016C4C, symSize: 0x80 }
  - { offset: 0x65671, size: 0x8, addend: 0x0, symName: __ZNSt3__117__compressed_pairIPNS_6vectorIN8nlohmann16json_abi_v3_11_310basic_jsonINS_3mapES1_NS_12basic_stringIcNS_11char_traitsIcEENS_9allocatorIcEEEEbxydS9_NS3_14adl_serializerENS1_IhNS9_IhEEEEvEENS9_ISF_EEEEZNSF_6createISH_JEEEPT_DpOT0_EUlSI_E_E6secondB8ne180100Ev, symObjAddr: 0xC274, symBinAddr: 0x100016CCC, symSize: 0x28 }
  - { offset: 0x6569C, size: 0x8, addend: 0x0, symName: __ZZN8nlohmann16json_abi_v3_11_310basic_jsonINSt3__13mapENS2_6vectorENS2_12basic_stringIcNS2_11char_traitsIcEENS2_9allocatorIcEEEEbxydS8_NS0_14adl_serializerENS4_IhNS8_IhEEEEvE6createINS4_ISE_NS8_ISE_EEEEJEEEPT_DpOT0_ENKUlPSH_E_clESN_, symObjAddr: 0xC29C, symBinAddr: 0x100016CF4, symSize: 0x34 }
  - { offset: 0x656D5, size: 0x8, addend: 0x0, symName: __ZNSt3__122__compressed_pair_elemIZN8nlohmann16json_abi_v3_11_310basic_jsonINS_3mapENS_6vectorENS_12basic_stringIcNS_11char_traitsIcEENS_9allocatorIcEEEEbxydS9_NS2_14adl_serializerENS5_IhNS9_IhEEEEvE6createINS5_ISF_NS9_ISF_EEEEJEEEPT_DpOT0_EUlPSI_E_Li1ELb0EE5__getB8ne180100Ev, symObjAddr: 0xC2D0, symBinAddr: 0x100016D28, symSize: 0x14 }
  - { offset: 0x656FB, size: 0x8, addend: 0x0, symName: __ZNSt3__116allocator_traitsINS_9allocatorINS_12basic_stringIcNS_11char_traitsIcEENS1_IcEEEEEEE8allocateB8ne180100ERS7_m, symObjAddr: 0xC2E4, symBinAddr: 0x100016D3C, symSize: 0x2C }
  - { offset: 0x65799, size: 0x8, addend: 0x0, symName: __ZNSt3__110unique_ptrINS_12basic_stringIcNS_11char_traitsIcEENS_9allocatorIcEEEEZN8nlohmann16json_abi_v3_11_310basic_jsonINS_3mapENS_6vectorES6_bxydS4_NS8_14adl_serializerENSB_IhNS4_IhEEEEvE6createIS6_JRA1_KcEEEPT_DpOT0_EUlPS6_E_EC1B8ne180100ILb1EvEESP_NS_16__dependent_typeINS_27__unique_ptr_deleter_sfinaeISQ_EEXT_EE15__lval_ref_typeE, symObjAddr: 0xC310, symBinAddr: 0x100016D68, symSize: 0x3C }
  - { offset: 0x657EA, size: 0x8, addend: 0x0, symName: __ZNSt3__116allocator_traitsINS_9allocatorINS_12basic_stringIcNS_11char_traitsIcEENS1_IcEEEEEEE9constructB8ne180100IS6_JRA1_KcEvEEvRS7_PT_DpOT0_, symObjAddr: 0xC34C, symBinAddr: 0x100016DA4, symSize: 0x34 }
  - { offset: 0x65841, size: 0x8, addend: 0x0, symName: __ZNKSt3__110unique_ptrINS_12basic_stringIcNS_11char_traitsIcEENS_9allocatorIcEEEEZN8nlohmann16json_abi_v3_11_310basic_jsonINS_3mapENS_6vectorES6_bxydS4_NS8_14adl_serializerENSB_IhNS4_IhEEEEvE6createIS6_JRA1_KcEEEPT_DpOT0_EUlPS6_E_E3getB8ne180100Ev, symObjAddr: 0xC380, symBinAddr: 0x100016DD8, symSize: 0x28 }
  - { offset: 0x65867, size: 0x8, addend: 0x0, symName: __ZNSt3__110unique_ptrINS_12basic_stringIcNS_11char_traitsIcEENS_9allocatorIcEEEEZN8nlohmann16json_abi_v3_11_310basic_jsonINS_3mapENS_6vectorES6_bxydS4_NS8_14adl_serializerENSB_IhNS4_IhEEEEvE6createIS6_JRA1_KcEEEPT_DpOT0_EUlPS6_E_E7releaseB8ne180100Ev, symObjAddr: 0xC3D4, symBinAddr: 0x100016E2C, symSize: 0x44 }
  - { offset: 0x6589C, size: 0x8, addend: 0x0, symName: __ZNSt3__110unique_ptrINS_12basic_stringIcNS_11char_traitsIcEENS_9allocatorIcEEEEZN8nlohmann16json_abi_v3_11_310basic_jsonINS_3mapENS_6vectorES6_bxydS4_NS8_14adl_serializerENSB_IhNS4_IhEEEEvE6createIS6_JRA1_KcEEEPT_DpOT0_EUlPS6_E_ED1B8ne180100Ev, symObjAddr: 0xC418, symBinAddr: 0x100016E70, symSize: 0x2C }
  - { offset: 0x658C6, size: 0x8, addend: 0x0, symName: __ZNSt3__19allocatorINS_12basic_stringIcNS_11char_traitsIcEENS0_IcEEEEE8allocateB8ne180100Em, symObjAddr: 0xC444, symBinAddr: 0x100016E9C, symSize: 0x5C }
  - { offset: 0x65905, size: 0x8, addend: 0x0, symName: __ZNSt3__116allocator_traitsINS_9allocatorINS_12basic_stringIcNS_11char_traitsIcEENS1_IcEEEEEEE8max_sizeB8ne180100IS7_vEEmRKS7_, symObjAddr: 0xC4A0, symBinAddr: 0x100016EF8, symSize: 0x24 }
  - { offset: 0x65933, size: 0x8, addend: 0x0, symName: __ZNKSt3__19allocatorINS_12basic_stringIcNS_11char_traitsIcEENS0_IcEEEEE8max_sizeB8ne180100Ev, symObjAddr: 0xC4C4, symBinAddr: 0x100016F1C, symSize: 0x18 }
  - { offset: 0x65959, size: 0x8, addend: 0x0, symName: __ZNSt3__110unique_ptrINS_12basic_stringIcNS_11char_traitsIcEENS_9allocatorIcEEEEZN8nlohmann16json_abi_v3_11_310basic_jsonINS_3mapENS_6vectorES6_bxydS4_NS8_14adl_serializerENSB_IhNS4_IhEEEEvE6createIS6_JRA1_KcEEEPT_DpOT0_EUlPS6_E_EC2B8ne180100ILb1EvEESP_NS_16__dependent_typeINS_27__unique_ptr_deleter_sfinaeISQ_EEXT_EE15__lval_ref_typeE, symObjAddr: 0xC4DC, symBinAddr: 0x100016F34, symSize: 0x48 }
  - { offset: 0x659B0, size: 0x8, addend: 0x0, symName: __ZNSt3__117__compressed_pairIPNS_12basic_stringIcNS_11char_traitsIcEENS_9allocatorIcEEEEZN8nlohmann16json_abi_v3_11_310basic_jsonINS_3mapENS_6vectorES6_bxydS4_NS9_14adl_serializerENSC_IhNS4_IhEEEEvE6createIS6_JRA1_KcEEEPT_DpOT0_EUlS7_E_EC1B8ne180100IRS7_RKSQ_EEOSL_OT0_, symObjAddr: 0xC524, symBinAddr: 0x100016F7C, symSize: 0x3C }
  - { offset: 0x65A08, size: 0x8, addend: 0x0, symName: __ZNSt3__117__compressed_pairIPNS_12basic_stringIcNS_11char_traitsIcEENS_9allocatorIcEEEEZN8nlohmann16json_abi_v3_11_310basic_jsonINS_3mapENS_6vectorES6_bxydS4_NS9_14adl_serializerENSC_IhNS4_IhEEEEvE6createIS6_JRA1_KcEEEPT_DpOT0_EUlS7_E_EC2B8ne180100IRS7_RKSQ_EEOSL_OT0_, symObjAddr: 0xC560, symBinAddr: 0x100016FB8, symSize: 0x48 }
  - { offset: 0x65A60, size: 0x8, addend: 0x0, symName: __ZNSt3__122__compressed_pair_elemIPNS_12basic_stringIcNS_11char_traitsIcEENS_9allocatorIcEEEELi0ELb0EEC2B8ne180100IRS7_vEEOT_, symObjAddr: 0xC5A8, symBinAddr: 0x100017000, symSize: 0x24 }
  - { offset: 0x65AA2, size: 0x8, addend: 0x0, symName: __ZNSt3__122__compressed_pair_elemIZN8nlohmann16json_abi_v3_11_310basic_jsonINS_3mapENS_6vectorENS_12basic_stringIcNS_11char_traitsIcEENS_9allocatorIcEEEEbxydS9_NS2_14adl_serializerENS5_IhNS9_IhEEEEvE6createISB_JRA1_KcEEEPT_DpOT0_EUlPSB_E_Li1ELb0EEC2B8ne180100IRKSQ_vEEOSK_, symObjAddr: 0xC5CC, symBinAddr: 0x100017024, symSize: 0x24 }
  - { offset: 0x65AE4, size: 0x8, addend: 0x0, symName: __ZNSt3__19allocatorINS_12basic_stringIcNS_11char_traitsIcEENS0_IcEEEEE9constructB8ne180100IS5_JRA1_KcEEEvPT_DpOT0_, symObjAddr: 0xC5F0, symBinAddr: 0x100017048, symSize: 0x30 }
  - { offset: 0x65B3A, size: 0x8, addend: 0x0, symName: __ZNKSt3__117__compressed_pairIPNS_12basic_stringIcNS_11char_traitsIcEENS_9allocatorIcEEEEZN8nlohmann16json_abi_v3_11_310basic_jsonINS_3mapENS_6vectorES6_bxydS4_NS9_14adl_serializerENSC_IhNS4_IhEEEEvE6createIS6_JRA1_KcEEEPT_DpOT0_EUlS7_E_E5firstB8ne180100Ev, symObjAddr: 0xC620, symBinAddr: 0x100017078, symSize: 0x24 }
  - { offset: 0x65B60, size: 0x8, addend: 0x0, symName: __ZNKSt3__110unique_ptrINS_12basic_stringIcNS_11char_traitsIcEENS_9allocatorIcEEEEZN8nlohmann16json_abi_v3_11_310basic_jsonINS_3mapENS_6vectorES6_bxydS4_NS8_14adl_serializerENSB_IhNS4_IhEEEEvE6createIS6_JRA1_KcEEEPT_DpOT0_EUlPS6_E_EcvbB8ne180100Ev, symObjAddr: 0xC644, symBinAddr: 0x10001709C, symSize: 0x34 }
  - { offset: 0x65B86, size: 0x8, addend: 0x0, symName: __ZNSt3__117__compressed_pairIPNS_12basic_stringIcNS_11char_traitsIcEENS_9allocatorIcEEEEZN8nlohmann16json_abi_v3_11_310basic_jsonINS_3mapENS_6vectorES6_bxydS4_NS9_14adl_serializerENSC_IhNS4_IhEEEEvE6createIS6_JRA1_KcEEEPT_DpOT0_EUlS7_E_E5firstB8ne180100Ev, symObjAddr: 0xC678, symBinAddr: 0x1000170D0, symSize: 0x24 }
  - { offset: 0x65BAC, size: 0x8, addend: 0x0, symName: __ZNSt3__122__compressed_pair_elemIPNS_12basic_stringIcNS_11char_traitsIcEENS_9allocatorIcEEEELi0ELb0EE5__getB8ne180100Ev, symObjAddr: 0xC69C, symBinAddr: 0x1000170F4, symSize: 0x14 }
  - { offset: 0x65BD2, size: 0x8, addend: 0x0, symName: __ZNSt3__110unique_ptrINS_12basic_stringIcNS_11char_traitsIcEENS_9allocatorIcEEEEZN8nlohmann16json_abi_v3_11_310basic_jsonINS_3mapENS_6vectorES6_bxydS4_NS8_14adl_serializerENSB_IhNS4_IhEEEEvE6createIS6_JRA1_KcEEEPT_DpOT0_EUlPS6_E_ED2B8ne180100Ev, symObjAddr: 0xC6B0, symBinAddr: 0x100017108, symSize: 0x30 }
  - { offset: 0x65BFC, size: 0x8, addend: 0x0, symName: __ZNSt3__110unique_ptrINS_12basic_stringIcNS_11char_traitsIcEENS_9allocatorIcEEEEZN8nlohmann16json_abi_v3_11_310basic_jsonINS_3mapENS_6vectorES6_bxydS4_NS8_14adl_serializerENSB_IhNS4_IhEEEEvE6createIS6_JRA1_KcEEEPT_DpOT0_EUlPS6_E_E5resetB8ne180100ESP_, symObjAddr: 0xC6E0, symBinAddr: 0x100017138, symSize: 0x80 }
  - { offset: 0x65C40, size: 0x8, addend: 0x0, symName: __ZNSt3__117__compressed_pairIPNS_12basic_stringIcNS_11char_traitsIcEENS_9allocatorIcEEEEZN8nlohmann16json_abi_v3_11_310basic_jsonINS_3mapENS_6vectorES6_bxydS4_NS9_14adl_serializerENSC_IhNS4_IhEEEEvE6createIS6_JRA1_KcEEEPT_DpOT0_EUlS7_E_E6secondB8ne180100Ev, symObjAddr: 0xC760, symBinAddr: 0x1000171B8, symSize: 0x28 }
  - { offset: 0x65C6B, size: 0x8, addend: 0x0, symName: __ZZN8nlohmann16json_abi_v3_11_310basic_jsonINSt3__13mapENS2_6vectorENS2_12basic_stringIcNS2_11char_traitsIcEENS2_9allocatorIcEEEEbxydS8_NS0_14adl_serializerENS4_IhNS8_IhEEEEvE6createISA_JRA1_KcEEEPT_DpOT0_ENKUlPSA_E_clESO_, symObjAddr: 0xC788, symBinAddr: 0x1000171E0, symSize: 0x34 }
  - { offset: 0x65CA4, size: 0x8, addend: 0x0, symName: __ZNSt3__122__compressed_pair_elemIZN8nlohmann16json_abi_v3_11_310basic_jsonINS_3mapENS_6vectorENS_12basic_stringIcNS_11char_traitsIcEENS_9allocatorIcEEEEbxydS9_NS2_14adl_serializerENS5_IhNS9_IhEEEEvE6createISB_JRA1_KcEEEPT_DpOT0_EUlPSB_E_Li1ELb0EE5__getB8ne180100Ev, symObjAddr: 0xC7BC, symBinAddr: 0x100017214, symSize: 0x14 }
  - { offset: 0x65CCA, size: 0x8, addend: 0x0, symName: __ZNSt3__116allocator_traitsINS_9allocatorIN8nlohmann16json_abi_v3_11_327byte_container_with_subtypeINS_6vectorIhNS1_IhEEEEEEEEE8allocateB8ne180100ERS9_m, symObjAddr: 0xC7D0, symBinAddr: 0x100017228, symSize: 0x2C }
  - { offset: 0x65D93, size: 0x8, addend: 0x0, symName: __ZNSt3__110unique_ptrIN8nlohmann16json_abi_v3_11_327byte_container_with_subtypeINS_6vectorIhNS_9allocatorIhEEEEEEZNS2_10basic_jsonINS_3mapES4_NS_12basic_stringIcNS_11char_traitsIcEENS5_IcEEEEbxydS5_NS2_14adl_serializerES7_vE6createIS8_JEEEPT_DpOT0_EUlPS8_E_EC1B8ne180100ILb1EvEESO_NS_16__dependent_typeINS_27__unique_ptr_deleter_sfinaeISP_EEXT_EE15__lval_ref_typeE, symObjAddr: 0xC7FC, symBinAddr: 0x100017254, symSize: 0x3C }
  - { offset: 0x65DE4, size: 0x8, addend: 0x0, symName: __ZNSt3__116allocator_traitsINS_9allocatorIN8nlohmann16json_abi_v3_11_327byte_container_with_subtypeINS_6vectorIhNS1_IhEEEEEEEEE9constructB8ne180100IS8_JEvEEvRS9_PT_DpOT0_, symObjAddr: 0xC838, symBinAddr: 0x100017290, symSize: 0x2C }
  - { offset: 0x65E26, size: 0x8, addend: 0x0, symName: __ZNKSt3__110unique_ptrIN8nlohmann16json_abi_v3_11_327byte_container_with_subtypeINS_6vectorIhNS_9allocatorIhEEEEEEZNS2_10basic_jsonINS_3mapES4_NS_12basic_stringIcNS_11char_traitsIcEENS5_IcEEEEbxydS5_NS2_14adl_serializerES7_vE6createIS8_JEEEPT_DpOT0_EUlPS8_E_E3getB8ne180100Ev, symObjAddr: 0xC864, symBinAddr: 0x1000172BC, symSize: 0x28 }
  - { offset: 0x65E4C, size: 0x8, addend: 0x0, symName: __ZNSt3__110unique_ptrIN8nlohmann16json_abi_v3_11_327byte_container_with_subtypeINS_6vectorIhNS_9allocatorIhEEEEEEZNS2_10basic_jsonINS_3mapES4_NS_12basic_stringIcNS_11char_traitsIcEENS5_IcEEEEbxydS5_NS2_14adl_serializerES7_vE6createIS8_JEEEPT_DpOT0_EUlPS8_E_E7releaseB8ne180100Ev, symObjAddr: 0xC8B8, symBinAddr: 0x100017310, symSize: 0x44 }
  - { offset: 0x65E81, size: 0x8, addend: 0x0, symName: __ZNSt3__110unique_ptrIN8nlohmann16json_abi_v3_11_327byte_container_with_subtypeINS_6vectorIhNS_9allocatorIhEEEEEEZNS2_10basic_jsonINS_3mapES4_NS_12basic_stringIcNS_11char_traitsIcEENS5_IcEEEEbxydS5_NS2_14adl_serializerES7_vE6createIS8_JEEEPT_DpOT0_EUlPS8_E_ED1B8ne180100Ev, symObjAddr: 0xC8FC, symBinAddr: 0x100017354, symSize: 0x2C }
  - { offset: 0x65EAB, size: 0x8, addend: 0x0, symName: __ZNSt3__19allocatorIN8nlohmann16json_abi_v3_11_327byte_container_with_subtypeINS_6vectorIhNS0_IhEEEEEEE8allocateB8ne180100Em, symObjAddr: 0xC928, symBinAddr: 0x100017380, symSize: 0x5C }
  - { offset: 0x65EEA, size: 0x8, addend: 0x0, symName: __ZNSt3__116allocator_traitsINS_9allocatorIN8nlohmann16json_abi_v3_11_327byte_container_with_subtypeINS_6vectorIhNS1_IhEEEEEEEEE8max_sizeB8ne180100IS9_vEEmRKS9_, symObjAddr: 0xC984, symBinAddr: 0x1000173DC, symSize: 0x24 }
  - { offset: 0x65F18, size: 0x8, addend: 0x0, symName: __ZNKSt3__19allocatorIN8nlohmann16json_abi_v3_11_327byte_container_with_subtypeINS_6vectorIhNS0_IhEEEEEEE8max_sizeB8ne180100Ev, symObjAddr: 0xC9A8, symBinAddr: 0x100017400, symSize: 0x18 }
  - { offset: 0x65F3E, size: 0x8, addend: 0x0, symName: __ZNSt3__110unique_ptrIN8nlohmann16json_abi_v3_11_327byte_container_with_subtypeINS_6vectorIhNS_9allocatorIhEEEEEEZNS2_10basic_jsonINS_3mapES4_NS_12basic_stringIcNS_11char_traitsIcEENS5_IcEEEEbxydS5_NS2_14adl_serializerES7_vE6createIS8_JEEEPT_DpOT0_EUlPS8_E_EC2B8ne180100ILb1EvEESO_NS_16__dependent_typeINS_27__unique_ptr_deleter_sfinaeISP_EEXT_EE15__lval_ref_typeE, symObjAddr: 0xC9C0, symBinAddr: 0x100017418, symSize: 0x48 }
  - { offset: 0x65F8F, size: 0x8, addend: 0x0, symName: __ZNSt3__117__compressed_pairIPN8nlohmann16json_abi_v3_11_327byte_container_with_subtypeINS_6vectorIhNS_9allocatorIhEEEEEEZNS2_10basic_jsonINS_3mapES4_NS_12basic_stringIcNS_11char_traitsIcEENS5_IcEEEEbxydS5_NS2_14adl_serializerES7_vE6createIS8_JEEEPT_DpOT0_EUlS9_E_EC1B8ne180100IRS9_RKSP_EEOSK_OT0_, symObjAddr: 0xCA08, symBinAddr: 0x100017460, symSize: 0x3C }
  - { offset: 0x65FE7, size: 0x8, addend: 0x0, symName: __ZNSt3__117__compressed_pairIPN8nlohmann16json_abi_v3_11_327byte_container_with_subtypeINS_6vectorIhNS_9allocatorIhEEEEEEZNS2_10basic_jsonINS_3mapES4_NS_12basic_stringIcNS_11char_traitsIcEENS5_IcEEEEbxydS5_NS2_14adl_serializerES7_vE6createIS8_JEEEPT_DpOT0_EUlS9_E_EC2B8ne180100IRS9_RKSP_EEOSK_OT0_, symObjAddr: 0xCA44, symBinAddr: 0x10001749C, symSize: 0x48 }
  - { offset: 0x6603F, size: 0x8, addend: 0x0, symName: __ZNSt3__122__compressed_pair_elemIPN8nlohmann16json_abi_v3_11_327byte_container_with_subtypeINS_6vectorIhNS_9allocatorIhEEEEEELi0ELb0EEC2B8ne180100IRS9_vEEOT_, symObjAddr: 0xCA8C, symBinAddr: 0x1000174E4, symSize: 0x24 }
  - { offset: 0x66081, size: 0x8, addend: 0x0, symName: __ZNSt3__122__compressed_pair_elemIZN8nlohmann16json_abi_v3_11_310basic_jsonINS_3mapENS_6vectorENS_12basic_stringIcNS_11char_traitsIcEENS_9allocatorIcEEEEbxydS9_NS2_14adl_serializerENS5_IhNS9_IhEEEEvE6createINS2_27byte_container_with_subtypeISE_EEJEEEPT_DpOT0_EUlPSI_E_Li1ELb0EEC2B8ne180100IRKSP_vEEOSJ_, symObjAddr: 0xCAB0, symBinAddr: 0x100017508, symSize: 0x24 }
  - { offset: 0x660C3, size: 0x8, addend: 0x0, symName: __ZNSt3__19allocatorIN8nlohmann16json_abi_v3_11_327byte_container_with_subtypeINS_6vectorIhNS0_IhEEEEEEE9constructB8ne180100IS7_JEEEvPT_DpOT0_, symObjAddr: 0xCAD4, symBinAddr: 0x10001752C, symSize: 0x28 }
  - { offset: 0x66105, size: 0x8, addend: 0x0, symName: __ZN8nlohmann16json_abi_v3_11_327byte_container_with_subtypeINSt3__16vectorIhNS2_9allocatorIhEEEEEC1Ev, symObjAddr: 0xCAFC, symBinAddr: 0x100017554, symSize: 0x2C }
  - { offset: 0x6612F, size: 0x8, addend: 0x0, symName: __ZN8nlohmann16json_abi_v3_11_327byte_container_with_subtypeINSt3__16vectorIhNS2_9allocatorIhEEEEEC2Ev, symObjAddr: 0xCB28, symBinAddr: 0x100017580, symSize: 0x34 }
  - { offset: 0x66159, size: 0x8, addend: 0x0, symName: __ZNSt3__16vectorIhNS_9allocatorIhEEEC2B8ne180100Ev, symObjAddr: 0xCB5C, symBinAddr: 0x1000175B4, symSize: 0x4C }
  - { offset: 0x66183, size: 0x8, addend: 0x0, symName: __ZNSt3__117__compressed_pairIPhNS_9allocatorIhEEEC1B8ne180100IDnNS_18__default_init_tagEEEOT_OT0_, symObjAddr: 0xCBA8, symBinAddr: 0x100017600, symSize: 0x3C }
  - { offset: 0x661DB, size: 0x8, addend: 0x0, symName: __ZNSt3__117__compressed_pairIPhNS_9allocatorIhEEEC2B8ne180100IDnNS_18__default_init_tagEEEOT_OT0_, symObjAddr: 0xCBE4, symBinAddr: 0x10001763C, symSize: 0x40 }
  - { offset: 0x66233, size: 0x8, addend: 0x0, symName: __ZNSt3__122__compressed_pair_elemIPhLi0ELb0EEC2B8ne180100IDnvEEOT_, symObjAddr: 0xCC24, symBinAddr: 0x10001767C, symSize: 0x1C }
  - { offset: 0x66275, size: 0x8, addend: 0x0, symName: __ZNSt3__122__compressed_pair_elemINS_9allocatorIhEELi1ELb1EEC2B8ne180100ENS_18__default_init_tagE, symObjAddr: 0xCC40, symBinAddr: 0x100017698, symSize: 0x2C }
  - { offset: 0x662AA, size: 0x8, addend: 0x0, symName: __ZNSt3__19allocatorIhEC2B8ne180100Ev, symObjAddr: 0xCC6C, symBinAddr: 0x1000176C4, symSize: 0x2C }
  - { offset: 0x662D4, size: 0x8, addend: 0x0, symName: __ZNSt3__116__non_trivial_ifILb1ENS_9allocatorIhEEEC2B8ne180100Ev, symObjAddr: 0xCC98, symBinAddr: 0x1000176F0, symSize: 0x14 }
  - { offset: 0x662FE, size: 0x8, addend: 0x0, symName: __ZNKSt3__117__compressed_pairIPN8nlohmann16json_abi_v3_11_327byte_container_with_subtypeINS_6vectorIhNS_9allocatorIhEEEEEEZNS2_10basic_jsonINS_3mapES4_NS_12basic_stringIcNS_11char_traitsIcEENS5_IcEEEEbxydS5_NS2_14adl_serializerES7_vE6createIS8_JEEEPT_DpOT0_EUlS9_E_E5firstB8ne180100Ev, symObjAddr: 0xCCAC, symBinAddr: 0x100017704, symSize: 0x24 }
  - { offset: 0x66324, size: 0x8, addend: 0x0, symName: __ZNKSt3__122__compressed_pair_elemIPN8nlohmann16json_abi_v3_11_327byte_container_with_subtypeINS_6vectorIhNS_9allocatorIhEEEEEELi0ELb0EE5__getB8ne180100Ev, symObjAddr: 0xCCD0, symBinAddr: 0x100017728, symSize: 0x14 }
  - { offset: 0x6634A, size: 0x8, addend: 0x0, symName: __ZNKSt3__110unique_ptrIN8nlohmann16json_abi_v3_11_327byte_container_with_subtypeINS_6vectorIhNS_9allocatorIhEEEEEEZNS2_10basic_jsonINS_3mapES4_NS_12basic_stringIcNS_11char_traitsIcEENS5_IcEEEEbxydS5_NS2_14adl_serializerES7_vE6createIS8_JEEEPT_DpOT0_EUlPS8_E_EcvbB8ne180100Ev, symObjAddr: 0xCCE4, symBinAddr: 0x10001773C, symSize: 0x34 }
  - { offset: 0x66370, size: 0x8, addend: 0x0, symName: __ZNSt3__117__compressed_pairIPN8nlohmann16json_abi_v3_11_327byte_container_with_subtypeINS_6vectorIhNS_9allocatorIhEEEEEEZNS2_10basic_jsonINS_3mapES4_NS_12basic_stringIcNS_11char_traitsIcEENS5_IcEEEEbxydS5_NS2_14adl_serializerES7_vE6createIS8_JEEEPT_DpOT0_EUlS9_E_E5firstB8ne180100Ev, symObjAddr: 0xCD18, symBinAddr: 0x100017770, symSize: 0x24 }
  - { offset: 0x66396, size: 0x8, addend: 0x0, symName: __ZNSt3__122__compressed_pair_elemIPN8nlohmann16json_abi_v3_11_327byte_container_with_subtypeINS_6vectorIhNS_9allocatorIhEEEEEELi0ELb0EE5__getB8ne180100Ev, symObjAddr: 0xCD3C, symBinAddr: 0x100017794, symSize: 0x14 }
  - { offset: 0x663BC, size: 0x8, addend: 0x0, symName: __ZNSt3__110unique_ptrIN8nlohmann16json_abi_v3_11_327byte_container_with_subtypeINS_6vectorIhNS_9allocatorIhEEEEEEZNS2_10basic_jsonINS_3mapES4_NS_12basic_stringIcNS_11char_traitsIcEENS5_IcEEEEbxydS5_NS2_14adl_serializerES7_vE6createIS8_JEEEPT_DpOT0_EUlPS8_E_ED2B8ne180100Ev, symObjAddr: 0xCD50, symBinAddr: 0x1000177A8, symSize: 0x30 }
  - { offset: 0x663E6, size: 0x8, addend: 0x0, symName: __ZNSt3__110unique_ptrIN8nlohmann16json_abi_v3_11_327byte_container_with_subtypeINS_6vectorIhNS_9allocatorIhEEEEEEZNS2_10basic_jsonINS_3mapES4_NS_12basic_stringIcNS_11char_traitsIcEENS5_IcEEEEbxydS5_NS2_14adl_serializerES7_vE6createIS8_JEEEPT_DpOT0_EUlPS8_E_E5resetB8ne180100ESO_, symObjAddr: 0xCD80, symBinAddr: 0x1000177D8, symSize: 0x80 }
  - { offset: 0x6642A, size: 0x8, addend: 0x0, symName: __ZNSt3__117__compressed_pairIPN8nlohmann16json_abi_v3_11_327byte_container_with_subtypeINS_6vectorIhNS_9allocatorIhEEEEEEZNS2_10basic_jsonINS_3mapES4_NS_12basic_stringIcNS_11char_traitsIcEENS5_IcEEEEbxydS5_NS2_14adl_serializerES7_vE6createIS8_JEEEPT_DpOT0_EUlS9_E_E6secondB8ne180100Ev, symObjAddr: 0xCE00, symBinAddr: 0x100017858, symSize: 0x28 }
  - { offset: 0x66455, size: 0x8, addend: 0x0, symName: __ZZN8nlohmann16json_abi_v3_11_310basic_jsonINSt3__13mapENS2_6vectorENS2_12basic_stringIcNS2_11char_traitsIcEENS2_9allocatorIcEEEEbxydS8_NS0_14adl_serializerENS4_IhNS8_IhEEEEvE6createINS0_27byte_container_with_subtypeISD_EEJEEEPT_DpOT0_ENKUlPSH_E_clESN_, symObjAddr: 0xCE28, symBinAddr: 0x100017880, symSize: 0x34 }
  - { offset: 0x6648E, size: 0x8, addend: 0x0, symName: __ZNSt3__122__compressed_pair_elemIZN8nlohmann16json_abi_v3_11_310basic_jsonINS_3mapENS_6vectorENS_12basic_stringIcNS_11char_traitsIcEENS_9allocatorIcEEEEbxydS9_NS2_14adl_serializerENS5_IhNS9_IhEEEEvE6createINS2_27byte_container_with_subtypeISE_EEJEEEPT_DpOT0_EUlPSI_E_Li1ELb0EE5__getB8ne180100Ev, symObjAddr: 0xCE5C, symBinAddr: 0x1000178B4, symSize: 0x14 }
  - { offset: 0x664B4, size: 0x8, addend: 0x0, symName: __ZN8nlohmann16json_abi_v3_11_36detail9exception4nameERKNSt3__112basic_stringIcNS3_11char_traitsIcEENS3_9allocatorIcEEEEi, symObjAddr: 0xCF48, symBinAddr: 0x1000179A0, symSize: 0xA0 }
  - { offset: 0x664E5, size: 0x8, addend: 0x0, symName: __ZN8nlohmann16json_abi_v3_11_36detail9exception11diagnosticsEDn, symObjAddr: 0xCFE8, symBinAddr: 0x100017A40, symSize: 0x3C }
  - { offset: 0x66505, size: 0x8, addend: 0x0, symName: __ZN8nlohmann16json_abi_v3_11_36detail11other_errorC1EiPKc, symObjAddr: 0xD024, symBinAddr: 0x100017A7C, symSize: 0x3C }
  - { offset: 0x66551, size: 0x8, addend: 0x0, symName: __ZNSt3__112basic_stringIcNS_11char_traitsIcEENS_9allocatorIcEEEpLB8ne180100Ec, symObjAddr: 0xD628, symBinAddr: 0x100017F74, symSize: 0x34 }
  - { offset: 0x66586, size: 0x8, addend: 0x0, symName: __ZN8nlohmann16json_abi_v3_11_36detail11other_errorC2EiPKc, symObjAddr: 0xD6CC, symBinAddr: 0x100018018, symSize: 0x4C }
  - { offset: 0x665CC, size: 0x8, addend: 0x0, symName: __ZN8nlohmann16json_abi_v3_11_36detail9exceptionC2EiPKc, symObjAddr: 0xD718, symBinAddr: 0x100018064, symSize: 0x84 }
  - { offset: 0x66612, size: 0x8, addend: 0x0, symName: __ZN8nlohmann16json_abi_v3_11_36detail11other_errorD0Ev, symObjAddr: 0xD79C, symBinAddr: 0x1000180E8, symSize: 0x30 }
  - { offset: 0x6663E, size: 0x8, addend: 0x0, symName: __ZNK8nlohmann16json_abi_v3_11_36detail9exception4whatEv, symObjAddr: 0xD7CC, symBinAddr: 0x100018118, symSize: 0x28 }
  - { offset: 0x66664, size: 0x8, addend: 0x0, symName: __ZNSt9exceptionC2B8ne180100Ev, symObjAddr: 0xD7F4, symBinAddr: 0x100018140, symSize: 0x24 }
  - { offset: 0x6668E, size: 0x8, addend: 0x0, symName: __ZN8nlohmann16json_abi_v3_11_36detail9exceptionD1Ev, symObjAddr: 0xD818, symBinAddr: 0x100018164, symSize: 0x2C }
  - { offset: 0x666BA, size: 0x8, addend: 0x0, symName: __ZN8nlohmann16json_abi_v3_11_36detail9exceptionD0Ev, symObjAddr: 0xD844, symBinAddr: 0x100018190, symSize: 0x30 }
  - { offset: 0x666E6, size: 0x8, addend: 0x0, symName: __ZN8nlohmann16json_abi_v3_11_36detail9exceptionD2Ev, symObjAddr: 0xD874, symBinAddr: 0x1000181C0, symSize: 0x48 }
  - { offset: 0x66712, size: 0x8, addend: 0x0, symName: __ZN8nlohmann16json_abi_v3_11_36detail11other_errorD2Ev, symObjAddr: 0xD8BC, symBinAddr: 0x100018208, symSize: 0x2C }
  - { offset: 0x6674D, size: 0x8, addend: 0x0, symName: __ZN8nlohmann16json_abi_v3_11_310basic_jsonINSt3__13mapENS2_6vectorENS2_12basic_stringIcNS2_11char_traitsIcEENS2_9allocatorIcEEEEbxydS8_NS0_14adl_serializerENS4_IhNS8_IhEEEEvE6parserINS0_6detail22iterator_input_adapterINS2_11__wrap_iterIPKcEEEEEENSG_6parserISE_T_EESO_NS2_8functionIFbiNSG_13parse_event_tERSE_EEEbb, symObjAddr: 0xD8E8, symBinAddr: 0x100018234, symSize: 0xE4 }
  - { offset: 0x667A5, size: 0x8, addend: 0x0, symName: __ZNSt3__18functionIFbiN8nlohmann16json_abi_v3_11_36detail13parse_event_tERNS2_10basic_jsonINS_3mapENS_6vectorENS_12basic_stringIcNS_11char_traitsIcEENS_9allocatorIcEEEEbxydSB_NS2_14adl_serializerENS7_IhNSB_IhEEEEvEEEEC1ERKSK_, symObjAddr: 0xDA00, symBinAddr: 0x10001834C, symSize: 0x34 }
  - { offset: 0x667E0, size: 0x8, addend: 0x0, symName: __ZN8nlohmann16json_abi_v3_11_36detail6parserINS0_10basic_jsonINSt3__13mapENS4_6vectorENS4_12basic_stringIcNS4_11char_traitsIcEENS4_9allocatorIcEEEEbxydSA_NS0_14adl_serializerENS6_IhNSA_IhEEEEvEENS1_22iterator_input_adapterINS4_11__wrap_iterIPKcEEEEE5parseEbRSG_, symObjAddr: 0xDA34, symBinAddr: 0x100018380, symSize: 0x578 }
  - { offset: 0x6685A, size: 0x8, addend: 0x0, symName: __ZN8nlohmann16json_abi_v3_11_36detail6parserINS0_10basic_jsonINSt3__13mapENS4_6vectorENS4_12basic_stringIcNS4_11char_traitsIcEENS4_9allocatorIcEEEEbxydSA_NS0_14adl_serializerENS6_IhNSA_IhEEEEvEENS1_22iterator_input_adapterINS4_11__wrap_iterIPKcEEEEED1Ev, symObjAddr: 0xDFAC, symBinAddr: 0x1000188F8, symSize: 0x2C }
  - { offset: 0x66886, size: 0x8, addend: 0x0, symName: __ZNSt3__18functionIFbiN8nlohmann16json_abi_v3_11_36detail13parse_event_tERNS2_10basic_jsonINS_3mapENS_6vectorENS_12basic_stringIcNS_11char_traitsIcEENS_9allocatorIcEEEEbxydSB_NS2_14adl_serializerENS7_IhNSB_IhEEEEvEEEEC1EOSK_, symObjAddr: 0xDFD8, symBinAddr: 0x100018924, symSize: 0x34 }
  - { offset: 0x668C1, size: 0x8, addend: 0x0, symName: __ZN8nlohmann16json_abi_v3_11_36detail6parserINS0_10basic_jsonINSt3__13mapENS4_6vectorENS4_12basic_stringIcNS4_11char_traitsIcEENS4_9allocatorIcEEEEbxydSA_NS0_14adl_serializerENS6_IhNSA_IhEEEEvEENS1_22iterator_input_adapterINS4_11__wrap_iterIPKcEEEEEC1EOSM_NS4_8functionIFbiNS1_13parse_event_tERSG_EEEbb, symObjAddr: 0xE00C, symBinAddr: 0x100018958, symSize: 0x60 }
  - { offset: 0x66924, size: 0x8, addend: 0x0, symName: __ZNSt3__18functionIFbiN8nlohmann16json_abi_v3_11_36detail13parse_event_tERNS2_10basic_jsonINS_3mapENS_6vectorENS_12basic_stringIcNS_11char_traitsIcEENS_9allocatorIcEEEEbxydSB_NS2_14adl_serializerENS7_IhNSB_IhEEEEvEEEEC2EOSK_, symObjAddr: 0xE06C, symBinAddr: 0x1000189B8, symSize: 0x34 }
  - { offset: 0x6695F, size: 0x8, addend: 0x0, symName: __ZNSt3__110__function12__value_funcIFbiN8nlohmann16json_abi_v3_11_36detail13parse_event_tERNS3_10basic_jsonINS_3mapENS_6vectorENS_12basic_stringIcNS_11char_traitsIcEENS_9allocatorIcEEEEbxydSC_NS3_14adl_serializerENS8_IhNSC_IhEEEEvEEEEC1B8ne180100EOSL_, symObjAddr: 0xE0A0, symBinAddr: 0x1000189EC, symSize: 0x34 }
  - { offset: 0x66998, size: 0x8, addend: 0x0, symName: __ZNSt3__110__function12__value_funcIFbiN8nlohmann16json_abi_v3_11_36detail13parse_event_tERNS3_10basic_jsonINS_3mapENS_6vectorENS_12basic_stringIcNS_11char_traitsIcEENS_9allocatorIcEEEEbxydSC_NS3_14adl_serializerENS8_IhNSC_IhEEEEvEEEEC2B8ne180100EOSL_, symObjAddr: 0xE0D4, symBinAddr: 0x100018A20, symSize: 0xD0 }
  - { offset: 0x669D1, size: 0x8, addend: 0x0, symName: __ZNSt3__110__function12__value_funcIFbiN8nlohmann16json_abi_v3_11_36detail13parse_event_tERNS3_10basic_jsonINS_3mapENS_6vectorENS_12basic_stringIcNS_11char_traitsIcEENS_9allocatorIcEEEEbxydSC_NS3_14adl_serializerENS8_IhNSC_IhEEEEvEEEE9__as_baseB8ne180100EPv, symObjAddr: 0xE1A4, symBinAddr: 0x100018AF0, symSize: 0x14 }
  - { offset: 0x669F5, size: 0x8, addend: 0x0, symName: __ZN8nlohmann16json_abi_v3_11_36detail6parserINS0_10basic_jsonINSt3__13mapENS4_6vectorENS4_12basic_stringIcNS4_11char_traitsIcEENS4_9allocatorIcEEEEbxydSA_NS0_14adl_serializerENS6_IhNSA_IhEEEEvEENS1_22iterator_input_adapterINS4_11__wrap_iterIPKcEEEEEC2EOSM_NS4_8functionIFbiNS1_13parse_event_tERSG_EEEbb, symObjAddr: 0xE1B8, symBinAddr: 0x100018B04, symSize: 0xBC }
  - { offset: 0x66A58, size: 0x8, addend: 0x0, symName: __ZN8nlohmann16json_abi_v3_11_36detail5lexerINS0_10basic_jsonINSt3__13mapENS4_6vectorENS4_12basic_stringIcNS4_11char_traitsIcEENS4_9allocatorIcEEEEbxydSA_NS0_14adl_serializerENS6_IhNSA_IhEEEEvEENS1_22iterator_input_adapterINS4_11__wrap_iterIPKcEEEEEC1EOSM_b, symObjAddr: 0xE274, symBinAddr: 0x100018BC0, symSize: 0x48 }
  - { offset: 0x66A9E, size: 0x8, addend: 0x0, symName: __ZN8nlohmann16json_abi_v3_11_36detail6parserINS0_10basic_jsonINSt3__13mapENS4_6vectorENS4_12basic_stringIcNS4_11char_traitsIcEENS4_9allocatorIcEEEEbxydSA_NS0_14adl_serializerENS6_IhNSA_IhEEEEvEENS1_22iterator_input_adapterINS4_11__wrap_iterIPKcEEEEE9get_tokenEv, symObjAddr: 0xE2BC, symBinAddr: 0x100018C08, symSize: 0x34 }
  - { offset: 0x66AC4, size: 0x8, addend: 0x0, symName: __ZN8nlohmann16json_abi_v3_11_36detail5lexerINS0_10basic_jsonINSt3__13mapENS4_6vectorENS4_12basic_stringIcNS4_11char_traitsIcEENS4_9allocatorIcEEEEbxydSA_NS0_14adl_serializerENS6_IhNSA_IhEEEEvEENS1_22iterator_input_adapterINS4_11__wrap_iterIPKcEEEEED1Ev, symObjAddr: 0xE2F0, symBinAddr: 0x100018C3C, symSize: 0x2C }
  - { offset: 0x66AEE, size: 0x8, addend: 0x0, symName: __ZN8nlohmann16json_abi_v3_11_36detail5lexerINS0_10basic_jsonINSt3__13mapENS4_6vectorENS4_12basic_stringIcNS4_11char_traitsIcEENS4_9allocatorIcEEEEbxydSA_NS0_14adl_serializerENS6_IhNSA_IhEEEEvEENS1_22iterator_input_adapterINS4_11__wrap_iterIPKcEEEEEC2EOSM_b, symObjAddr: 0xE31C, symBinAddr: 0x100018C68, symSize: 0xB0 }
  - { offset: 0x66B34, size: 0x8, addend: 0x0, symName: __ZNSt3__16vectorIcNS_9allocatorIcEEEC1B8ne180100Ev, symObjAddr: 0xE3CC, symBinAddr: 0x100018D18, symSize: 0x2C }
  - { offset: 0x66B5E, size: 0x8, addend: 0x0, symName: __ZN8nlohmann16json_abi_v3_11_36detail5lexerINS0_10basic_jsonINSt3__13mapENS4_6vectorENS4_12basic_stringIcNS4_11char_traitsIcEENS4_9allocatorIcEEEEbxydSA_NS0_14adl_serializerENS6_IhNSA_IhEEEEvEENS1_22iterator_input_adapterINS4_11__wrap_iterIPKcEEEEE17get_decimal_pointEv, symObjAddr: 0xE3F8, symBinAddr: 0x100018D44, symSize: 0xB0 }
  - { offset: 0x66B82, size: 0x8, addend: 0x0, symName: __ZNSt3__16vectorIcNS_9allocatorIcEEEC2B8ne180100Ev, symObjAddr: 0xE4A8, symBinAddr: 0x100018DF4, symSize: 0x4C }
  - { offset: 0x66BAC, size: 0x8, addend: 0x0, symName: __ZNSt3__117__compressed_pairIPcNS_9allocatorIcEEEC1B8ne180100IDnNS_18__default_init_tagEEEOT_OT0_, symObjAddr: 0xE4F4, symBinAddr: 0x100018E40, symSize: 0x3C }
  - { offset: 0x66C04, size: 0x8, addend: 0x0, symName: __ZNSt3__117__compressed_pairIPcNS_9allocatorIcEEEC2B8ne180100IDnNS_18__default_init_tagEEEOT_OT0_, symObjAddr: 0xE530, symBinAddr: 0x100018E7C, symSize: 0x40 }
  - { offset: 0x66C5C, size: 0x8, addend: 0x0, symName: __ZNSt3__122__compressed_pair_elemIPcLi0ELb0EEC2B8ne180100IDnvEEOT_, symObjAddr: 0xE570, symBinAddr: 0x100018EBC, symSize: 0x1C }
  - { offset: 0x66C9E, size: 0x8, addend: 0x0, symName: __ZN8nlohmann16json_abi_v3_11_36detail5lexerINS0_10basic_jsonINSt3__13mapENS4_6vectorENS4_12basic_stringIcNS4_11char_traitsIcEENS4_9allocatorIcEEEEbxydSA_NS0_14adl_serializerENS6_IhNSA_IhEEEEvEENS1_22iterator_input_adapterINS4_11__wrap_iterIPKcEEEEE4scanEv, symObjAddr: 0xE58C, symBinAddr: 0x100018ED8, symSize: 0x284 }
  - { offset: 0x66D1B, size: 0x8, addend: 0x0, symName: __ZN8nlohmann16json_abi_v3_11_36detail5lexerINS0_10basic_jsonINSt3__13mapENS4_6vectorENS4_12basic_stringIcNS4_11char_traitsIcEENS4_9allocatorIcEEEEbxydSA_NS0_14adl_serializerENS6_IhNSA_IhEEEEvEENS1_22iterator_input_adapterINS4_11__wrap_iterIPKcEEEEE8skip_bomEv, symObjAddr: 0xEA0C, symBinAddr: 0x100019358, symSize: 0xA8 }
  - { offset: 0x66D41, size: 0x8, addend: 0x0, symName: __ZN8nlohmann16json_abi_v3_11_36detail5lexerINS0_10basic_jsonINSt3__13mapENS4_6vectorENS4_12basic_stringIcNS4_11char_traitsIcEENS4_9allocatorIcEEEEbxydSA_NS0_14adl_serializerENS6_IhNSA_IhEEEEvEENS1_22iterator_input_adapterINS4_11__wrap_iterIPKcEEEEE15skip_whitespaceEv, symObjAddr: 0xEAB4, symBinAddr: 0x100019400, symSize: 0xB8 }
  - { offset: 0x66D67, size: 0x8, addend: 0x0, symName: __ZN8nlohmann16json_abi_v3_11_36detail5lexerINS0_10basic_jsonINSt3__13mapENS4_6vectorENS4_12basic_stringIcNS4_11char_traitsIcEENS4_9allocatorIcEEEEbxydSA_NS0_14adl_serializerENS6_IhNSA_IhEEEEvEENS1_22iterator_input_adapterINS4_11__wrap_iterIPKcEEEEE12scan_commentEv, symObjAddr: 0xEB6C, symBinAddr: 0x1000194B8, symSize: 0x17C }
  - { offset: 0x66D8D, size: 0x8, addend: 0x0, symName: __ZN8nlohmann16json_abi_v3_11_36detail5lexerINS0_10basic_jsonINSt3__13mapENS4_6vectorENS4_12basic_stringIcNS4_11char_traitsIcEENS4_9allocatorIcEEEEbxydSA_NS0_14adl_serializerENS6_IhNSA_IhEEEEvEENS1_22iterator_input_adapterINS4_11__wrap_iterIPKcEEEEE12scan_literalESK_mNS1_10lexer_baseISG_E10token_typeE, symObjAddr: 0xECE8, symBinAddr: 0x100019634, symSize: 0x100 }
  - { offset: 0x66E38, size: 0x8, addend: 0x0, symName: __ZNSt3__15arrayIcLm4EE4dataB8ne180100Ev, symObjAddr: 0xEDE8, symBinAddr: 0x100019734, symSize: 0x14 }
  - { offset: 0x66E5E, size: 0x8, addend: 0x0, symName: __ZNKSt3__15arrayIcLm4EE4sizeB8ne180100Ev, symObjAddr: 0xEDFC, symBinAddr: 0x100019748, symSize: 0x14 }
  - { offset: 0x66EC2, size: 0x8, addend: 0x0, symName: __ZNSt3__15arrayIcLm5EE4dataB8ne180100Ev, symObjAddr: 0xEE10, symBinAddr: 0x10001975C, symSize: 0x14 }
  - { offset: 0x66EE8, size: 0x8, addend: 0x0, symName: __ZNKSt3__15arrayIcLm5EE4sizeB8ne180100Ev, symObjAddr: 0xEE24, symBinAddr: 0x100019770, symSize: 0x14 }
  - { offset: 0x66F0E, size: 0x8, addend: 0x0, symName: __ZN8nlohmann16json_abi_v3_11_36detail5lexerINS0_10basic_jsonINSt3__13mapENS4_6vectorENS4_12basic_stringIcNS4_11char_traitsIcEENS4_9allocatorIcEEEEbxydSA_NS0_14adl_serializerENS6_IhNSA_IhEEEEvEENS1_22iterator_input_adapterINS4_11__wrap_iterIPKcEEEEE11scan_stringEv, symObjAddr: 0xEE38, symBinAddr: 0x100019784, symSize: 0xB6C }
  - { offset: 0x66F81, size: 0x8, addend: 0x0, symName: __ZN8nlohmann16json_abi_v3_11_36detail5lexerINS0_10basic_jsonINSt3__13mapENS4_6vectorENS4_12basic_stringIcNS4_11char_traitsIcEENS4_9allocatorIcEEEEbxydSA_NS0_14adl_serializerENS6_IhNSA_IhEEEEvEENS1_22iterator_input_adapterINS4_11__wrap_iterIPKcEEEEE11scan_numberEv, symObjAddr: 0xFECC, symBinAddr: 0x10001A818, symSize: 0x65C }
  - { offset: 0x67098, size: 0x8, addend: 0x0, symName: __ZN8nlohmann16json_abi_v3_11_36detail5lexerINS0_10basic_jsonINSt3__13mapENS4_6vectorENS4_12basic_stringIcNS4_11char_traitsIcEENS4_9allocatorIcEEEEbxydSA_NS0_14adl_serializerENS6_IhNSA_IhEEEEvEENS1_22iterator_input_adapterINS4_11__wrap_iterIPKcEEEEE3getEv, symObjAddr: 0x10608, symBinAddr: 0x10001AF54, symSize: 0xF0 }
  - { offset: 0x670BE, size: 0x8, addend: 0x0, symName: __ZN8nlohmann16json_abi_v3_11_36detail5lexerINS0_10basic_jsonINSt3__13mapENS4_6vectorENS4_12basic_stringIcNS4_11char_traitsIcEENS4_9allocatorIcEEEEbxydSA_NS0_14adl_serializerENS6_IhNSA_IhEEEEvEENS1_22iterator_input_adapterINS4_11__wrap_iterIPKcEEEEE5ungetEv, symObjAddr: 0x106F8, symBinAddr: 0x10001B044, symSize: 0xFC }
  - { offset: 0x670E4, size: 0x8, addend: 0x0, symName: __ZN8nlohmann16json_abi_v3_11_36detail22iterator_input_adapterINSt3__111__wrap_iterIPKcEEE13get_characterEv, symObjAddr: 0x107F4, symBinAddr: 0x10001B140, symSize: 0x78 }
  - { offset: 0x67127, size: 0x8, addend: 0x0, symName: __ZNSt3__16vectorIcNS_9allocatorIcEEE9push_backB8ne180100EOc, symObjAddr: 0x1086C, symBinAddr: 0x10001B1B8, symSize: 0x90 }
  - { offset: 0x6716D, size: 0x8, addend: 0x0, symName: __ZNSt3__111char_traitsIcE12to_char_typeB8ne180100Ei, symObjAddr: 0x108FC, symBinAddr: 0x10001B248, symSize: 0x18 }
  - { offset: 0x67191, size: 0x8, addend: 0x0, symName: __ZNSt3__111char_traitsIcE11to_int_typeB8ne180100Ec, symObjAddr: 0x10914, symBinAddr: 0x10001B260, symSize: 0x14 }
  - { offset: 0x671B5, size: 0x8, addend: 0x0, symName: __ZNSt3__111__wrap_iterIPKcEpLB8ne180100El, symObjAddr: 0x109A8, symBinAddr: 0x10001B2F4, symSize: 0x28 }
  - { offset: 0x671E9, size: 0x8, addend: 0x0, symName: __ZNSt3__16vectorIcNS_9allocatorIcEEE9__end_capB8ne180100Ev, symObjAddr: 0x109D0, symBinAddr: 0x10001B31C, symSize: 0x28 }
  - { offset: 0x67215, size: 0x8, addend: 0x0, symName: __ZNSt3__16vectorIcNS_9allocatorIcEEE22__construct_one_at_endB8ne180100IJcEEEvDpOT_, symObjAddr: 0x109F8, symBinAddr: 0x10001B344, symSize: 0x90 }
  - { offset: 0x67264, size: 0x8, addend: 0x0, symName: __ZNSt3__16vectorIcNS_9allocatorIcEEE21__push_back_slow_pathIcEEPcOT_, symObjAddr: 0x10A88, symBinAddr: 0x10001B3D4, symSize: 0xE8 }
  - { offset: 0x672C2, size: 0x8, addend: 0x0, symName: __ZNSt3__117__compressed_pairIPcNS_9allocatorIcEEE5firstB8ne180100Ev, symObjAddr: 0x10B70, symBinAddr: 0x10001B4BC, symSize: 0x24 }
  - { offset: 0x672E8, size: 0x8, addend: 0x0, symName: __ZNSt3__122__compressed_pair_elemIPcLi0ELb0EE5__getB8ne180100Ev, symObjAddr: 0x10B94, symBinAddr: 0x10001B4E0, symSize: 0x14 }
  - { offset: 0x67329, size: 0x8, addend: 0x0, symName: __ZNSt3__16vectorIcNS_9allocatorIcEEE21_ConstructTransactionC1B8ne180100ERS3_m, symObjAddr: 0x10BA8, symBinAddr: 0x10001B4F4, symSize: 0x3C }
  - { offset: 0x67371, size: 0x8, addend: 0x0, symName: __ZNSt3__116allocator_traitsINS_9allocatorIcEEE9constructB8ne180100IcJcEvEEvRS2_PT_DpOT0_, symObjAddr: 0x10BE4, symBinAddr: 0x10001B530, symSize: 0x34 }
  - { offset: 0x673C8, size: 0x8, addend: 0x0, symName: __ZNSt3__16vectorIcNS_9allocatorIcEEE7__allocB8ne180100Ev, symObjAddr: 0x10C18, symBinAddr: 0x10001B564, symSize: 0x28 }
  - { offset: 0x673EE, size: 0x8, addend: 0x0, symName: __ZNSt3__16vectorIcNS_9allocatorIcEEE21_ConstructTransactionD1B8ne180100Ev, symObjAddr: 0x10C40, symBinAddr: 0x10001B58C, symSize: 0x2C }
  - { offset: 0x67418, size: 0x8, addend: 0x0, symName: __ZNSt3__16vectorIcNS_9allocatorIcEEE21_ConstructTransactionC2B8ne180100ERS3_m, symObjAddr: 0x10C6C, symBinAddr: 0x10001B5B8, symSize: 0x44 }
  - { offset: 0x67460, size: 0x8, addend: 0x0, symName: __ZNSt3__19allocatorIcE9constructB8ne180100IcJcEEEvPT_DpOT0_, symObjAddr: 0x10CB0, symBinAddr: 0x10001B5FC, symSize: 0x28 }
  - { offset: 0x674B6, size: 0x8, addend: 0x0, symName: __ZNSt3__117__compressed_pairIPcNS_9allocatorIcEEE6secondB8ne180100Ev, symObjAddr: 0x10CD8, symBinAddr: 0x10001B624, symSize: 0x24 }
  - { offset: 0x674DC, size: 0x8, addend: 0x0, symName: __ZNSt3__16vectorIcNS_9allocatorIcEEE21_ConstructTransactionD2B8ne180100Ev, symObjAddr: 0x10CFC, symBinAddr: 0x10001B648, symSize: 0x20 }
  - { offset: 0x67506, size: 0x8, addend: 0x0, symName: __ZNKSt3__16vectorIcNS_9allocatorIcEEE11__recommendB8ne180100Em, symObjAddr: 0x10D1C, symBinAddr: 0x10001B668, symSize: 0xB4 }
  - { offset: 0x6755B, size: 0x8, addend: 0x0, symName: __ZNKSt3__16vectorIcNS_9allocatorIcEEE4sizeB8ne180100Ev, symObjAddr: 0x10DD0, symBinAddr: 0x10001B71C, symSize: 0x20 }
  - { offset: 0x67581, size: 0x8, addend: 0x0, symName: __ZNSt3__114__split_bufferIcRNS_9allocatorIcEEEC1EmmS3_, symObjAddr: 0x10DF0, symBinAddr: 0x10001B73C, symSize: 0x44 }
  - { offset: 0x675D7, size: 0x8, addend: 0x0, symName: __ZNSt3__114__split_bufferIcRNS_9allocatorIcEEED1Ev, symObjAddr: 0x10F44, symBinAddr: 0x10001B890, symSize: 0x2C }
  - { offset: 0x67603, size: 0x8, addend: 0x0, symName: __ZNKSt3__16vectorIcNS_9allocatorIcEEE8max_sizeEv, symObjAddr: 0x10F70, symBinAddr: 0x10001B8BC, symSize: 0x60 }
  - { offset: 0x6762B, size: 0x8, addend: 0x0, symName: __ZNKSt3__16vectorIcNS_9allocatorIcEEE20__throw_length_errorB8ne180100Ev, symObjAddr: 0x10FD0, symBinAddr: 0x10001B91C, symSize: 0x1C }
  - { offset: 0x67651, size: 0x8, addend: 0x0, symName: __ZNKSt3__16vectorIcNS_9allocatorIcEEE8capacityB8ne180100Ev, symObjAddr: 0x10FEC, symBinAddr: 0x10001B938, symSize: 0x38 }
  - { offset: 0x67677, size: 0x8, addend: 0x0, symName: __ZNKSt3__16vectorIcNS_9allocatorIcEEE7__allocB8ne180100Ev, symObjAddr: 0x11024, symBinAddr: 0x10001B970, symSize: 0x28 }
  - { offset: 0x6769D, size: 0x8, addend: 0x0, symName: __ZNKSt3__117__compressed_pairIPcNS_9allocatorIcEEE6secondB8ne180100Ev, symObjAddr: 0x1104C, symBinAddr: 0x10001B998, symSize: 0x24 }
  - { offset: 0x676C3, size: 0x8, addend: 0x0, symName: __ZNKSt3__16vectorIcNS_9allocatorIcEEE9__end_capB8ne180100Ev, symObjAddr: 0x11070, symBinAddr: 0x10001B9BC, symSize: 0x28 }
  - { offset: 0x676E9, size: 0x8, addend: 0x0, symName: __ZNKSt3__117__compressed_pairIPcNS_9allocatorIcEEE5firstB8ne180100Ev, symObjAddr: 0x11098, symBinAddr: 0x10001B9E4, symSize: 0x24 }
  - { offset: 0x6770F, size: 0x8, addend: 0x0, symName: __ZNKSt3__122__compressed_pair_elemIPcLi0ELb0EE5__getB8ne180100Ev, symObjAddr: 0x110BC, symBinAddr: 0x10001BA08, symSize: 0x14 }
  - { offset: 0x67735, size: 0x8, addend: 0x0, symName: __ZNSt3__114__split_bufferIcRNS_9allocatorIcEEEC2EmmS3_, symObjAddr: 0x110D0, symBinAddr: 0x10001BA1C, symSize: 0xD4 }
  - { offset: 0x677A8, size: 0x8, addend: 0x0, symName: __ZNSt3__117__compressed_pairIPcRNS_9allocatorIcEEEC1B8ne180100IDnS4_EEOT_OT0_, symObjAddr: 0x111A4, symBinAddr: 0x10001BAF0, symSize: 0x3C }
  - { offset: 0x67800, size: 0x8, addend: 0x0, symName: __ZNSt3__114__split_bufferIcRNS_9allocatorIcEEE7__allocB8ne180100Ev, symObjAddr: 0x11220, symBinAddr: 0x10001BB6C, symSize: 0x28 }
  - { offset: 0x67826, size: 0x8, addend: 0x0, symName: __ZNSt3__114__split_bufferIcRNS_9allocatorIcEEE9__end_capB8ne180100Ev, symObjAddr: 0x11248, symBinAddr: 0x10001BB94, symSize: 0x28 }
  - { offset: 0x6784C, size: 0x8, addend: 0x0, symName: __ZNSt3__117__compressed_pairIPcRNS_9allocatorIcEEEC2B8ne180100IDnS4_EEOT_OT0_, symObjAddr: 0x11270, symBinAddr: 0x10001BBBC, symSize: 0x48 }
  - { offset: 0x678A4, size: 0x8, addend: 0x0, symName: __ZNSt3__122__compressed_pair_elemIRNS_9allocatorIcEELi1ELb0EEC2B8ne180100IS3_vEEOT_, symObjAddr: 0x112B8, symBinAddr: 0x10001BC04, symSize: 0x20 }
  - { offset: 0x678E6, size: 0x8, addend: 0x0, symName: __ZNSt3__117__compressed_pairIPcRNS_9allocatorIcEEE6secondB8ne180100Ev, symObjAddr: 0x112D8, symBinAddr: 0x10001BC24, symSize: 0x28 }
  - { offset: 0x6790C, size: 0x8, addend: 0x0, symName: __ZNSt3__122__compressed_pair_elemIRNS_9allocatorIcEELi1ELb0EE5__getB8ne180100Ev, symObjAddr: 0x11300, symBinAddr: 0x10001BC4C, symSize: 0x18 }
  - { offset: 0x67932, size: 0x8, addend: 0x0, symName: __ZNSt3__117__compressed_pairIPcRNS_9allocatorIcEEE5firstB8ne180100Ev, symObjAddr: 0x11318, symBinAddr: 0x10001BC64, symSize: 0x24 }
  - { offset: 0x67958, size: 0x8, addend: 0x0, symName: __ZNKSt3__16vectorIcNS_9allocatorIcEEE17__annotate_deleteB8ne180100Ev, symObjAddr: 0x1133C, symBinAddr: 0x10001BC88, symSize: 0x10 }
  - { offset: 0x6797E, size: 0x8, addend: 0x0, symName: __ZNSt3__116reverse_iteratorIPcEC1B8ne180100ES1_, symObjAddr: 0x113C4, symBinAddr: 0x10001BD10, symSize: 0x34 }
  - { offset: 0x679B6, size: 0x8, addend: 0x0, symName: __ZNKSt3__116reverse_iteratorIPcE4baseB8ne180100Ev, symObjAddr: 0x113F8, symBinAddr: 0x10001BD44, symSize: 0x18 }
  - { offset: 0x679DC, size: 0x8, addend: 0x0, symName: __ZNKSt3__16vectorIcNS_9allocatorIcEEE14__annotate_newB8ne180100Em, symObjAddr: 0x1144C, symBinAddr: 0x10001BD98, symSize: 0x14 }
  - { offset: 0x67A2D, size: 0x8, addend: 0x0, symName: __ZNKSt3__111__move_loopINS_17_ClassicAlgPolicyEEclB8ne180100INS_16reverse_iteratorIPcEES6_S6_EENS_4pairIT_T1_EES8_T0_S9_, symObjAddr: 0x11750, symBinAddr: 0x10001C09C, symSize: 0xA0 }
  - { offset: 0x67A9E, size: 0x8, addend: 0x0, symName: __ZNSt3__18_IterOpsINS_17_ClassicAlgPolicyEE11__iter_moveB8ne180100IRNS_16reverse_iteratorIPcEELi0EEEDTclsr3stdE4movedeclsr3stdE7declvalIRT_EEEEOS8_, symObjAddr: 0x11984, symBinAddr: 0x10001C2D0, symSize: 0x28 }
  - { offset: 0x67AD0, size: 0x8, addend: 0x0, symName: __ZNKSt3__116reverse_iteratorIPcEdeB8ne180100Ev, symObjAddr: 0x119AC, symBinAddr: 0x10001C2F8, symSize: 0x28 }
  - { offset: 0x67B05, size: 0x8, addend: 0x0, symName: __ZNSt3__116reverse_iteratorIPcEppB8ne180100Ev, symObjAddr: 0x119D4, symBinAddr: 0x10001C320, symSize: 0x20 }
  - { offset: 0x67B2B, size: 0x8, addend: 0x0, symName: __ZNSt3__18_IterOpsINS_17_ClassicAlgPolicyEE25__validate_iter_referenceB8ne180100IRNS_16reverse_iteratorIPcEEEEvv, symObjAddr: 0x119F4, symBinAddr: 0x10001C340, symSize: 0x4 }
  - { offset: 0x67B49, size: 0x8, addend: 0x0, symName: __ZNSt3__118__unwrap_iter_implINS_16reverse_iteratorIPcEELb0EE8__unwrapB8ne180100ES3_, symObjAddr: 0x119F8, symBinAddr: 0x10001C344, symSize: 0x24 }
  - { offset: 0x67B72, size: 0x8, addend: 0x0, symName: __ZNSt3__14pairINS_16reverse_iteratorIPcEES3_EC1B8ne180100IS3_S3_Li0EEEOT_OT0_, symObjAddr: 0x11A1C, symBinAddr: 0x10001C368, symSize: 0x3C }
  - { offset: 0x67BD0, size: 0x8, addend: 0x0, symName: __ZNSt3__14pairINS_16reverse_iteratorIPcEES3_EC2B8ne180100IS3_S3_Li0EEEOT_OT0_, symObjAddr: 0x11A58, symBinAddr: 0x10001C3A4, symSize: 0x34 }
  - { offset: 0x67C2E, size: 0x8, addend: 0x0, symName: __ZNSt3__118__unwrap_iter_implINS_16reverse_iteratorIPcEELb0EE8__rewrapB8ne180100ES3_S3_, symObjAddr: 0x11A8C, symBinAddr: 0x10001C3D8, symSize: 0x2C }
  - { offset: 0x67C5C, size: 0x8, addend: 0x0, symName: __ZNSt3__116reverse_iteratorIPcEC2B8ne180100ES1_, symObjAddr: 0x11AB8, symBinAddr: 0x10001C404, symSize: 0x28 }
  - { offset: 0x67C94, size: 0x8, addend: 0x0, symName: __ZNSt3__114__split_bufferIcRNS_9allocatorIcEEED2Ev, symObjAddr: 0x11AE0, symBinAddr: 0x10001C42C, symSize: 0x8C }
  - { offset: 0x67CC0, size: 0x8, addend: 0x0, symName: __ZNSt3__114__split_bufferIcRNS_9allocatorIcEEE5clearB8ne180100Ev, symObjAddr: 0x11B6C, symBinAddr: 0x10001C4B8, symSize: 0x28 }
  - { offset: 0x67CE6, size: 0x8, addend: 0x0, symName: __ZNSt3__116allocator_traitsINS_9allocatorIcEEE10deallocateB8ne180100ERS2_Pcm, symObjAddr: 0x11B94, symBinAddr: 0x10001C4E0, symSize: 0x34 }
  - { offset: 0x67D28, size: 0x8, addend: 0x0, symName: __ZNKSt3__114__split_bufferIcRNS_9allocatorIcEEE8capacityB8ne180100Ev, symObjAddr: 0x11BC8, symBinAddr: 0x10001C514, symSize: 0x38 }
  - { offset: 0x67D4E, size: 0x8, addend: 0x0, symName: __ZNSt3__114__split_bufferIcRNS_9allocatorIcEEE17__destruct_at_endB8ne180100EPc, symObjAddr: 0x11C00, symBinAddr: 0x10001C54C, symSize: 0x2C }
  - { offset: 0x67D82, size: 0x8, addend: 0x0, symName: __ZNSt3__114__split_bufferIcRNS_9allocatorIcEEE17__destruct_at_endB8ne180100EPcNS_17integral_constantIbLb0EEE, symObjAddr: 0x11C2C, symBinAddr: 0x10001C578, symSize: 0x80 }
  - { offset: 0x67DC3, size: 0x8, addend: 0x0, symName: __ZNSt3__116allocator_traitsINS_9allocatorIcEEE7destroyB8ne180100IcvEEvRS2_PT_, symObjAddr: 0x11CAC, symBinAddr: 0x10001C5F8, symSize: 0x2C }
  - { offset: 0x67E00, size: 0x8, addend: 0x0, symName: __ZNSt3__19allocatorIcE7destroyB8ne180100EPc, symObjAddr: 0x11CD8, symBinAddr: 0x10001C624, symSize: 0x14 }
  - { offset: 0x67E34, size: 0x8, addend: 0x0, symName: __ZNSt3__19allocatorIcE10deallocateB8ne180100EPcm, symObjAddr: 0x11CEC, symBinAddr: 0x10001C638, symSize: 0x40 }
  - { offset: 0x67E76, size: 0x8, addend: 0x0, symName: __ZNKSt3__114__split_bufferIcRNS_9allocatorIcEEE9__end_capB8ne180100Ev, symObjAddr: 0x11D2C, symBinAddr: 0x10001C678, symSize: 0x28 }
  - { offset: 0x67E9C, size: 0x8, addend: 0x0, symName: __ZNKSt3__117__compressed_pairIPcRNS_9allocatorIcEEE5firstB8ne180100Ev, symObjAddr: 0x11D54, symBinAddr: 0x10001C6A0, symSize: 0x24 }
  - { offset: 0x67EC2, size: 0x8, addend: 0x0, symName: __ZNKSt3__16vectorIcNS_9allocatorIcEEE5emptyB8ne180100Ev, symObjAddr: 0x11D78, symBinAddr: 0x10001C6C4, symSize: 0x28 }
  - { offset: 0x67EE8, size: 0x8, addend: 0x0, symName: __ZNSt3__16vectorIcNS_9allocatorIcEEE8pop_backEv, symObjAddr: 0x11DA0, symBinAddr: 0x10001C6EC, symSize: 0x2C }
  - { offset: 0x67F10, size: 0x8, addend: 0x0, symName: __ZNSt3__16vectorIcNS_9allocatorIcEEE17__destruct_at_endB8ne180100EPc, symObjAddr: 0x11DCC, symBinAddr: 0x10001C718, symSize: 0x4C }
  - { offset: 0x67F54, size: 0x8, addend: 0x0, symName: __ZNSt3__16vectorIcNS_9allocatorIcEEE22__base_destruct_at_endB8ne180100EPc, symObjAddr: 0x11E18, symBinAddr: 0x10001C764, symSize: 0x8C }
  - { offset: 0x67F98, size: 0x8, addend: 0x0, symName: __ZNKSt3__16vectorIcNS_9allocatorIcEEE17__annotate_shrinkB8ne180100Em, symObjAddr: 0x11EA4, symBinAddr: 0x10001C7F0, symSize: 0x14 }
  - { offset: 0x67FCD, size: 0x8, addend: 0x0, symName: __ZN8nlohmann16json_abi_v3_11_36detail5lexerINS0_10basic_jsonINSt3__13mapENS4_6vectorENS4_12basic_stringIcNS4_11char_traitsIcEENS4_9allocatorIcEEEEbxydSA_NS0_14adl_serializerENS6_IhNSA_IhEEEEvEENS1_22iterator_input_adapterINS4_11__wrap_iterIPKcEEEEE5resetEv, symObjAddr: 0x11EB8, symBinAddr: 0x10001C804, symSize: 0x60 }
  - { offset: 0x67FF3, size: 0x8, addend: 0x0, symName: __ZN8nlohmann16json_abi_v3_11_36detail5lexerINS0_10basic_jsonINSt3__13mapENS4_6vectorENS4_12basic_stringIcNS4_11char_traitsIcEENS4_9allocatorIcEEEEbxydSA_NS0_14adl_serializerENS6_IhNSA_IhEEEEvEENS1_22iterator_input_adapterINS4_11__wrap_iterIPKcEEEEE3addEi, symObjAddr: 0x11F18, symBinAddr: 0x10001C864, symSize: 0x34 }
  - { offset: 0x68028, size: 0x8, addend: 0x0, symName: __ZN8nlohmann16json_abi_v3_11_36detail5lexerINS0_10basic_jsonINSt3__13mapENS4_6vectorENS4_12basic_stringIcNS4_11char_traitsIcEENS4_9allocatorIcEEEEbxydSA_NS0_14adl_serializerENS6_IhNSA_IhEEEEvEENS1_22iterator_input_adapterINS4_11__wrap_iterIPKcEEEEE13get_codepointEv, symObjAddr: 0x11F4C, symBinAddr: 0x10001C898, symSize: 0x2B0 }
  - { offset: 0x680BE, size: 0x8, addend: 0x0, symName: __ZN8nlohmann16json_abi_v3_11_36detail5lexerINS0_10basic_jsonINSt3__13mapENS4_6vectorENS4_12basic_stringIcNS4_11char_traitsIcEENS4_9allocatorIcEEEEbxydSA_NS0_14adl_serializerENS6_IhNSA_IhEEEEvEENS1_22iterator_input_adapterINS4_11__wrap_iterIPKcEEEEE18next_byte_in_rangeESt16initializer_listIiE, symObjAddr: 0x121FC, symBinAddr: 0x10001CB48, symSize: 0x1C0 }
  - { offset: 0x6810F, size: 0x8, addend: 0x0, symName: __ZNSt3__112basic_stringIcNS_11char_traitsIcEENS_9allocatorIcEEE5clearB8ne180100Ev, symObjAddr: 0x123BC, symBinAddr: 0x10001CD08, symSize: 0x94 }
  - { offset: 0x68146, size: 0x8, addend: 0x0, symName: __ZNSt3__16vectorIcNS_9allocatorIcEEE5clearB8ne180100Ev, symObjAddr: 0x12450, symBinAddr: 0x10001CD9C, symSize: 0x44 }
  - { offset: 0x6817B, size: 0x8, addend: 0x0, symName: __ZNSt3__111char_traitsIcE6assignB8ne180100ERcRKc, symObjAddr: 0x12494, symBinAddr: 0x10001CDE0, symSize: 0x24 }
  - { offset: 0x681AC, size: 0x8, addend: 0x0, symName: __ZNKSt3__112basic_stringIcNS_11char_traitsIcEENS_9allocatorIcEEE17__annotate_shrinkB8ne180100Em, symObjAddr: 0x124B8, symBinAddr: 0x10001CE04, symSize: 0x14 }
  - { offset: 0x681E1, size: 0x8, addend: 0x0, symName: __ZNSt3__16vectorIcNS_9allocatorIcEEE7__clearB8ne180100Ev, symObjAddr: 0x124CC, symBinAddr: 0x10001CE18, symSize: 0x28 }
  - { offset: 0x6821B, size: 0x8, addend: 0x0, symName: __ZNKSt16initializer_listIjE5beginB8ne180100Ev, symObjAddr: 0x124F4, symBinAddr: 0x10001CE40, symSize: 0x18 }
  - { offset: 0x68241, size: 0x8, addend: 0x0, symName: __ZNKSt16initializer_listIjE3endB8ne180100Ev, symObjAddr: 0x1250C, symBinAddr: 0x10001CE58, symSize: 0x20 }
  - { offset: 0x68267, size: 0x8, addend: 0x0, symName: __ZNKSt16initializer_listIiE4sizeB8ne180100Ev, symObjAddr: 0x1252C, symBinAddr: 0x10001CE78, symSize: 0x18 }
  - { offset: 0x6828D, size: 0x8, addend: 0x0, symName: __ZNKSt16initializer_listIiE5beginB8ne180100Ev, symObjAddr: 0x12544, symBinAddr: 0x10001CE90, symSize: 0x18 }
  - { offset: 0x682B3, size: 0x8, addend: 0x0, symName: __ZNKSt16initializer_listIiE3endB8ne180100Ev, symObjAddr: 0x1255C, symBinAddr: 0x10001CEA8, symSize: 0x20 }
  - { offset: 0x682D9, size: 0x8, addend: 0x0, symName: __ZN8nlohmann16json_abi_v3_11_36detail5lexerINS0_10basic_jsonINSt3__13mapENS4_6vectorENS4_12basic_stringIcNS4_11char_traitsIcEENS4_9allocatorIcEEEEbxydSA_NS0_14adl_serializerENS6_IhNSA_IhEEEEvEENS1_22iterator_input_adapterINS4_11__wrap_iterIPKcEEEEE6strtofERdSK_PPc, symObjAddr: 0x1257C, symBinAddr: 0x10001CEC8, symSize: 0x48 }
  - { offset: 0x6831B, size: 0x8, addend: 0x0, symName: __ZN8nlohmann16json_abi_v3_11_36detail5lexerINS0_10basic_jsonINSt3__13mapENS4_6vectorENS4_12basic_stringIcNS4_11char_traitsIcEENS4_9allocatorIcEEEEbxydSA_NS0_14adl_serializerENS6_IhNSA_IhEEEEvEENS1_22iterator_input_adapterINS4_11__wrap_iterIPKcEEEEED2Ev, symObjAddr: 0x125C4, symBinAddr: 0x10001CF10, symSize: 0x3C }
  - { offset: 0x68345, size: 0x8, addend: 0x0, symName: __ZNSt3__16vectorIcNS_9allocatorIcEEED1B8ne180100Ev, symObjAddr: 0x12600, symBinAddr: 0x10001CF4C, symSize: 0x2C }
  - { offset: 0x6836F, size: 0x8, addend: 0x0, symName: __ZNSt3__16vectorIcNS_9allocatorIcEEED2B8ne180100Ev, symObjAddr: 0x1262C, symBinAddr: 0x10001CF78, symSize: 0x44 }
  - { offset: 0x68399, size: 0x8, addend: 0x0, symName: __ZNSt3__16vectorIcNS_9allocatorIcEEE16__destroy_vectorC1B8ne180100ERS3_, symObjAddr: 0x12670, symBinAddr: 0x10001CFBC, symSize: 0x34 }
  - { offset: 0x683D2, size: 0x8, addend: 0x0, symName: __ZNSt3__16vectorIcNS_9allocatorIcEEE16__destroy_vectorclB8ne180100Ev, symObjAddr: 0x126A4, symBinAddr: 0x10001CFF0, symSize: 0x90 }
  - { offset: 0x683F8, size: 0x8, addend: 0x0, symName: __ZNSt3__16vectorIcNS_9allocatorIcEEE16__destroy_vectorC2B8ne180100ERS3_, symObjAddr: 0x12734, symBinAddr: 0x10001D080, symSize: 0x20 }
  - { offset: 0x68431, size: 0x8, addend: 0x0, symName: __ZN8nlohmann16json_abi_v3_11_36detail36container_input_adapter_factory_impl31container_input_adapter_factoryINSt3__112basic_stringIcNS4_11char_traitsIcEENS4_9allocatorIcEEEEvE6createERKSA_, symObjAddr: 0x12754, symBinAddr: 0x10001D0A0, symSize: 0x50 }
  - { offset: 0x68455, size: 0x8, addend: 0x0, symName: __ZN8nlohmann16json_abi_v3_11_36detail30iterator_input_adapter_factoryINSt3__111__wrap_iterIPKcEEvE6createES7_S7_, symObjAddr: 0x12848, symBinAddr: 0x10001D194, symSize: 0x48 }
  - { offset: 0x68488, size: 0x8, addend: 0x0, symName: __ZN8nlohmann16json_abi_v3_11_36detail22iterator_input_adapterINSt3__111__wrap_iterIPKcEEEC1ES7_S7_, symObjAddr: 0x12890, symBinAddr: 0x10001D1DC, symSize: 0x3C }
  - { offset: 0x684CE, size: 0x8, addend: 0x0, symName: __ZN8nlohmann16json_abi_v3_11_36detail22iterator_input_adapterINSt3__111__wrap_iterIPKcEEEC2ES7_S7_, symObjAddr: 0x128CC, symBinAddr: 0x10001D218, symSize: 0x2C }
  - { offset: 0x68514, size: 0x8, addend: 0x0, symName: __ZNSt3__18functionIFbiN8nlohmann16json_abi_v3_11_36detail13parse_event_tERNS2_10basic_jsonINS_3mapENS_6vectorENS_12basic_stringIcNS_11char_traitsIcEENS_9allocatorIcEEEEbxydSB_NS2_14adl_serializerENS7_IhNSB_IhEEEEvEEEEC2ERKSK_, symObjAddr: 0x128F8, symBinAddr: 0x10001D244, symSize: 0x34 }
  - { offset: 0x6854F, size: 0x8, addend: 0x0, symName: __ZNSt3__110__function12__value_funcIFbiN8nlohmann16json_abi_v3_11_36detail13parse_event_tERNS3_10basic_jsonINS_3mapENS_6vectorENS_12basic_stringIcNS_11char_traitsIcEENS_9allocatorIcEEEEbxydSC_NS3_14adl_serializerENS8_IhNSC_IhEEEEvEEEEC1B8ne180100ERKSL_, symObjAddr: 0x1292C, symBinAddr: 0x10001D278, symSize: 0x34 }
  - { offset: 0x68588, size: 0x8, addend: 0x0, symName: __ZNSt3__110__function12__value_funcIFbiN8nlohmann16json_abi_v3_11_36detail13parse_event_tERNS3_10basic_jsonINS_3mapENS_6vectorENS_12basic_stringIcNS_11char_traitsIcEENS_9allocatorIcEEEEbxydSC_NS3_14adl_serializerENS8_IhNSC_IhEEEEvEEEEC2B8ne180100ERKSL_, symObjAddr: 0x12960, symBinAddr: 0x10001D2AC, symSize: 0xC0 }
  - { offset: 0x685C1, size: 0x8, addend: 0x0, symName: __ZNKSt3__18functionIFbiN8nlohmann16json_abi_v3_11_36detail13parse_event_tERNS2_10basic_jsonINS_3mapENS_6vectorENS_12basic_stringIcNS_11char_traitsIcEENS_9allocatorIcEEEEbxydSB_NS2_14adl_serializerENS7_IhNSB_IhEEEEvEEEEcvbB8ne180100Ev, symObjAddr: 0x12A20, symBinAddr: 0x10001D36C, symSize: 0x28 }
  - { offset: 0x68624, size: 0x8, addend: 0x0, symName: __ZN8nlohmann16json_abi_v3_11_36detail28json_sax_dom_callback_parserINS0_10basic_jsonINSt3__13mapENS4_6vectorENS4_12basic_stringIcNS4_11char_traitsIcEENS4_9allocatorIcEEEEbxydSA_NS0_14adl_serializerENS6_IhNSA_IhEEEEvEEEC1ERSG_NS4_8functionIFbiNS1_13parse_event_tESI_EEEb, symObjAddr: 0x12A48, symBinAddr: 0x10001D394, symSize: 0x50 }
  - { offset: 0x68681, size: 0x8, addend: 0x0, symName: __ZN8nlohmann16json_abi_v3_11_36detail6parserINS0_10basic_jsonINSt3__13mapENS4_6vectorENS4_12basic_stringIcNS4_11char_traitsIcEENS4_9allocatorIcEEEEbxydSA_NS0_14adl_serializerENS6_IhNSA_IhEEEEvEENS1_22iterator_input_adapterINS4_11__wrap_iterIPKcEEEEE18sax_parse_internalINS1_28json_sax_dom_callback_parserISG_EEEEbPT_, symObjAddr: 0x12A98, symBinAddr: 0x10001D3E4, symSize: 0x16F4 }
  - { offset: 0x68711, size: 0x8, addend: 0x0, symName: __ZN8nlohmann16json_abi_v3_11_36detail28json_sax_dom_callback_parserINS0_10basic_jsonINSt3__13mapENS4_6vectorENS4_12basic_stringIcNS4_11char_traitsIcEENS4_9allocatorIcEEEEbxydSA_NS0_14adl_serializerENS6_IhNSA_IhEEEEvEEE11parse_errorINS1_11parse_errorEEEbmRKSC_RKT_, symObjAddr: 0x141D0, symBinAddr: 0x10001EB1C, symSize: 0x74 }
  - { offset: 0x68767, size: 0x8, addend: 0x0, symName: __ZNK8nlohmann16json_abi_v3_11_36detail5lexerINS0_10basic_jsonINSt3__13mapENS4_6vectorENS4_12basic_stringIcNS4_11char_traitsIcEENS4_9allocatorIcEEEEbxydSA_NS0_14adl_serializerENS6_IhNSA_IhEEEEvEENS1_22iterator_input_adapterINS4_11__wrap_iterIPKcEEEEE12get_positionEv, symObjAddr: 0x14244, symBinAddr: 0x10001EB90, symSize: 0x28 }
  - { offset: 0x6878D, size: 0x8, addend: 0x0, symName: __ZNK8nlohmann16json_abi_v3_11_36detail10position_tcvmEv, symObjAddr: 0x1426C, symBinAddr: 0x10001EBB8, symSize: 0x18 }
  - { offset: 0x687B3, size: 0x8, addend: 0x0, symName: __ZNK8nlohmann16json_abi_v3_11_36detail5lexerINS0_10basic_jsonINSt3__13mapENS4_6vectorENS4_12basic_stringIcNS4_11char_traitsIcEENS4_9allocatorIcEEEEbxydSA_NS0_14adl_serializerENS6_IhNSA_IhEEEEvEENS1_22iterator_input_adapterINS4_11__wrap_iterIPKcEEEEE16get_token_stringEv, symObjAddr: 0x14284, symBinAddr: 0x10001EBD0, symSize: 0x1B8 }
  - { offset: 0x6884C, size: 0x8, addend: 0x0, symName: __ZN8nlohmann16json_abi_v3_11_36detail11parse_error6createIDnLi0EEES2_iRKNS1_10position_tERKNSt3__112basic_stringIcNS7_11char_traitsIcEENS7_9allocatorIcEEEET_, symObjAddr: 0x1443C, symBinAddr: 0x10001ED88, symSize: 0x18C }
  - { offset: 0x688B7, size: 0x8, addend: 0x0, symName: __ZN8nlohmann16json_abi_v3_11_36detail6parserINS0_10basic_jsonINSt3__13mapENS4_6vectorENS4_12basic_stringIcNS4_11char_traitsIcEENS4_9allocatorIcEEEEbxydSA_NS0_14adl_serializerENS6_IhNSA_IhEEEEvEENS1_22iterator_input_adapterINS4_11__wrap_iterIPKcEEEEE17exception_messageENS1_10lexer_baseISG_E10token_typeERKSC_, symObjAddr: 0x145C8, symBinAddr: 0x10001EF14, symSize: 0x2B0 }
  - { offset: 0x6890B, size: 0x8, addend: 0x0, symName: __ZN8nlohmann16json_abi_v3_11_36detail11parse_errorD1Ev, symObjAddr: 0x14878, symBinAddr: 0x10001F1C4, symSize: 0x2C }
  - { offset: 0x68937, size: 0x8, addend: 0x0, symName: __ZNK8nlohmann16json_abi_v3_11_36detail28json_sax_dom_callback_parserINS0_10basic_jsonINSt3__13mapENS4_6vectorENS4_12basic_stringIcNS4_11char_traitsIcEENS4_9allocatorIcEEEEbxydSA_NS0_14adl_serializerENS6_IhNSA_IhEEEEvEEE10is_erroredEv, symObjAddr: 0x148A4, symBinAddr: 0x10001F1F0, symSize: 0x1C }
  - { offset: 0x6895D, size: 0x8, addend: 0x0, symName: __ZNK8nlohmann16json_abi_v3_11_310basic_jsonINSt3__13mapENS2_6vectorENS2_12basic_stringIcNS2_11char_traitsIcEENS2_9allocatorIcEEEEbxydS8_NS0_14adl_serializerENS4_IhNS8_IhEEEEvE12is_discardedEv, symObjAddr: 0x148C0, symBinAddr: 0x10001F20C, symSize: 0x24 }
  - { offset: 0x68983, size: 0x8, addend: 0x0, symName: __ZN8nlohmann16json_abi_v3_11_36detail28json_sax_dom_callback_parserINS0_10basic_jsonINSt3__13mapENS4_6vectorENS4_12basic_stringIcNS4_11char_traitsIcEENS4_9allocatorIcEEEEbxydSA_NS0_14adl_serializerENS6_IhNSA_IhEEEEvEEED1Ev, symObjAddr: 0x148E4, symBinAddr: 0x10001F230, symSize: 0x2C }
  - { offset: 0x689E5, size: 0x8, addend: 0x0, symName: __ZN8nlohmann16json_abi_v3_11_36detail19json_sax_dom_parserINS0_10basic_jsonINSt3__13mapENS4_6vectorENS4_12basic_stringIcNS4_11char_traitsIcEENS4_9allocatorIcEEEEbxydSA_NS0_14adl_serializerENS6_IhNSA_IhEEEEvEEEC1ERSG_b, symObjAddr: 0x14910, symBinAddr: 0x10001F25C, symSize: 0x48 }
  - { offset: 0x68A30, size: 0x8, addend: 0x0, symName: __ZN8nlohmann16json_abi_v3_11_36detail6parserINS0_10basic_jsonINSt3__13mapENS4_6vectorENS4_12basic_stringIcNS4_11char_traitsIcEENS4_9allocatorIcEEEEbxydSA_NS0_14adl_serializerENS6_IhNSA_IhEEEEvEENS1_22iterator_input_adapterINS4_11__wrap_iterIPKcEEEEE18sax_parse_internalINS1_19json_sax_dom_parserISG_EEEEbPT_, symObjAddr: 0x14958, symBinAddr: 0x10001F2A4, symSize: 0x16A0 }
  - { offset: 0x68AAA, size: 0x8, addend: 0x0, symName: __ZN8nlohmann16json_abi_v3_11_36detail19json_sax_dom_parserINS0_10basic_jsonINSt3__13mapENS4_6vectorENS4_12basic_stringIcNS4_11char_traitsIcEENS4_9allocatorIcEEEEbxydSA_NS0_14adl_serializerENS6_IhNSA_IhEEEEvEEE11parse_errorINS1_11parse_errorEEEbmRKSC_RKT_, symObjAddr: 0x1603C, symBinAddr: 0x100020988, symSize: 0x74 }
  - { offset: 0x68B00, size: 0x8, addend: 0x0, symName: __ZNK8nlohmann16json_abi_v3_11_36detail19json_sax_dom_parserINS0_10basic_jsonINSt3__13mapENS4_6vectorENS4_12basic_stringIcNS4_11char_traitsIcEENS4_9allocatorIcEEEEbxydSA_NS0_14adl_serializerENS6_IhNSA_IhEEEEvEEE10is_erroredEv, symObjAddr: 0x160B0, symBinAddr: 0x1000209FC, symSize: 0x1C }
  - { offset: 0x68B26, size: 0x8, addend: 0x0, symName: __ZN8nlohmann16json_abi_v3_11_36detail19json_sax_dom_parserINS0_10basic_jsonINSt3__13mapENS4_6vectorENS4_12basic_stringIcNS4_11char_traitsIcEENS4_9allocatorIcEEEEbxydSA_NS0_14adl_serializerENS6_IhNSA_IhEEEEvEEED1Ev, symObjAddr: 0x160CC, symBinAddr: 0x100020A18, symSize: 0x2C }
  - { offset: 0x68B50, size: 0x8, addend: 0x0, symName: __ZNKSt3__110__function12__value_funcIFbiN8nlohmann16json_abi_v3_11_36detail13parse_event_tERNS3_10basic_jsonINS_3mapENS_6vectorENS_12basic_stringIcNS_11char_traitsIcEENS_9allocatorIcEEEEbxydSC_NS3_14adl_serializerENS8_IhNSC_IhEEEEvEEEEcvbB8ne180100Ev, symObjAddr: 0x160F8, symBinAddr: 0x100020A44, symSize: 0x24 }
  - { offset: 0x68B76, size: 0x8, addend: 0x0, symName: __ZN8nlohmann16json_abi_v3_11_36detail28json_sax_dom_callback_parserINS0_10basic_jsonINSt3__13mapENS4_6vectorENS4_12basic_stringIcNS4_11char_traitsIcEENS4_9allocatorIcEEEEbxydSA_NS0_14adl_serializerENS6_IhNSA_IhEEEEvEEEC2ERSG_NS4_8functionIFbiNS1_13parse_event_tESI_EEEb, symObjAddr: 0x1611C, symBinAddr: 0x100020A68, symSize: 0x13C }
  - { offset: 0x68BCE, size: 0x8, addend: 0x0, symName: __ZNSt3__16vectorIPN8nlohmann16json_abi_v3_11_310basic_jsonINS_3mapES0_NS_12basic_stringIcNS_11char_traitsIcEENS_9allocatorIcEEEEbxydS8_NS2_14adl_serializerENS0_IhNS8_IhEEEEvEENS8_ISF_EEEC1B8ne180100Ev, symObjAddr: 0x16258, symBinAddr: 0x100020BA4, symSize: 0x2C }
  - { offset: 0x68BF8, size: 0x8, addend: 0x0, symName: __ZNSt3__16vectorIbNS_9allocatorIbEEEC1B8ne180100Ev, symObjAddr: 0x16284, symBinAddr: 0x100020BD0, symSize: 0x2C }
  - { offset: 0x68C24, size: 0x8, addend: 0x0, symName: __ZNSt3__16vectorIbNS_9allocatorIbEEE9push_backERKb, symObjAddr: 0x162B0, symBinAddr: 0x100020BFC, symSize: 0xA4 }
  - { offset: 0x68C5B, size: 0x8, addend: 0x0, symName: __ZNSt3__16vectorIbNS_9allocatorIbEEED1B8ne180100Ev, symObjAddr: 0x16354, symBinAddr: 0x100020CA0, symSize: 0x2C }
  - { offset: 0x68C85, size: 0x8, addend: 0x0, symName: __ZNSt3__16vectorIPN8nlohmann16json_abi_v3_11_310basic_jsonINS_3mapES0_NS_12basic_stringIcNS_11char_traitsIcEENS_9allocatorIcEEEEbxydS8_NS2_14adl_serializerENS0_IhNS8_IhEEEEvEENS8_ISF_EEED1B8ne180100Ev, symObjAddr: 0x16380, symBinAddr: 0x100020CCC, symSize: 0x2C }
  - { offset: 0x68CAF, size: 0x8, addend: 0x0, symName: __ZNSt3__16vectorIPN8nlohmann16json_abi_v3_11_310basic_jsonINS_3mapES0_NS_12basic_stringIcNS_11char_traitsIcEENS_9allocatorIcEEEEbxydS8_NS2_14adl_serializerENS0_IhNS8_IhEEEEvEENS8_ISF_EEEC2B8ne180100Ev, symObjAddr: 0x163AC, symBinAddr: 0x100020CF8, symSize: 0x4C }
  - { offset: 0x68CD9, size: 0x8, addend: 0x0, symName: __ZNSt3__117__compressed_pairIPPN8nlohmann16json_abi_v3_11_310basic_jsonINS_3mapENS_6vectorENS_12basic_stringIcNS_11char_traitsIcEENS_9allocatorIcEEEEbxydS9_NS2_14adl_serializerENS5_IhNS9_IhEEEEvEENS9_ISG_EEEC1B8ne180100IDnNS_18__default_init_tagEEEOT_OT0_, symObjAddr: 0x163F8, symBinAddr: 0x100020D44, symSize: 0x3C }
  - { offset: 0x68D31, size: 0x8, addend: 0x0, symName: __ZNSt3__117__compressed_pairIPPN8nlohmann16json_abi_v3_11_310basic_jsonINS_3mapENS_6vectorENS_12basic_stringIcNS_11char_traitsIcEENS_9allocatorIcEEEEbxydS9_NS2_14adl_serializerENS5_IhNS9_IhEEEEvEENS9_ISG_EEEC2B8ne180100IDnNS_18__default_init_tagEEEOT_OT0_, symObjAddr: 0x16434, symBinAddr: 0x100020D80, symSize: 0x40 }
  - { offset: 0x68D89, size: 0x8, addend: 0x0, symName: __ZNSt3__122__compressed_pair_elemIPPN8nlohmann16json_abi_v3_11_310basic_jsonINS_3mapENS_6vectorENS_12basic_stringIcNS_11char_traitsIcEENS_9allocatorIcEEEEbxydS9_NS2_14adl_serializerENS5_IhNS9_IhEEEEvEELi0ELb0EEC2B8ne180100IDnvEEOT_, symObjAddr: 0x16474, symBinAddr: 0x100020DC0, symSize: 0x1C }
  - { offset: 0x68DCB, size: 0x8, addend: 0x0, symName: __ZNSt3__122__compressed_pair_elemINS_9allocatorIPN8nlohmann16json_abi_v3_11_310basic_jsonINS_3mapENS_6vectorENS_12basic_stringIcNS_11char_traitsIcEENS1_IcEEEEbxydS1_NS3_14adl_serializerENS6_IhNS1_IhEEEEvEEEELi1ELb1EEC2B8ne180100ENS_18__default_init_tagE, symObjAddr: 0x16490, symBinAddr: 0x100020DDC, symSize: 0x2C }
  - { offset: 0x68E00, size: 0x8, addend: 0x0, symName: __ZNSt3__19allocatorIPN8nlohmann16json_abi_v3_11_310basic_jsonINS_3mapENS_6vectorENS_12basic_stringIcNS_11char_traitsIcEENS0_IcEEEEbxydS0_NS2_14adl_serializerENS5_IhNS0_IhEEEEvEEEC2B8ne180100Ev, symObjAddr: 0x164BC, symBinAddr: 0x100020E08, symSize: 0x2C }
  - { offset: 0x68E2A, size: 0x8, addend: 0x0, symName: __ZNSt3__116__non_trivial_ifILb1ENS_9allocatorIPN8nlohmann16json_abi_v3_11_310basic_jsonINS_3mapENS_6vectorENS_12basic_stringIcNS_11char_traitsIcEENS1_IcEEEEbxydS1_NS3_14adl_serializerENS6_IhNS1_IhEEEEvEEEEEC2B8ne180100Ev, symObjAddr: 0x164E8, symBinAddr: 0x100020E34, symSize: 0x14 }
  - { offset: 0x68E54, size: 0x8, addend: 0x0, symName: __ZNSt3__16vectorIbNS_9allocatorIbEEEC2B8ne180100Ev, symObjAddr: 0x164FC, symBinAddr: 0x100020E48, symSize: 0x4C }
  - { offset: 0x68E80, size: 0x8, addend: 0x0, symName: __ZNSt3__117__compressed_pairImNS_9allocatorImEEEC1B8ne180100IiNS_18__default_init_tagEEEOT_OT0_, symObjAddr: 0x16548, symBinAddr: 0x100020E94, symSize: 0x3C }
  - { offset: 0x68ED8, size: 0x8, addend: 0x0, symName: __ZNSt3__117__compressed_pairImNS_9allocatorImEEEC2B8ne180100IiNS_18__default_init_tagEEEOT_OT0_, symObjAddr: 0x16584, symBinAddr: 0x100020ED0, symSize: 0x40 }
  - { offset: 0x68F30, size: 0x8, addend: 0x0, symName: __ZNSt3__122__compressed_pair_elemINS_9allocatorImEELi1ELb1EEC2B8ne180100ENS_18__default_init_tagE, symObjAddr: 0x165C4, symBinAddr: 0x100020F10, symSize: 0x2C }
  - { offset: 0x68F65, size: 0x8, addend: 0x0, symName: __ZNSt3__19allocatorImEC2B8ne180100Ev, symObjAddr: 0x165F0, symBinAddr: 0x100020F3C, symSize: 0x2C }
  - { offset: 0x68F8F, size: 0x8, addend: 0x0, symName: __ZNSt3__116__non_trivial_ifILb1ENS_9allocatorImEEEC2B8ne180100Ev, symObjAddr: 0x1661C, symBinAddr: 0x100020F68, symSize: 0x14 }
  - { offset: 0x68FB9, size: 0x8, addend: 0x0, symName: __ZNKSt3__16vectorIbNS_9allocatorIbEEE8capacityB8ne180100Ev, symObjAddr: 0x16630, symBinAddr: 0x100020F7C, symSize: 0x2C }
  - { offset: 0x68FDF, size: 0x8, addend: 0x0, symName: __ZNSt3__16vectorIbNS_9allocatorIbEEE7reserveEm, symObjAddr: 0x1665C, symBinAddr: 0x100020FA8, symSize: 0x118 }
  - { offset: 0x6902C, size: 0x8, addend: 0x0, symName: __ZNKSt3__16vectorIbNS_9allocatorIbEEE11__recommendB8ne180100Em, symObjAddr: 0x16774, symBinAddr: 0x1000210C0, symSize: 0xCC }
  - { offset: 0x69081, size: 0x8, addend: 0x0, symName: __ZNSt3__16vectorIbNS_9allocatorIbEEE4backB8ne180100Ev, symObjAddr: 0x16840, symBinAddr: 0x10002118C, symSize: 0x3C }
  - { offset: 0x690A7, size: 0x8, addend: 0x0, symName: __ZNSt3__115__bit_referenceINS_6vectorIbNS_9allocatorIbEEEELb1EEaSB8ne180100Eb, symObjAddr: 0x1687C, symBinAddr: 0x1000211C8, symSize: 0x6C }
  - { offset: 0x690DB, size: 0x8, addend: 0x0, symName: __ZNSt3__16vectorIbNS_9allocatorIbEEE26__internal_cap_to_externalB8ne180100Em, symObjAddr: 0x168E8, symBinAddr: 0x100021234, symSize: 0x18 }
  - { offset: 0x690FF, size: 0x8, addend: 0x0, symName: __ZNKSt3__16vectorIbNS_9allocatorIbEEE5__capB8ne180100Ev, symObjAddr: 0x16900, symBinAddr: 0x10002124C, symSize: 0x28 }
  - { offset: 0x69125, size: 0x8, addend: 0x0, symName: __ZNKSt3__117__compressed_pairImNS_9allocatorImEEE5firstB8ne180100Ev, symObjAddr: 0x16928, symBinAddr: 0x100021274, symSize: 0x24 }
  - { offset: 0x6914B, size: 0x8, addend: 0x0, symName: __ZNKSt3__16vectorIbNS_9allocatorIbEEE8max_sizeEv, symObjAddr: 0x1694C, symBinAddr: 0x100021298, symSize: 0x7C }
  - { offset: 0x69191, size: 0x8, addend: 0x0, symName: __ZNKSt3__16vectorIbNS_9allocatorIbEEE20__throw_length_errorB8ne180100Ev, symObjAddr: 0x169C8, symBinAddr: 0x100021314, symSize: 0x1C }
  - { offset: 0x691B7, size: 0x8, addend: 0x0, symName: __ZNKSt3__16vectorIbNS_9allocatorIbEEE13get_allocatorB8ne180100Ev, symObjAddr: 0x169E4, symBinAddr: 0x100021330, symSize: 0x30 }
  - { offset: 0x691DD, size: 0x8, addend: 0x0, symName: __ZNSt3__16vectorIbNS_9allocatorIbEEEC1B8ne180100ERKS2_, symObjAddr: 0x16A14, symBinAddr: 0x100021360, symSize: 0x34 }
  - { offset: 0x69218, size: 0x8, addend: 0x0, symName: __ZNSt3__16vectorIbNS_9allocatorIbEEE11__vallocateB8ne180100Em, symObjAddr: 0x16A48, symBinAddr: 0x100021394, symSize: 0xA0 }
  - { offset: 0x6925C, size: 0x8, addend: 0x0, symName: __ZNSt3__16vectorIbNS_9allocatorIbEEE18__construct_at_endINS_14__bit_iteratorIS3_Lb0ELm0EEES6_EEvT_T0_m, symObjAddr: 0x16AE8, symBinAddr: 0x100021434, symSize: 0x12C }
  - { offset: 0x692D4, size: 0x8, addend: 0x0, symName: __ZNSt3__16vectorIbNS_9allocatorIbEEE5beginB8ne180100Ev, symObjAddr: 0x16C14, symBinAddr: 0x100021560, symSize: 0x30 }
  - { offset: 0x692FA, size: 0x8, addend: 0x0, symName: __ZNSt3__16vectorIbNS_9allocatorIbEEE3endB8ne180100Ev, symObjAddr: 0x16C44, symBinAddr: 0x100021590, symSize: 0x30 }
  - { offset: 0x69320, size: 0x8, addend: 0x0, symName: __ZNKSt3__16vectorIbNS_9allocatorIbEEE4sizeB8ne180100Ev, symObjAddr: 0x16C74, symBinAddr: 0x1000215C0, symSize: 0x18 }
  - { offset: 0x69346, size: 0x8, addend: 0x0, symName: __ZNSt3__16vectorIbNS_9allocatorIbEEE4swapERS3_, symObjAddr: 0x16C8C, symBinAddr: 0x1000215D8, symSize: 0x84 }
  - { offset: 0x69388, size: 0x8, addend: 0x0, symName: __ZNSt3__116allocator_traitsINS_9allocatorImEEE8max_sizeB8ne180100IS2_vEEmRKS2_, symObjAddr: 0x16D10, symBinAddr: 0x10002165C, symSize: 0x24 }
  - { offset: 0x693B6, size: 0x8, addend: 0x0, symName: __ZNKSt3__16vectorIbNS_9allocatorIbEEE7__allocB8ne180100Ev, symObjAddr: 0x16D34, symBinAddr: 0x100021680, symSize: 0x28 }
  - { offset: 0x693DC, size: 0x8, addend: 0x0, symName: __ZNKSt3__19allocatorImE8max_sizeB8ne180100Ev, symObjAddr: 0x16D5C, symBinAddr: 0x1000216A8, symSize: 0x14 }
  - { offset: 0x69402, size: 0x8, addend: 0x0, symName: __ZNKSt3__117__compressed_pairImNS_9allocatorImEEE6secondB8ne180100Ev, symObjAddr: 0x16D70, symBinAddr: 0x1000216BC, symSize: 0x24 }
  - { offset: 0x69428, size: 0x8, addend: 0x0, symName: __ZNKSt3__122__compressed_pair_elemINS_9allocatorImEELi1ELb1EE5__getB8ne180100Ev, symObjAddr: 0x16D94, symBinAddr: 0x1000216E0, symSize: 0x14 }
  - { offset: 0x6944E, size: 0x8, addend: 0x0, symName: __ZNSt3__19allocatorIbEC1B8ne180100ImEERKNS0_IT_EE, symObjAddr: 0x16DA8, symBinAddr: 0x1000216F4, symSize: 0x34 }
  - { offset: 0x6948C, size: 0x8, addend: 0x0, symName: __ZNSt3__19allocatorIbEC2B8ne180100ImEERKNS0_IT_EE, symObjAddr: 0x16DDC, symBinAddr: 0x100021728, symSize: 0x30 }
  - { offset: 0x694CA, size: 0x8, addend: 0x0, symName: __ZNSt3__116__non_trivial_ifILb1ENS_9allocatorIbEEEC2B8ne180100Ev, symObjAddr: 0x16E0C, symBinAddr: 0x100021758, symSize: 0x14 }
  - { offset: 0x694F4, size: 0x8, addend: 0x0, symName: __ZNSt3__16vectorIbNS_9allocatorIbEEEC2B8ne180100ERKS2_, symObjAddr: 0x16E20, symBinAddr: 0x10002176C, symSize: 0x6C }
  - { offset: 0x69535, size: 0x8, addend: 0x0, symName: __ZNSt3__19allocatorImEC1B8ne180100IbEERKNS0_IT_EE, symObjAddr: 0x16E8C, symBinAddr: 0x1000217D8, symSize: 0x34 }
  - { offset: 0x69579, size: 0x8, addend: 0x0, symName: __ZNSt3__117__compressed_pairImNS_9allocatorImEEEC1B8ne180100IiS2_EEOT_OT0_, symObjAddr: 0x16EC0, symBinAddr: 0x10002180C, symSize: 0x3C }
  - { offset: 0x695D1, size: 0x8, addend: 0x0, symName: __ZNSt3__19allocatorImEC2B8ne180100IbEERKNS0_IT_EE, symObjAddr: 0x16EFC, symBinAddr: 0x100021848, symSize: 0x30 }
  - { offset: 0x6960F, size: 0x8, addend: 0x0, symName: __ZNSt3__117__compressed_pairImNS_9allocatorImEEEC2B8ne180100IiS2_EEOT_OT0_, symObjAddr: 0x16F2C, symBinAddr: 0x100021878, symSize: 0x44 }
  - { offset: 0x69667, size: 0x8, addend: 0x0, symName: __ZNSt3__122__compressed_pair_elemINS_9allocatorImEELi1ELb1EEC2B8ne180100IS2_vEEOT_, symObjAddr: 0x16F70, symBinAddr: 0x1000218BC, symSize: 0x18 }
  - { offset: 0x696A9, size: 0x8, addend: 0x0, symName: __ZNSt3__16vectorIbNS_9allocatorIbEEE7__allocB8ne180100Ev, symObjAddr: 0x16FC8, symBinAddr: 0x100021914, symSize: 0x28 }
  - { offset: 0x696CF, size: 0x8, addend: 0x0, symName: __ZNSt3__16vectorIbNS_9allocatorIbEEE26__external_cap_to_internalB8ne180100Em, symObjAddr: 0x16FF0, symBinAddr: 0x10002193C, symSize: 0x24 }
  - { offset: 0x696F3, size: 0x8, addend: 0x0, symName: __ZNSt3__16vectorIbNS_9allocatorIbEEE5__capB8ne180100Ev, symObjAddr: 0x17014, symBinAddr: 0x100021960, symSize: 0x28 }
  - { offset: 0x69719, size: 0x8, addend: 0x0, symName: __ZNSt3__19allocatorImE8allocateB8ne180100Em, symObjAddr: 0x1703C, symBinAddr: 0x100021988, symSize: 0x58 }
  - { offset: 0x6974D, size: 0x8, addend: 0x0, symName: __ZNSt3__117__compressed_pairImNS_9allocatorImEEE6secondB8ne180100Ev, symObjAddr: 0x17094, symBinAddr: 0x1000219E0, symSize: 0x24 }
  - { offset: 0x69773, size: 0x8, addend: 0x0, symName: __ZNSt3__122__compressed_pair_elemINS_9allocatorImEELi1ELb1EE5__getB8ne180100Ev, symObjAddr: 0x170B8, symBinAddr: 0x100021A04, symSize: 0x14 }
  - { offset: 0x69799, size: 0x8, addend: 0x0, symName: __ZNSt3__117__compressed_pairImNS_9allocatorImEEE5firstB8ne180100Ev, symObjAddr: 0x170CC, symBinAddr: 0x100021A18, symSize: 0x24 }
  - { offset: 0x697BF, size: 0x8, addend: 0x0, symName: __ZNSt3__114__bit_iteratorINS_6vectorIbNS_9allocatorIbEEEELb0ELm0EEC1B8ne180100ERKS5_, symObjAddr: 0x17178, symBinAddr: 0x100021AC4, symSize: 0x34 }
  - { offset: 0x697F8, size: 0x8, addend: 0x0, symName: __ZNSt3__16vectorIbNS_9allocatorIbEEE11__make_iterB8ne180100Em, symObjAddr: 0x171AC, symBinAddr: 0x100021AF8, symSize: 0x64 }
  - { offset: 0x69853, size: 0x8, addend: 0x0, symName: __ZNKSt3__111__copy_loopINS_17_ClassicAlgPolicyEEclB8ne180100INS_14__bit_iteratorINS_6vectorIbNS_9allocatorIbEEEELb0ELm0EEES9_S9_EENS_4pairIT_T1_EESB_T0_SC_, symObjAddr: 0x17480, symBinAddr: 0x100021DCC, symSize: 0xB8 }
  - { offset: 0x698C1, size: 0x8, addend: 0x0, symName: __ZNKSt3__114__bit_iteratorINS_6vectorIbNS_9allocatorIbEEEELb0ELm0EEdeB8ne180100Ev, symObjAddr: 0x176D0, symBinAddr: 0x10002201C, symSize: 0x44 }
  - { offset: 0x698E7, size: 0x8, addend: 0x0, symName: __ZNSt3__115__bit_referenceINS_6vectorIbNS_9allocatorIbEEEELb1EEaSB8ne180100ERKS5_, symObjAddr: 0x17714, symBinAddr: 0x100022060, symSize: 0x40 }
  - { offset: 0x6991B, size: 0x8, addend: 0x0, symName: __ZNSt3__114__bit_iteratorINS_6vectorIbNS_9allocatorIbEEEELb0ELm0EEppB8ne180100Ev, symObjAddr: 0x17754, symBinAddr: 0x1000220A0, symSize: 0x5C }
  - { offset: 0x69941, size: 0x8, addend: 0x0, symName: __ZNSt3__115__bit_referenceINS_6vectorIbNS_9allocatorIbEEEELb1EEC1B8ne180100EPmm, symObjAddr: 0x17814, symBinAddr: 0x100022160, symSize: 0x3C }
  - { offset: 0x69987, size: 0x8, addend: 0x0, symName: __ZNSt3__115__bit_referenceINS_6vectorIbNS_9allocatorIbEEEELb1EEC2B8ne180100EPmm, symObjAddr: 0x17850, symBinAddr: 0x10002219C, symSize: 0x2C }
  - { offset: 0x699CD, size: 0x8, addend: 0x0, symName: __ZNKSt3__115__bit_referenceINS_6vectorIbNS_9allocatorIbEEEELb1EEcvbB8ne180100Ev, symObjAddr: 0x1787C, symBinAddr: 0x1000221C8, symSize: 0x2C }
  - { offset: 0x699F3, size: 0x8, addend: 0x0, symName: __ZNSt3__118__unwrap_iter_implINS_14__bit_iteratorINS_6vectorIbNS_9allocatorIbEEEELb0ELm0EEELb0EE8__unwrapB8ne180100ES6_, symObjAddr: 0x178A8, symBinAddr: 0x1000221F4, symSize: 0x38 }
  - { offset: 0x69A1D, size: 0x8, addend: 0x0, symName: __ZNSt3__14pairINS_14__bit_iteratorINS_6vectorIbNS_9allocatorIbEEEELb0ELm0EEES6_EC1B8ne180100IS6_S6_Li0EEEOT_OT0_, symObjAddr: 0x178E0, symBinAddr: 0x10002222C, symSize: 0x3C }
  - { offset: 0x69A7B, size: 0x8, addend: 0x0, symName: __ZNSt3__14pairINS_14__bit_iteratorINS_6vectorIbNS_9allocatorIbEEEELb0ELm0EEES6_EC2B8ne180100IS6_S6_Li0EEEOT_OT0_, symObjAddr: 0x1791C, symBinAddr: 0x100022268, symSize: 0x48 }
  - { offset: 0x69AD9, size: 0x8, addend: 0x0, symName: __ZNSt3__118__unwrap_iter_implINS_14__bit_iteratorINS_6vectorIbNS_9allocatorIbEEEELb0ELm0EEELb0EE8__rewrapB8ne180100ES6_S6_, symObjAddr: 0x17964, symBinAddr: 0x1000222B0, symSize: 0x3C }
  - { offset: 0x69B09, size: 0x8, addend: 0x0, symName: __ZNSt3__114__bit_iteratorINS_6vectorIbNS_9allocatorIbEEEELb0ELm0EEC2B8ne180100ERKS5_, symObjAddr: 0x179A0, symBinAddr: 0x1000222EC, symSize: 0x30 }
  - { offset: 0x69B42, size: 0x8, addend: 0x0, symName: __ZNSt3__114__bit_iteratorINS_6vectorIbNS_9allocatorIbEEEELb0ELm0EEC1B8ne180100EPmj, symObjAddr: 0x179D0, symBinAddr: 0x10002231C, symSize: 0x3C }
  - { offset: 0x69B8A, size: 0x8, addend: 0x0, symName: __ZNSt3__114__bit_iteratorINS_6vectorIbNS_9allocatorIbEEEELb0ELm0EEC2B8ne180100EPmj, symObjAddr: 0x17A0C, symBinAddr: 0x100022358, symSize: 0x2C }
  - { offset: 0x69BD2, size: 0x8, addend: 0x0, symName: __ZNSt3__16vectorIbNS_9allocatorIbEEE10__align_itB8ne180100Em, symObjAddr: 0x17AC4, symBinAddr: 0x100022410, symSize: 0x1C }
  - { offset: 0x69BF6, size: 0x8, addend: 0x0, symName: __ZNSt3__16vectorIbNS_9allocatorIbEEE10__make_refB8ne180100Em, symObjAddr: 0x17AE0, symBinAddr: 0x10002242C, symSize: 0x60 }
  - { offset: 0x69C2B, size: 0x8, addend: 0x0, symName: __ZNSt3__16vectorIbNS_9allocatorIbEEED2B8ne180100Ev, symObjAddr: 0x17B40, symBinAddr: 0x10002248C, symSize: 0x44 }
  - { offset: 0x69C55, size: 0x8, addend: 0x0, symName: __ZNSt3__16vectorIbNS_9allocatorIbEEE16__destroy_vectorC1B8ne180100ERS3_, symObjAddr: 0x17B84, symBinAddr: 0x1000224D0, symSize: 0x34 }
  - { offset: 0x69C8E, size: 0x8, addend: 0x0, symName: __ZNSt3__16vectorIbNS_9allocatorIbEEE16__destroy_vectorclB8ne180100Ev, symObjAddr: 0x17BB8, symBinAddr: 0x100022504, symSize: 0x7C }
  - { offset: 0x69CB4, size: 0x8, addend: 0x0, symName: __ZNSt3__16vectorIbNS_9allocatorIbEEE16__destroy_vectorC2B8ne180100ERS3_, symObjAddr: 0x17C34, symBinAddr: 0x100022580, symSize: 0x20 }
  - { offset: 0x69CED, size: 0x8, addend: 0x0, symName: __ZNSt3__116allocator_traitsINS_9allocatorImEEE10deallocateB8ne180100ERS2_Pmm, symObjAddr: 0x17C54, symBinAddr: 0x1000225A0, symSize: 0x34 }
  - { offset: 0x69D2F, size: 0x8, addend: 0x0, symName: __ZNSt3__19allocatorImE10deallocateB8ne180100EPmm, symObjAddr: 0x17C88, symBinAddr: 0x1000225D4, symSize: 0x40 }
  - { offset: 0x69D71, size: 0x8, addend: 0x0, symName: __ZNSt3__16vectorIPN8nlohmann16json_abi_v3_11_310basic_jsonINS_3mapES0_NS_12basic_stringIcNS_11char_traitsIcEENS_9allocatorIcEEEEbxydS8_NS2_14adl_serializerENS0_IhNS8_IhEEEEvEENS8_ISF_EEED2B8ne180100Ev, symObjAddr: 0x17CC8, symBinAddr: 0x100022614, symSize: 0x44 }
  - { offset: 0x69D9B, size: 0x8, addend: 0x0, symName: __ZNSt3__16vectorIPN8nlohmann16json_abi_v3_11_310basic_jsonINS_3mapES0_NS_12basic_stringIcNS_11char_traitsIcEENS_9allocatorIcEEEEbxydS8_NS2_14adl_serializerENS0_IhNS8_IhEEEEvEENS8_ISF_EEE16__destroy_vectorC1B8ne180100ERSH_, symObjAddr: 0x17D0C, symBinAddr: 0x100022658, symSize: 0x34 }
  - { offset: 0x69DD4, size: 0x8, addend: 0x0, symName: __ZNSt3__16vectorIPN8nlohmann16json_abi_v3_11_310basic_jsonINS_3mapES0_NS_12basic_stringIcNS_11char_traitsIcEENS_9allocatorIcEEEEbxydS8_NS2_14adl_serializerENS0_IhNS8_IhEEEEvEENS8_ISF_EEE16__destroy_vectorclB8ne180100Ev, symObjAddr: 0x17D40, symBinAddr: 0x10002268C, symSize: 0x90 }
  - { offset: 0x69DFA, size: 0x8, addend: 0x0, symName: __ZNSt3__16vectorIPN8nlohmann16json_abi_v3_11_310basic_jsonINS_3mapES0_NS_12basic_stringIcNS_11char_traitsIcEENS_9allocatorIcEEEEbxydS8_NS2_14adl_serializerENS0_IhNS8_IhEEEEvEENS8_ISF_EEE16__destroy_vectorC2B8ne180100ERSH_, symObjAddr: 0x17DD0, symBinAddr: 0x10002271C, symSize: 0x20 }
  - { offset: 0x69E33, size: 0x8, addend: 0x0, symName: __ZNSt3__16vectorIPN8nlohmann16json_abi_v3_11_310basic_jsonINS_3mapES0_NS_12basic_stringIcNS_11char_traitsIcEENS_9allocatorIcEEEEbxydS8_NS2_14adl_serializerENS0_IhNS8_IhEEEEvEENS8_ISF_EEE7__clearB8ne180100Ev, symObjAddr: 0x17DF0, symBinAddr: 0x10002273C, symSize: 0x28 }
  - { offset: 0x69E59, size: 0x8, addend: 0x0, symName: __ZNKSt3__16vectorIPN8nlohmann16json_abi_v3_11_310basic_jsonINS_3mapES0_NS_12basic_stringIcNS_11char_traitsIcEENS_9allocatorIcEEEEbxydS8_NS2_14adl_serializerENS0_IhNS8_IhEEEEvEENS8_ISF_EEE17__annotate_deleteB8ne180100Ev, symObjAddr: 0x17E18, symBinAddr: 0x100022764, symSize: 0x10 }
  - { offset: 0x69E7F, size: 0x8, addend: 0x0, symName: __ZNSt3__116allocator_traitsINS_9allocatorIPN8nlohmann16json_abi_v3_11_310basic_jsonINS_3mapENS_6vectorENS_12basic_stringIcNS_11char_traitsIcEENS1_IcEEEEbxydS1_NS3_14adl_serializerENS6_IhNS1_IhEEEEvEEEEE10deallocateB8ne180100ERSH_PSG_m, symObjAddr: 0x17E28, symBinAddr: 0x100022774, symSize: 0x34 }
  - { offset: 0x69EC1, size: 0x8, addend: 0x0, symName: __ZNSt3__16vectorIPN8nlohmann16json_abi_v3_11_310basic_jsonINS_3mapES0_NS_12basic_stringIcNS_11char_traitsIcEENS_9allocatorIcEEEEbxydS8_NS2_14adl_serializerENS0_IhNS8_IhEEEEvEENS8_ISF_EEE7__allocB8ne180100Ev, symObjAddr: 0x17E5C, symBinAddr: 0x1000227A8, symSize: 0x28 }
  - { offset: 0x69EE7, size: 0x8, addend: 0x0, symName: __ZNKSt3__16vectorIPN8nlohmann16json_abi_v3_11_310basic_jsonINS_3mapES0_NS_12basic_stringIcNS_11char_traitsIcEENS_9allocatorIcEEEEbxydS8_NS2_14adl_serializerENS0_IhNS8_IhEEEEvEENS8_ISF_EEE8capacityB8ne180100Ev, symObjAddr: 0x17E84, symBinAddr: 0x1000227D0, symSize: 0x40 }
  - { offset: 0x69F0D, size: 0x8, addend: 0x0, symName: __ZNSt3__16vectorIPN8nlohmann16json_abi_v3_11_310basic_jsonINS_3mapES0_NS_12basic_stringIcNS_11char_traitsIcEENS_9allocatorIcEEEEbxydS8_NS2_14adl_serializerENS0_IhNS8_IhEEEEvEENS8_ISF_EEE22__base_destruct_at_endB8ne180100EPSF_, symObjAddr: 0x17EC4, symBinAddr: 0x100022810, symSize: 0x8C }
  - { offset: 0x69F51, size: 0x8, addend: 0x0, symName: __ZNSt3__116allocator_traitsINS_9allocatorIPN8nlohmann16json_abi_v3_11_310basic_jsonINS_3mapENS_6vectorENS_12basic_stringIcNS_11char_traitsIcEENS1_IcEEEEbxydS1_NS3_14adl_serializerENS6_IhNS1_IhEEEEvEEEEE7destroyB8ne180100ISG_vEEvRSH_PT_, symObjAddr: 0x17F50, symBinAddr: 0x10002289C, symSize: 0x2C }
  - { offset: 0x69F8E, size: 0x8, addend: 0x0, symName: __ZNSt3__19allocatorIPN8nlohmann16json_abi_v3_11_310basic_jsonINS_3mapENS_6vectorENS_12basic_stringIcNS_11char_traitsIcEENS0_IcEEEEbxydS0_NS2_14adl_serializerENS5_IhNS0_IhEEEEvEEE7destroyB8ne180100EPSF_, symObjAddr: 0x17F90, symBinAddr: 0x1000228DC, symSize: 0x14 }
  - { offset: 0x69FC2, size: 0x8, addend: 0x0, symName: __ZNSt3__19allocatorIPN8nlohmann16json_abi_v3_11_310basic_jsonINS_3mapENS_6vectorENS_12basic_stringIcNS_11char_traitsIcEENS0_IcEEEEbxydS0_NS2_14adl_serializerENS5_IhNS0_IhEEEEvEEE10deallocateB8ne180100EPSF_m, symObjAddr: 0x17FA4, symBinAddr: 0x1000228F0, symSize: 0x40 }
  - { offset: 0x6A004, size: 0x8, addend: 0x0, symName: __ZNSt3__117__compressed_pairIPPN8nlohmann16json_abi_v3_11_310basic_jsonINS_3mapENS_6vectorENS_12basic_stringIcNS_11char_traitsIcEENS_9allocatorIcEEEEbxydS9_NS2_14adl_serializerENS5_IhNS9_IhEEEEvEENS9_ISG_EEE6secondB8ne180100Ev, symObjAddr: 0x17FE4, symBinAddr: 0x100022930, symSize: 0x24 }
  - { offset: 0x6A02A, size: 0x8, addend: 0x0, symName: __ZNSt3__122__compressed_pair_elemINS_9allocatorIPN8nlohmann16json_abi_v3_11_310basic_jsonINS_3mapENS_6vectorENS_12basic_stringIcNS_11char_traitsIcEENS1_IcEEEEbxydS1_NS3_14adl_serializerENS6_IhNS1_IhEEEEvEEEELi1ELb1EE5__getB8ne180100Ev, symObjAddr: 0x18008, symBinAddr: 0x100022954, symSize: 0x14 }
  - { offset: 0x6A050, size: 0x8, addend: 0x0, symName: __ZNKSt3__16vectorIPN8nlohmann16json_abi_v3_11_310basic_jsonINS_3mapES0_NS_12basic_stringIcNS_11char_traitsIcEENS_9allocatorIcEEEEbxydS8_NS2_14adl_serializerENS0_IhNS8_IhEEEEvEENS8_ISF_EEE9__end_capB8ne180100Ev, symObjAddr: 0x1801C, symBinAddr: 0x100022968, symSize: 0x28 }
  - { offset: 0x6A076, size: 0x8, addend: 0x0, symName: __ZNKSt3__117__compressed_pairIPPN8nlohmann16json_abi_v3_11_310basic_jsonINS_3mapENS_6vectorENS_12basic_stringIcNS_11char_traitsIcEENS_9allocatorIcEEEEbxydS9_NS2_14adl_serializerENS5_IhNS9_IhEEEEvEENS9_ISG_EEE5firstB8ne180100Ev, symObjAddr: 0x18044, symBinAddr: 0x100022990, symSize: 0x24 }
  - { offset: 0x6A09C, size: 0x8, addend: 0x0, symName: __ZNKSt3__122__compressed_pair_elemIPPN8nlohmann16json_abi_v3_11_310basic_jsonINS_3mapENS_6vectorENS_12basic_stringIcNS_11char_traitsIcEENS_9allocatorIcEEEEbxydS9_NS2_14adl_serializerENS5_IhNS9_IhEEEEvEELi0ELb0EE5__getB8ne180100Ev, symObjAddr: 0x18068, symBinAddr: 0x1000229B4, symSize: 0x14 }
  - { offset: 0x6A0C2, size: 0x8, addend: 0x0, symName: __ZN8nlohmann16json_abi_v3_11_36detail28json_sax_dom_callback_parserINS0_10basic_jsonINSt3__13mapENS4_6vectorENS4_12basic_stringIcNS4_11char_traitsIcEENS4_9allocatorIcEEEEbxydSA_NS0_14adl_serializerENS6_IhNSA_IhEEEEvEEE12start_objectEm, symObjAddr: 0x1807C, symBinAddr: 0x1000229C8, symSize: 0x22C }
  - { offset: 0x6A115, size: 0x8, addend: 0x0, symName: __ZN8nlohmann16json_abi_v3_11_36detail28json_sax_dom_callback_parserINS0_10basic_jsonINSt3__13mapENS4_6vectorENS4_12basic_stringIcNS4_11char_traitsIcEENS4_9allocatorIcEEEEbxydSA_NS0_14adl_serializerENS6_IhNSA_IhEEEEvEEE10end_objectEv, symObjAddr: 0x182A8, symBinAddr: 0x100022BF4, symSize: 0x278 }
  - { offset: 0x6A158, size: 0x8, addend: 0x0, symName: __ZN8nlohmann16json_abi_v3_11_36detail28json_sax_dom_callback_parserINS0_10basic_jsonINSt3__13mapENS4_6vectorENS4_12basic_stringIcNS4_11char_traitsIcEENS4_9allocatorIcEEEEbxydSA_NS0_14adl_serializerENS6_IhNSA_IhEEEEvEEE3keyERSC_, symObjAddr: 0x18520, symBinAddr: 0x100022E6C, symSize: 0x15C }
  - { offset: 0x6A1AB, size: 0x8, addend: 0x0, symName: __ZN8nlohmann16json_abi_v3_11_36detail5lexerINS0_10basic_jsonINSt3__13mapENS4_6vectorENS4_12basic_stringIcNS4_11char_traitsIcEENS4_9allocatorIcEEEEbxydSA_NS0_14adl_serializerENS6_IhNSA_IhEEEEvEENS1_22iterator_input_adapterINS4_11__wrap_iterIPKcEEEEE10get_stringEv, symObjAddr: 0x1867C, symBinAddr: 0x100022FC8, symSize: 0x18 }
  - { offset: 0x6A1D1, size: 0x8, addend: 0x0, symName: __ZN8nlohmann16json_abi_v3_11_36detail28json_sax_dom_callback_parserINS0_10basic_jsonINSt3__13mapENS4_6vectorENS4_12basic_stringIcNS4_11char_traitsIcEENS4_9allocatorIcEEEEbxydSA_NS0_14adl_serializerENS6_IhNSA_IhEEEEvEEE11start_arrayEm, symObjAddr: 0x18694, symBinAddr: 0x100022FE0, symSize: 0x22C }
  - { offset: 0x6A224, size: 0x8, addend: 0x0, symName: __ZN8nlohmann16json_abi_v3_11_36detail28json_sax_dom_callback_parserINS0_10basic_jsonINSt3__13mapENS4_6vectorENS4_12basic_stringIcNS4_11char_traitsIcEENS4_9allocatorIcEEEEbxydSA_NS0_14adl_serializerENS6_IhNSA_IhEEEEvEEE9end_arrayEv, symObjAddr: 0x188C0, symBinAddr: 0x10002320C, symSize: 0x1EC }
  - { offset: 0x6A259, size: 0x8, addend: 0x0, symName: __ZNK8nlohmann16json_abi_v3_11_36detail5lexerINS0_10basic_jsonINSt3__13mapENS4_6vectorENS4_12basic_stringIcNS4_11char_traitsIcEENS4_9allocatorIcEEEEbxydSA_NS0_14adl_serializerENS6_IhNSA_IhEEEEvEENS1_22iterator_input_adapterINS4_11__wrap_iterIPKcEEEEE16get_number_floatEv, symObjAddr: 0x18AAC, symBinAddr: 0x1000233F8, symSize: 0x18 }
  - { offset: 0x6A28F, size: 0x8, addend: 0x0, symName: __ZN8nlohmann16json_abi_v3_11_36detail28json_sax_dom_callback_parserINS0_10basic_jsonINSt3__13mapENS4_6vectorENS4_12basic_stringIcNS4_11char_traitsIcEENS4_9allocatorIcEEEEbxydSA_NS0_14adl_serializerENS6_IhNSA_IhEEEEvEEE11parse_errorINS1_12out_of_rangeEEEbmRKSC_RKT_, symObjAddr: 0x18AE8, symBinAddr: 0x100023434, symSize: 0x74 }
  - { offset: 0x6A2E5, size: 0x8, addend: 0x0, symName: __ZN8nlohmann16json_abi_v3_11_36detail12out_of_range6createIDnLi0EEES2_iRKNSt3__112basic_stringIcNS4_11char_traitsIcEENS4_9allocatorIcEEEET_, symObjAddr: 0x18B5C, symBinAddr: 0x1000234A8, symSize: 0x130 }
  - { offset: 0x6A342, size: 0x8, addend: 0x0, symName: __ZN8nlohmann16json_abi_v3_11_36detail12out_of_rangeD1Ev, symObjAddr: 0x18D64, symBinAddr: 0x1000236B0, symSize: 0x2C }
  - { offset: 0x6A36E, size: 0x8, addend: 0x0, symName: __ZN8nlohmann16json_abi_v3_11_36detail28json_sax_dom_callback_parserINS0_10basic_jsonINSt3__13mapENS4_6vectorENS4_12basic_stringIcNS4_11char_traitsIcEENS4_9allocatorIcEEEEbxydSA_NS0_14adl_serializerENS6_IhNSA_IhEEEEvEEE12number_floatEdRKSC_, symObjAddr: 0x18D90, symBinAddr: 0x1000236DC, symSize: 0x54 }
  - { offset: 0x6A3AF, size: 0x8, addend: 0x0, symName: __ZN8nlohmann16json_abi_v3_11_36detail28json_sax_dom_callback_parserINS0_10basic_jsonINSt3__13mapENS4_6vectorENS4_12basic_stringIcNS4_11char_traitsIcEENS4_9allocatorIcEEEEbxydSA_NS0_14adl_serializerENS6_IhNSA_IhEEEEvEEE7booleanEb, symObjAddr: 0x18DE4, symBinAddr: 0x100023730, symSize: 0x50 }
  - { offset: 0x6A3E4, size: 0x8, addend: 0x0, symName: __ZN8nlohmann16json_abi_v3_11_36detail28json_sax_dom_callback_parserINS0_10basic_jsonINSt3__13mapENS4_6vectorENS4_12basic_stringIcNS4_11char_traitsIcEENS4_9allocatorIcEEEEbxydSA_NS0_14adl_serializerENS6_IhNSA_IhEEEEvEEE4nullEv, symObjAddr: 0x18E34, symBinAddr: 0x100023780, symSize: 0x4C }
  - { offset: 0x6A40A, size: 0x8, addend: 0x0, symName: __ZN8nlohmann16json_abi_v3_11_36detail28json_sax_dom_callback_parserINS0_10basic_jsonINSt3__13mapENS4_6vectorENS4_12basic_stringIcNS4_11char_traitsIcEENS4_9allocatorIcEEEEbxydSA_NS0_14adl_serializerENS6_IhNSA_IhEEEEvEEE14number_integerEx, symObjAddr: 0x18E80, symBinAddr: 0x1000237CC, symSize: 0x50 }
  - { offset: 0x6A43F, size: 0x8, addend: 0x0, symName: __ZNK8nlohmann16json_abi_v3_11_36detail5lexerINS0_10basic_jsonINSt3__13mapENS4_6vectorENS4_12basic_stringIcNS4_11char_traitsIcEENS4_9allocatorIcEEEEbxydSA_NS0_14adl_serializerENS6_IhNSA_IhEEEEvEENS1_22iterator_input_adapterINS4_11__wrap_iterIPKcEEEEE18get_number_integerEv, symObjAddr: 0x18ED0, symBinAddr: 0x10002381C, symSize: 0x18 }
  - { offset: 0x6A465, size: 0x8, addend: 0x0, symName: __ZN8nlohmann16json_abi_v3_11_36detail28json_sax_dom_callback_parserINS0_10basic_jsonINSt3__13mapENS4_6vectorENS4_12basic_stringIcNS4_11char_traitsIcEENS4_9allocatorIcEEEEbxydSA_NS0_14adl_serializerENS6_IhNSA_IhEEEEvEEE6stringERSC_, symObjAddr: 0x18EE8, symBinAddr: 0x100023834, symSize: 0x4C }
  - { offset: 0x6A49A, size: 0x8, addend: 0x0, symName: __ZN8nlohmann16json_abi_v3_11_36detail28json_sax_dom_callback_parserINS0_10basic_jsonINSt3__13mapENS4_6vectorENS4_12basic_stringIcNS4_11char_traitsIcEENS4_9allocatorIcEEEEbxydSA_NS0_14adl_serializerENS6_IhNSA_IhEEEEvEEE15number_unsignedEy, symObjAddr: 0x18F34, symBinAddr: 0x100023880, symSize: 0x50 }
  - { offset: 0x6A4CF, size: 0x8, addend: 0x0, symName: __ZNK8nlohmann16json_abi_v3_11_36detail5lexerINS0_10basic_jsonINSt3__13mapENS4_6vectorENS4_12basic_stringIcNS4_11char_traitsIcEENS4_9allocatorIcEEEEbxydSA_NS0_14adl_serializerENS6_IhNSA_IhEEEEvEENS1_22iterator_input_adapterINS4_11__wrap_iterIPKcEEEEE19get_number_unsignedEv, symObjAddr: 0x18F84, symBinAddr: 0x1000238D0, symSize: 0x18 }
  - { offset: 0x6A4F5, size: 0x8, addend: 0x0, symName: __ZNKSt3__16vectorIbNS_9allocatorIbEEE5emptyB8ne180100Ev, symObjAddr: 0x18F9C, symBinAddr: 0x1000238E8, symSize: 0x24 }
  - { offset: 0x6A51B, size: 0x8, addend: 0x0, symName: __ZNSt3__16vectorIbNS_9allocatorIbEEE8pop_backB8ne180100Ev, symObjAddr: 0x18FC0, symBinAddr: 0x10002390C, symSize: 0x20 }
  - { offset: 0x6A541, size: 0x8, addend: 0x0, symName: __ZNKSt3__18functionIFbiN8nlohmann16json_abi_v3_11_36detail13parse_event_tERNS2_10basic_jsonINS_3mapENS_6vectorENS_12basic_stringIcNS_11char_traitsIcEENS_9allocatorIcEEEEbxydSB_NS2_14adl_serializerENS7_IhNSB_IhEEEEvEEEEclEiS4_SI_, symObjAddr: 0x18FE0, symBinAddr: 0x10002392C, symSize: 0x48 }
  - { offset: 0x6A596, size: 0x8, addend: 0x0, symName: __ZNKSt3__16vectorIPN8nlohmann16json_abi_v3_11_310basic_jsonINS_3mapES0_NS_12basic_stringIcNS_11char_traitsIcEENS_9allocatorIcEEEEbxydS8_NS2_14adl_serializerENS0_IhNS8_IhEEEEvEENS8_ISF_EEE4sizeB8ne180100Ev, symObjAddr: 0x19028, symBinAddr: 0x100023974, symSize: 0x28 }
  - { offset: 0x6A5DE, size: 0x8, addend: 0x0, symName: __ZN8nlohmann16json_abi_v3_11_36detail28json_sax_dom_callback_parserINS0_10basic_jsonINSt3__13mapENS4_6vectorENS4_12basic_stringIcNS4_11char_traitsIcEENS4_9allocatorIcEEEEbxydSA_NS0_14adl_serializerENS6_IhNSA_IhEEEEvEEE12handle_valueINS1_7value_tEEENS4_4pairIbPSG_EEOT_b, symObjAddr: 0x19050, symBinAddr: 0x10002399C, symSize: 0x4E0 }
  - { offset: 0x6A65B, size: 0x8, addend: 0x0, symName: __ZNSt3__16vectorIPN8nlohmann16json_abi_v3_11_310basic_jsonINS_3mapES0_NS_12basic_stringIcNS_11char_traitsIcEENS_9allocatorIcEEEEbxydS8_NS2_14adl_serializerENS0_IhNS8_IhEEEEvEENS8_ISF_EEE9push_backB8ne180100ERKSF_, symObjAddr: 0x19530, symBinAddr: 0x100023E7C, symSize: 0x90 }
  - { offset: 0x6A6A1, size: 0x8, addend: 0x0, symName: __ZNSt3__16vectorIPN8nlohmann16json_abi_v3_11_310basic_jsonINS_3mapES0_NS_12basic_stringIcNS_11char_traitsIcEENS_9allocatorIcEEEEbxydS8_NS2_14adl_serializerENS0_IhNS8_IhEEEEvEENS8_ISF_EEE4backB8ne180100Ev, symObjAddr: 0x195C0, symBinAddr: 0x100023F0C, symSize: 0x1C }
  - { offset: 0x6A6C7, size: 0x8, addend: 0x0, symName: __ZNK8nlohmann16json_abi_v3_11_310basic_jsonINSt3__13mapENS2_6vectorENS2_12basic_stringIcNS2_11char_traitsIcEENS2_9allocatorIcEEEEbxydS8_NS0_14adl_serializerENS4_IhNS8_IhEEEEvE8max_sizeEv, symObjAddr: 0x195DC, symBinAddr: 0x100023F28, symSize: 0xA0 }
  - { offset: 0x6A6ED, size: 0x8, addend: 0x0, symName: __ZN8nlohmann16json_abi_v3_11_36detail12out_of_range6createIPNS0_10basic_jsonINSt3__13mapENS5_6vectorENS5_12basic_stringIcNS5_11char_traitsIcEENS5_9allocatorIcEEEEbxydSB_NS0_14adl_serializerENS7_IhNSB_IhEEEEvEELi0EEES2_iRKSD_T_, symObjAddr: 0x196A4, symBinAddr: 0x100023FF0, symSize: 0x130 }
  - { offset: 0x6A74A, size: 0x8, addend: 0x0, symName: __ZNKSt3__110__function12__value_funcIFbiN8nlohmann16json_abi_v3_11_36detail13parse_event_tERNS3_10basic_jsonINS_3mapENS_6vectorENS_12basic_stringIcNS_11char_traitsIcEENS_9allocatorIcEEEEbxydSC_NS3_14adl_serializerENS8_IhNSC_IhEEEEvEEEEclB8ne180100EOiOS5_SJ_, symObjAddr: 0x198A0, symBinAddr: 0x1000241EC, symSize: 0x6C }
  - { offset: 0x6A7B3, size: 0x8, addend: 0x0, symName: __ZNSt3__117bad_function_callC1B8ne180100Ev, symObjAddr: 0x19944, symBinAddr: 0x100024290, symSize: 0x2C }
  - { offset: 0x6A7DD, size: 0x8, addend: 0x0, symName: __ZNSt3__117bad_function_callD1Ev, symObjAddr: 0x19970, symBinAddr: 0x1000242BC, symSize: 0x2C }
  - { offset: 0x6A807, size: 0x8, addend: 0x0, symName: __ZNSt3__117bad_function_callC2B8ne180100Ev, symObjAddr: 0x1999C, symBinAddr: 0x1000242E8, symSize: 0x3C }
  - { offset: 0x6A831, size: 0x8, addend: 0x0, symName: __ZNSt3__117bad_function_callD0Ev, symObjAddr: 0x199D8, symBinAddr: 0x100024324, symSize: 0x30 }
  - { offset: 0x6A85B, size: 0x8, addend: 0x0, symName: __ZNSt3__117bad_function_callD2Ev, symObjAddr: 0x19A08, symBinAddr: 0x100024354, symSize: 0x2C }
  - { offset: 0x6A88B, size: 0x8, addend: 0x0, symName: __ZNSt3__14pairIbPN8nlohmann16json_abi_v3_11_310basic_jsonINS_3mapENS_6vectorENS_12basic_stringIcNS_11char_traitsIcEENS_9allocatorIcEEEEbxydS9_NS2_14adl_serializerENS5_IhNS9_IhEEEEvEEEC1B8ne180100IbDnLi0EEEOT_OT0_, symObjAddr: 0x19A34, symBinAddr: 0x100024380, symSize: 0x3C }
  - { offset: 0x6A8E9, size: 0x8, addend: 0x0, symName: __ZNKSt3__16vectorIPN8nlohmann16json_abi_v3_11_310basic_jsonINS_3mapES0_NS_12basic_stringIcNS_11char_traitsIcEENS_9allocatorIcEEEEbxydS8_NS2_14adl_serializerENS0_IhNS8_IhEEEEvEENS8_ISF_EEE5emptyB8ne180100Ev, symObjAddr: 0x19A70, symBinAddr: 0x1000243BC, symSize: 0x28 }
  - { offset: 0x6A90F, size: 0x8, addend: 0x0, symName: __ZNSt3__14pairIbPN8nlohmann16json_abi_v3_11_310basic_jsonINS_3mapENS_6vectorENS_12basic_stringIcNS_11char_traitsIcEENS_9allocatorIcEEEEbxydS9_NS2_14adl_serializerENS5_IhNS9_IhEEEEvEEEC1B8ne180100IbSG_Li0EEEOT_OT0_, symObjAddr: 0x19A98, symBinAddr: 0x1000243E4, symSize: 0x3C }
  - { offset: 0x6A96D, size: 0x8, addend: 0x0, symName: __ZNSt3__16vectorIN8nlohmann16json_abi_v3_11_310basic_jsonINS_3mapES0_NS_12basic_stringIcNS_11char_traitsIcEENS_9allocatorIcEEEEbxydS8_NS2_14adl_serializerENS0_IhNS8_IhEEEEvEENS8_ISE_EEE12emplace_backIJSE_EEERSE_DpOT_, symObjAddr: 0x19AD4, symBinAddr: 0x100024420, symSize: 0x98 }
  - { offset: 0x6A9BE, size: 0x8, addend: 0x0, symName: __ZNSt3__14pairIbPN8nlohmann16json_abi_v3_11_310basic_jsonINS_3mapENS_6vectorENS_12basic_stringIcNS_11char_traitsIcEENS_9allocatorIcEEEEbxydS9_NS2_14adl_serializerENS5_IhNS9_IhEEEEvEEEC1B8ne180100IbRSG_Li0EEEOT_OT0_, symObjAddr: 0x19B6C, symBinAddr: 0x1000244B8, symSize: 0x3C }
  - { offset: 0x6AA1C, size: 0x8, addend: 0x0, symName: __ZNSt3__14pairIbPN8nlohmann16json_abi_v3_11_310basic_jsonINS_3mapENS_6vectorENS_12basic_stringIcNS_11char_traitsIcEENS_9allocatorIcEEEEbxydS9_NS2_14adl_serializerENS5_IhNS9_IhEEEEvEEEC2B8ne180100IbDnLi0EEEOT_OT0_, symObjAddr: 0x19BA8, symBinAddr: 0x1000244F4, symSize: 0x30 }
  - { offset: 0x6AA7A, size: 0x8, addend: 0x0, symName: __ZNSt3__14pairIbPN8nlohmann16json_abi_v3_11_310basic_jsonINS_3mapENS_6vectorENS_12basic_stringIcNS_11char_traitsIcEENS_9allocatorIcEEEEbxydS9_NS2_14adl_serializerENS5_IhNS9_IhEEEEvEEEC2B8ne180100IbSG_Li0EEEOT_OT0_, symObjAddr: 0x19BD8, symBinAddr: 0x100024524, symSize: 0x38 }
  - { offset: 0x6AAD8, size: 0x8, addend: 0x0, symName: __ZNSt3__16vectorIN8nlohmann16json_abi_v3_11_310basic_jsonINS_3mapES0_NS_12basic_stringIcNS_11char_traitsIcEENS_9allocatorIcEEEEbxydS8_NS2_14adl_serializerENS0_IhNS8_IhEEEEvEENS8_ISE_EEE24__emplace_back_slow_pathIJSE_EEEPSE_DpOT_, symObjAddr: 0x19C10, symBinAddr: 0x10002455C, symSize: 0xE8 }
  - { offset: 0x6AB38, size: 0x8, addend: 0x0, symName: __ZNSt3__14pairIbPN8nlohmann16json_abi_v3_11_310basic_jsonINS_3mapENS_6vectorENS_12basic_stringIcNS_11char_traitsIcEENS_9allocatorIcEEEEbxydS9_NS2_14adl_serializerENS5_IhNS9_IhEEEEvEEEC2B8ne180100IbRSG_Li0EEEOT_OT0_, symObjAddr: 0x19CF8, symBinAddr: 0x100024644, symSize: 0x38 }
  - { offset: 0x6AB96, size: 0x8, addend: 0x0, symName: __ZNSt3__16vectorIPN8nlohmann16json_abi_v3_11_310basic_jsonINS_3mapES0_NS_12basic_stringIcNS_11char_traitsIcEENS_9allocatorIcEEEEbxydS8_NS2_14adl_serializerENS0_IhNS8_IhEEEEvEENS8_ISF_EEE9__end_capB8ne180100Ev, symObjAddr: 0x19D30, symBinAddr: 0x10002467C, symSize: 0x28 }
  - { offset: 0x6ABBC, size: 0x8, addend: 0x0, symName: __ZNSt3__16vectorIPN8nlohmann16json_abi_v3_11_310basic_jsonINS_3mapES0_NS_12basic_stringIcNS_11char_traitsIcEENS_9allocatorIcEEEEbxydS8_NS2_14adl_serializerENS0_IhNS8_IhEEEEvEENS8_ISF_EEE22__construct_one_at_endB8ne180100IJRKSF_EEEvDpOT_, symObjAddr: 0x19D58, symBinAddr: 0x1000246A4, symSize: 0x90 }
  - { offset: 0x6AC0B, size: 0x8, addend: 0x0, symName: __ZNSt3__16vectorIPN8nlohmann16json_abi_v3_11_310basic_jsonINS_3mapES0_NS_12basic_stringIcNS_11char_traitsIcEENS_9allocatorIcEEEEbxydS8_NS2_14adl_serializerENS0_IhNS8_IhEEEEvEENS8_ISF_EEE21__push_back_slow_pathIRKSF_EEPSF_OT_, symObjAddr: 0x19DE8, symBinAddr: 0x100024734, symSize: 0xE8 }
  - { offset: 0x6AC69, size: 0x8, addend: 0x0, symName: __ZNSt3__117__compressed_pairIPPN8nlohmann16json_abi_v3_11_310basic_jsonINS_3mapENS_6vectorENS_12basic_stringIcNS_11char_traitsIcEENS_9allocatorIcEEEEbxydS9_NS2_14adl_serializerENS5_IhNS9_IhEEEEvEENS9_ISG_EEE5firstB8ne180100Ev, symObjAddr: 0x19ED0, symBinAddr: 0x10002481C, symSize: 0x24 }
  - { offset: 0x6AC8F, size: 0x8, addend: 0x0, symName: __ZNSt3__122__compressed_pair_elemIPPN8nlohmann16json_abi_v3_11_310basic_jsonINS_3mapENS_6vectorENS_12basic_stringIcNS_11char_traitsIcEENS_9allocatorIcEEEEbxydS9_NS2_14adl_serializerENS5_IhNS9_IhEEEEvEELi0ELb0EE5__getB8ne180100Ev, symObjAddr: 0x19EF4, symBinAddr: 0x100024840, symSize: 0x14 }
  - { offset: 0x6ACD0, size: 0x8, addend: 0x0, symName: __ZNSt3__16vectorIPN8nlohmann16json_abi_v3_11_310basic_jsonINS_3mapES0_NS_12basic_stringIcNS_11char_traitsIcEENS_9allocatorIcEEEEbxydS8_NS2_14adl_serializerENS0_IhNS8_IhEEEEvEENS8_ISF_EEE21_ConstructTransactionC1B8ne180100ERSH_m, symObjAddr: 0x19F08, symBinAddr: 0x100024854, symSize: 0x3C }
  - { offset: 0x6AD18, size: 0x8, addend: 0x0, symName: __ZNSt3__116allocator_traitsINS_9allocatorIPN8nlohmann16json_abi_v3_11_310basic_jsonINS_3mapENS_6vectorENS_12basic_stringIcNS_11char_traitsIcEENS1_IcEEEEbxydS1_NS3_14adl_serializerENS6_IhNS1_IhEEEEvEEEEE9constructB8ne180100ISG_JRKSG_EvEEvRSH_PT_DpOT0_, symObjAddr: 0x19F44, symBinAddr: 0x100024890, symSize: 0x34 }
  - { offset: 0x6AD6F, size: 0x8, addend: 0x0, symName: __ZNSt3__16vectorIPN8nlohmann16json_abi_v3_11_310basic_jsonINS_3mapES0_NS_12basic_stringIcNS_11char_traitsIcEENS_9allocatorIcEEEEbxydS8_NS2_14adl_serializerENS0_IhNS8_IhEEEEvEENS8_ISF_EEE21_ConstructTransactionD1B8ne180100Ev, symObjAddr: 0x19F78, symBinAddr: 0x1000248C4, symSize: 0x2C }
  - { offset: 0x6AD99, size: 0x8, addend: 0x0, symName: __ZNSt3__16vectorIPN8nlohmann16json_abi_v3_11_310basic_jsonINS_3mapES0_NS_12basic_stringIcNS_11char_traitsIcEENS_9allocatorIcEEEEbxydS8_NS2_14adl_serializerENS0_IhNS8_IhEEEEvEENS8_ISF_EEE21_ConstructTransactionC2B8ne180100ERSH_m, symObjAddr: 0x19FA4, symBinAddr: 0x1000248F0, symSize: 0x44 }
  - { offset: 0x6ADE1, size: 0x8, addend: 0x0, symName: __ZNSt3__19allocatorIPN8nlohmann16json_abi_v3_11_310basic_jsonINS_3mapENS_6vectorENS_12basic_stringIcNS_11char_traitsIcEENS0_IcEEEEbxydS0_NS2_14adl_serializerENS5_IhNS0_IhEEEEvEEE9constructB8ne180100ISF_JRKSF_EEEvPT_DpOT0_, symObjAddr: 0x19FE8, symBinAddr: 0x100024934, symSize: 0x28 }
  - { offset: 0x6AE37, size: 0x8, addend: 0x0, symName: __ZNSt3__16vectorIPN8nlohmann16json_abi_v3_11_310basic_jsonINS_3mapES0_NS_12basic_stringIcNS_11char_traitsIcEENS_9allocatorIcEEEEbxydS8_NS2_14adl_serializerENS0_IhNS8_IhEEEEvEENS8_ISF_EEE21_ConstructTransactionD2B8ne180100Ev, symObjAddr: 0x1A010, symBinAddr: 0x10002495C, symSize: 0x20 }
  - { offset: 0x6AE61, size: 0x8, addend: 0x0, symName: __ZNKSt3__16vectorIPN8nlohmann16json_abi_v3_11_310basic_jsonINS_3mapES0_NS_12basic_stringIcNS_11char_traitsIcEENS_9allocatorIcEEEEbxydS8_NS2_14adl_serializerENS0_IhNS8_IhEEEEvEENS8_ISF_EEE11__recommendB8ne180100Em, symObjAddr: 0x1A030, symBinAddr: 0x10002497C, symSize: 0xB4 }
  - { offset: 0x6AEB6, size: 0x8, addend: 0x0, symName: __ZNSt3__114__split_bufferIPN8nlohmann16json_abi_v3_11_310basic_jsonINS_3mapENS_6vectorENS_12basic_stringIcNS_11char_traitsIcEENS_9allocatorIcEEEEbxydS9_NS2_14adl_serializerENS5_IhNS9_IhEEEEvEERNS9_ISG_EEEC1EmmSI_, symObjAddr: 0x1A0E4, symBinAddr: 0x100024A30, symSize: 0x44 }
  - { offset: 0x6AF0C, size: 0x8, addend: 0x0, symName: __ZNSt3__114__split_bufferIPN8nlohmann16json_abi_v3_11_310basic_jsonINS_3mapENS_6vectorENS_12basic_stringIcNS_11char_traitsIcEENS_9allocatorIcEEEEbxydS9_NS2_14adl_serializerENS5_IhNS9_IhEEEEvEERNS9_ISG_EEED1Ev, symObjAddr: 0x1A238, symBinAddr: 0x100024B84, symSize: 0x2C }
  - { offset: 0x6AF38, size: 0x8, addend: 0x0, symName: __ZNKSt3__16vectorIPN8nlohmann16json_abi_v3_11_310basic_jsonINS_3mapES0_NS_12basic_stringIcNS_11char_traitsIcEENS_9allocatorIcEEEEbxydS8_NS2_14adl_serializerENS0_IhNS8_IhEEEEvEENS8_ISF_EEE8max_sizeEv, symObjAddr: 0x1A264, symBinAddr: 0x100024BB0, symSize: 0x60 }
  - { offset: 0x6AF60, size: 0x8, addend: 0x0, symName: __ZNKSt3__16vectorIPN8nlohmann16json_abi_v3_11_310basic_jsonINS_3mapES0_NS_12basic_stringIcNS_11char_traitsIcEENS_9allocatorIcEEEEbxydS8_NS2_14adl_serializerENS0_IhNS8_IhEEEEvEENS8_ISF_EEE20__throw_length_errorB8ne180100Ev, symObjAddr: 0x1A2C4, symBinAddr: 0x100024C10, symSize: 0x1C }
  - { offset: 0x6AF91, size: 0x8, addend: 0x0, symName: __ZNSt3__116allocator_traitsINS_9allocatorIPN8nlohmann16json_abi_v3_11_310basic_jsonINS_3mapENS_6vectorENS_12basic_stringIcNS_11char_traitsIcEENS1_IcEEEEbxydS1_NS3_14adl_serializerENS6_IhNS1_IhEEEEvEEEEE8max_sizeB8ne180100ISH_vEEmRKSH_, symObjAddr: 0x1A2E0, symBinAddr: 0x100024C2C, symSize: 0x24 }
  - { offset: 0x6AFBF, size: 0x8, addend: 0x0, symName: __ZNKSt3__16vectorIPN8nlohmann16json_abi_v3_11_310basic_jsonINS_3mapES0_NS_12basic_stringIcNS_11char_traitsIcEENS_9allocatorIcEEEEbxydS8_NS2_14adl_serializerENS0_IhNS8_IhEEEEvEENS8_ISF_EEE7__allocB8ne180100Ev, symObjAddr: 0x1A304, symBinAddr: 0x100024C50, symSize: 0x28 }
  - { offset: 0x6AFE5, size: 0x8, addend: 0x0, symName: __ZNKSt3__19allocatorIPN8nlohmann16json_abi_v3_11_310basic_jsonINS_3mapENS_6vectorENS_12basic_stringIcNS_11char_traitsIcEENS0_IcEEEEbxydS0_NS2_14adl_serializerENS5_IhNS0_IhEEEEvEEE8max_sizeB8ne180100Ev, symObjAddr: 0x1A32C, symBinAddr: 0x100024C78, symSize: 0x14 }
  - { offset: 0x6B00B, size: 0x8, addend: 0x0, symName: __ZNKSt3__117__compressed_pairIPPN8nlohmann16json_abi_v3_11_310basic_jsonINS_3mapENS_6vectorENS_12basic_stringIcNS_11char_traitsIcEENS_9allocatorIcEEEEbxydS9_NS2_14adl_serializerENS5_IhNS9_IhEEEEvEENS9_ISG_EEE6secondB8ne180100Ev, symObjAddr: 0x1A340, symBinAddr: 0x100024C8C, symSize: 0x24 }
  - { offset: 0x6B031, size: 0x8, addend: 0x0, symName: __ZNKSt3__122__compressed_pair_elemINS_9allocatorIPN8nlohmann16json_abi_v3_11_310basic_jsonINS_3mapENS_6vectorENS_12basic_stringIcNS_11char_traitsIcEENS1_IcEEEEbxydS1_NS3_14adl_serializerENS6_IhNS1_IhEEEEvEEEELi1ELb1EE5__getB8ne180100Ev, symObjAddr: 0x1A364, symBinAddr: 0x100024CB0, symSize: 0x14 }
  - { offset: 0x6B057, size: 0x8, addend: 0x0, symName: __ZNSt3__114__split_bufferIPN8nlohmann16json_abi_v3_11_310basic_jsonINS_3mapENS_6vectorENS_12basic_stringIcNS_11char_traitsIcEENS_9allocatorIcEEEEbxydS9_NS2_14adl_serializerENS5_IhNS9_IhEEEEvEERNS9_ISG_EEEC2EmmSI_, symObjAddr: 0x1A378, symBinAddr: 0x100024CC4, symSize: 0xD4 }
  - { offset: 0x6B0CA, size: 0x8, addend: 0x0, symName: __ZNSt3__117__compressed_pairIPPN8nlohmann16json_abi_v3_11_310basic_jsonINS_3mapENS_6vectorENS_12basic_stringIcNS_11char_traitsIcEENS_9allocatorIcEEEEbxydS9_NS2_14adl_serializerENS5_IhNS9_IhEEEEvEERNS9_ISG_EEEC1B8ne180100IDnSJ_EEOT_OT0_, symObjAddr: 0x1A44C, symBinAddr: 0x100024D98, symSize: 0x3C }
  - { offset: 0x6B122, size: 0x8, addend: 0x0, symName: __ZNSt3__114__split_bufferIPN8nlohmann16json_abi_v3_11_310basic_jsonINS_3mapENS_6vectorENS_12basic_stringIcNS_11char_traitsIcEENS_9allocatorIcEEEEbxydS9_NS2_14adl_serializerENS5_IhNS9_IhEEEEvEERNS9_ISG_EEE7__allocB8ne180100Ev, symObjAddr: 0x1A4C8, symBinAddr: 0x100024E14, symSize: 0x28 }
  - { offset: 0x6B148, size: 0x8, addend: 0x0, symName: __ZNSt3__114__split_bufferIPN8nlohmann16json_abi_v3_11_310basic_jsonINS_3mapENS_6vectorENS_12basic_stringIcNS_11char_traitsIcEENS_9allocatorIcEEEEbxydS9_NS2_14adl_serializerENS5_IhNS9_IhEEEEvEERNS9_ISG_EEE9__end_capB8ne180100Ev, symObjAddr: 0x1A4F0, symBinAddr: 0x100024E3C, symSize: 0x28 }
  - { offset: 0x6B16E, size: 0x8, addend: 0x0, symName: __ZNSt3__117__compressed_pairIPPN8nlohmann16json_abi_v3_11_310basic_jsonINS_3mapENS_6vectorENS_12basic_stringIcNS_11char_traitsIcEENS_9allocatorIcEEEEbxydS9_NS2_14adl_serializerENS5_IhNS9_IhEEEEvEERNS9_ISG_EEEC2B8ne180100IDnSJ_EEOT_OT0_, symObjAddr: 0x1A518, symBinAddr: 0x100024E64, symSize: 0x48 }
  - { offset: 0x6B1C6, size: 0x8, addend: 0x0, symName: __ZNSt3__122__compressed_pair_elemIRNS_9allocatorIPN8nlohmann16json_abi_v3_11_310basic_jsonINS_3mapENS_6vectorENS_12basic_stringIcNS_11char_traitsIcEENS1_IcEEEEbxydS1_NS3_14adl_serializerENS6_IhNS1_IhEEEEvEEEELi1ELb0EEC2B8ne180100ISI_vEEOT_, symObjAddr: 0x1A560, symBinAddr: 0x100024EAC, symSize: 0x20 }
  - { offset: 0x6B208, size: 0x8, addend: 0x0, symName: __ZNSt3__19allocatorIPN8nlohmann16json_abi_v3_11_310basic_jsonINS_3mapENS_6vectorENS_12basic_stringIcNS_11char_traitsIcEENS0_IcEEEEbxydS0_NS2_14adl_serializerENS5_IhNS0_IhEEEEvEEE8allocateB8ne180100Em, symObjAddr: 0x1A580, symBinAddr: 0x100024ECC, symSize: 0x58 }
  - { offset: 0x6B23C, size: 0x8, addend: 0x0, symName: __ZNSt3__117__compressed_pairIPPN8nlohmann16json_abi_v3_11_310basic_jsonINS_3mapENS_6vectorENS_12basic_stringIcNS_11char_traitsIcEENS_9allocatorIcEEEEbxydS9_NS2_14adl_serializerENS5_IhNS9_IhEEEEvEERNS9_ISG_EEE6secondB8ne180100Ev, symObjAddr: 0x1A5D8, symBinAddr: 0x100024F24, symSize: 0x28 }
  - { offset: 0x6B262, size: 0x8, addend: 0x0, symName: __ZNSt3__122__compressed_pair_elemIRNS_9allocatorIPN8nlohmann16json_abi_v3_11_310basic_jsonINS_3mapENS_6vectorENS_12basic_stringIcNS_11char_traitsIcEENS1_IcEEEEbxydS1_NS3_14adl_serializerENS6_IhNS1_IhEEEEvEEEELi1ELb0EE5__getB8ne180100Ev, symObjAddr: 0x1A600, symBinAddr: 0x100024F4C, symSize: 0x18 }
  - { offset: 0x6B288, size: 0x8, addend: 0x0, symName: __ZNSt3__117__compressed_pairIPPN8nlohmann16json_abi_v3_11_310basic_jsonINS_3mapENS_6vectorENS_12basic_stringIcNS_11char_traitsIcEENS_9allocatorIcEEEEbxydS9_NS2_14adl_serializerENS5_IhNS9_IhEEEEvEERNS9_ISG_EEE5firstB8ne180100Ev, symObjAddr: 0x1A618, symBinAddr: 0x100024F64, symSize: 0x24 }
  - { offset: 0x6B2AE, size: 0x8, addend: 0x0, symName: __ZNSt3__116reverse_iteratorIPPN8nlohmann16json_abi_v3_11_310basic_jsonINS_3mapENS_6vectorENS_12basic_stringIcNS_11char_traitsIcEENS_9allocatorIcEEEEbxydS9_NS2_14adl_serializerENS5_IhNS9_IhEEEEvEEEC1B8ne180100ESH_, symObjAddr: 0x1A6B4, symBinAddr: 0x100025000, symSize: 0x34 }
  - { offset: 0x6B2E6, size: 0x8, addend: 0x0, symName: __ZNKSt3__116reverse_iteratorIPPN8nlohmann16json_abi_v3_11_310basic_jsonINS_3mapENS_6vectorENS_12basic_stringIcNS_11char_traitsIcEENS_9allocatorIcEEEEbxydS9_NS2_14adl_serializerENS5_IhNS9_IhEEEEvEEE4baseB8ne180100Ev, symObjAddr: 0x1A6E8, symBinAddr: 0x100025034, symSize: 0x18 }
  - { offset: 0x6B30C, size: 0x8, addend: 0x0, symName: __ZNKSt3__16vectorIPN8nlohmann16json_abi_v3_11_310basic_jsonINS_3mapES0_NS_12basic_stringIcNS_11char_traitsIcEENS_9allocatorIcEEEEbxydS8_NS2_14adl_serializerENS0_IhNS8_IhEEEEvEENS8_ISF_EEE14__annotate_newB8ne180100Em, symObjAddr: 0x1A73C, symBinAddr: 0x100025088, symSize: 0x14 }
  - { offset: 0x6B35D, size: 0x8, addend: 0x0, symName: __ZNKSt3__111__move_loopINS_17_ClassicAlgPolicyEEclB8ne180100INS_16reverse_iteratorIPPN8nlohmann16json_abi_v3_11_310basic_jsonINS_3mapENS_6vectorENS_12basic_stringIcNS_11char_traitsIcEENS_9allocatorIcEEEEbxydSD_NS6_14adl_serializerENS9_IhNSD_IhEEEEvEEEESM_SM_EENS_4pairIT_T1_EESO_T0_SP_, symObjAddr: 0x1AA40, symBinAddr: 0x10002538C, symSize: 0xA0 }
  - { offset: 0x6B3CE, size: 0x8, addend: 0x0, symName: __ZNSt3__18_IterOpsINS_17_ClassicAlgPolicyEE11__iter_moveB8ne180100IRNS_16reverse_iteratorIPPN8nlohmann16json_abi_v3_11_310basic_jsonINS_3mapENS_6vectorENS_12basic_stringIcNS_11char_traitsIcEENS_9allocatorIcEEEEbxydSD_NS6_14adl_serializerENS9_IhNSD_IhEEEEvEEEELi0EEEDTclsr3stdE4movedeclsr3stdE7declvalIRT_EEEEOSO_, symObjAddr: 0x1AC74, symBinAddr: 0x1000255C0, symSize: 0x28 }
  - { offset: 0x6B400, size: 0x8, addend: 0x0, symName: __ZNKSt3__116reverse_iteratorIPPN8nlohmann16json_abi_v3_11_310basic_jsonINS_3mapENS_6vectorENS_12basic_stringIcNS_11char_traitsIcEENS_9allocatorIcEEEEbxydS9_NS2_14adl_serializerENS5_IhNS9_IhEEEEvEEEdeB8ne180100Ev, symObjAddr: 0x1AC9C, symBinAddr: 0x1000255E8, symSize: 0x28 }
  - { offset: 0x6B435, size: 0x8, addend: 0x0, symName: __ZNSt3__116reverse_iteratorIPPN8nlohmann16json_abi_v3_11_310basic_jsonINS_3mapENS_6vectorENS_12basic_stringIcNS_11char_traitsIcEENS_9allocatorIcEEEEbxydS9_NS2_14adl_serializerENS5_IhNS9_IhEEEEvEEEppB8ne180100Ev, symObjAddr: 0x1ACC4, symBinAddr: 0x100025610, symSize: 0x20 }
  - { offset: 0x6B45B, size: 0x8, addend: 0x0, symName: __ZNSt3__18_IterOpsINS_17_ClassicAlgPolicyEE25__validate_iter_referenceB8ne180100IRNS_16reverse_iteratorIPPN8nlohmann16json_abi_v3_11_310basic_jsonINS_3mapENS_6vectorENS_12basic_stringIcNS_11char_traitsIcEENS_9allocatorIcEEEEbxydSD_NS6_14adl_serializerENS9_IhNSD_IhEEEEvEEEEEEvv, symObjAddr: 0x1ACE4, symBinAddr: 0x100025630, symSize: 0x4 }
  - { offset: 0x6B479, size: 0x8, addend: 0x0, symName: __ZNSt3__118__unwrap_iter_implINS_16reverse_iteratorIPPN8nlohmann16json_abi_v3_11_310basic_jsonINS_3mapENS_6vectorENS_12basic_stringIcNS_11char_traitsIcEENS_9allocatorIcEEEEbxydSA_NS3_14adl_serializerENS6_IhNSA_IhEEEEvEEEELb0EE8__unwrapB8ne180100ESJ_, symObjAddr: 0x1ACE8, symBinAddr: 0x100025634, symSize: 0x24 }
  - { offset: 0x6B4A2, size: 0x8, addend: 0x0, symName: __ZNSt3__14pairINS_16reverse_iteratorIPPN8nlohmann16json_abi_v3_11_310basic_jsonINS_3mapENS_6vectorENS_12basic_stringIcNS_11char_traitsIcEENS_9allocatorIcEEEEbxydSA_NS3_14adl_serializerENS6_IhNSA_IhEEEEvEEEESJ_EC1B8ne180100ISJ_SJ_Li0EEEOT_OT0_, symObjAddr: 0x1AD0C, symBinAddr: 0x100025658, symSize: 0x3C }
  - { offset: 0x6B500, size: 0x8, addend: 0x0, symName: __ZNSt3__14pairINS_16reverse_iteratorIPPN8nlohmann16json_abi_v3_11_310basic_jsonINS_3mapENS_6vectorENS_12basic_stringIcNS_11char_traitsIcEENS_9allocatorIcEEEEbxydSA_NS3_14adl_serializerENS6_IhNSA_IhEEEEvEEEESJ_EC2B8ne180100ISJ_SJ_Li0EEEOT_OT0_, symObjAddr: 0x1AD48, symBinAddr: 0x100025694, symSize: 0x34 }
  - { offset: 0x6B55E, size: 0x8, addend: 0x0, symName: __ZNSt3__118__unwrap_iter_implINS_16reverse_iteratorIPPN8nlohmann16json_abi_v3_11_310basic_jsonINS_3mapENS_6vectorENS_12basic_stringIcNS_11char_traitsIcEENS_9allocatorIcEEEEbxydSA_NS3_14adl_serializerENS6_IhNSA_IhEEEEvEEEELb0EE8__rewrapB8ne180100ESJ_SJ_, symObjAddr: 0x1AD7C, symBinAddr: 0x1000256C8, symSize: 0x2C }
  - { offset: 0x6B58C, size: 0x8, addend: 0x0, symName: __ZNSt3__116reverse_iteratorIPPN8nlohmann16json_abi_v3_11_310basic_jsonINS_3mapENS_6vectorENS_12basic_stringIcNS_11char_traitsIcEENS_9allocatorIcEEEEbxydS9_NS2_14adl_serializerENS5_IhNS9_IhEEEEvEEEC2B8ne180100ESH_, symObjAddr: 0x1ADA8, symBinAddr: 0x1000256F4, symSize: 0x28 }
  - { offset: 0x6B5C4, size: 0x8, addend: 0x0, symName: __ZNSt3__114__split_bufferIPN8nlohmann16json_abi_v3_11_310basic_jsonINS_3mapENS_6vectorENS_12basic_stringIcNS_11char_traitsIcEENS_9allocatorIcEEEEbxydS9_NS2_14adl_serializerENS5_IhNS9_IhEEEEvEERNS9_ISG_EEED2Ev, symObjAddr: 0x1ADD0, symBinAddr: 0x10002571C, symSize: 0x8C }
  - { offset: 0x6B5F0, size: 0x8, addend: 0x0, symName: __ZNSt3__114__split_bufferIPN8nlohmann16json_abi_v3_11_310basic_jsonINS_3mapENS_6vectorENS_12basic_stringIcNS_11char_traitsIcEENS_9allocatorIcEEEEbxydS9_NS2_14adl_serializerENS5_IhNS9_IhEEEEvEERNS9_ISG_EEE5clearB8ne180100Ev, symObjAddr: 0x1AE5C, symBinAddr: 0x1000257A8, symSize: 0x28 }
  - { offset: 0x6B616, size: 0x8, addend: 0x0, symName: __ZNKSt3__114__split_bufferIPN8nlohmann16json_abi_v3_11_310basic_jsonINS_3mapENS_6vectorENS_12basic_stringIcNS_11char_traitsIcEENS_9allocatorIcEEEEbxydS9_NS2_14adl_serializerENS5_IhNS9_IhEEEEvEERNS9_ISG_EEE8capacityB8ne180100Ev, symObjAddr: 0x1AE84, symBinAddr: 0x1000257D0, symSize: 0x40 }
  - { offset: 0x6B63C, size: 0x8, addend: 0x0, symName: __ZNSt3__114__split_bufferIPN8nlohmann16json_abi_v3_11_310basic_jsonINS_3mapENS_6vectorENS_12basic_stringIcNS_11char_traitsIcEENS_9allocatorIcEEEEbxydS9_NS2_14adl_serializerENS5_IhNS9_IhEEEEvEERNS9_ISG_EEE17__destruct_at_endB8ne180100EPSG_, symObjAddr: 0x1AEC4, symBinAddr: 0x100025810, symSize: 0x2C }
  - { offset: 0x6B670, size: 0x8, addend: 0x0, symName: __ZNSt3__114__split_bufferIPN8nlohmann16json_abi_v3_11_310basic_jsonINS_3mapENS_6vectorENS_12basic_stringIcNS_11char_traitsIcEENS_9allocatorIcEEEEbxydS9_NS2_14adl_serializerENS5_IhNS9_IhEEEEvEERNS9_ISG_EEE17__destruct_at_endB8ne180100EPSG_NS_17integral_constantIbLb0EEE, symObjAddr: 0x1AEF0, symBinAddr: 0x10002583C, symSize: 0x80 }
  - { offset: 0x6B6B1, size: 0x8, addend: 0x0, symName: __ZNKSt3__114__split_bufferIPN8nlohmann16json_abi_v3_11_310basic_jsonINS_3mapENS_6vectorENS_12basic_stringIcNS_11char_traitsIcEENS_9allocatorIcEEEEbxydS9_NS2_14adl_serializerENS5_IhNS9_IhEEEEvEERNS9_ISG_EEE9__end_capB8ne180100Ev, symObjAddr: 0x1AF70, symBinAddr: 0x1000258BC, symSize: 0x28 }
  - { offset: 0x6B6D7, size: 0x8, addend: 0x0, symName: __ZNKSt3__117__compressed_pairIPPN8nlohmann16json_abi_v3_11_310basic_jsonINS_3mapENS_6vectorENS_12basic_stringIcNS_11char_traitsIcEENS_9allocatorIcEEEEbxydS9_NS2_14adl_serializerENS5_IhNS9_IhEEEEvEERNS9_ISG_EEE5firstB8ne180100Ev, symObjAddr: 0x1AF98, symBinAddr: 0x1000258E4, symSize: 0x24 }
  - { offset: 0x6B6FD, size: 0x8, addend: 0x0, symName: __ZNKSt3__13mapINS_12basic_stringIcNS_11char_traitsIcEENS_9allocatorIcEEEEN8nlohmann16json_abi_v3_11_310basic_jsonIS0_NS_6vectorES6_bxydS4_NS8_14adl_serializerENSA_IhNS4_IhEEEEvEENS_4lessIvEENS4_INS_4pairIKS6_SE_EEEEE8max_sizeB8ne180100Ev, symObjAddr: 0x1AFBC, symBinAddr: 0x100025908, symSize: 0x24 }
  - { offset: 0x6B723, size: 0x8, addend: 0x0, symName: __ZNK8nlohmann16json_abi_v3_11_310basic_jsonINSt3__13mapENS2_6vectorENS2_12basic_stringIcNS2_11char_traitsIcEENS2_9allocatorIcEEEEbxydS8_NS0_14adl_serializerENS4_IhNS8_IhEEEEvE4sizeEv, symObjAddr: 0x1AFE0, symBinAddr: 0x10002592C, symSize: 0xA4 }
  - { offset: 0x6B749, size: 0x8, addend: 0x0, symName: __ZNKSt3__16__treeINS_12__value_typeINS_12basic_stringIcNS_11char_traitsIcEENS_9allocatorIcEEEEN8nlohmann16json_abi_v3_11_310basic_jsonINS_3mapENS_6vectorES7_bxydS5_NS9_14adl_serializerENSC_IhNS5_IhEEEEvEEEENS_19__map_value_compareIS7_SH_NS_4lessIvEELb1EEENS5_ISH_EEE8max_sizeB8ne180100Ev, symObjAddr: 0x1B0AC, symBinAddr: 0x1000259F8, symSize: 0x60 }
  - { offset: 0x6B77A, size: 0x8, addend: 0x0, symName: __ZNSt3__116allocator_traitsINS_9allocatorINS_11__tree_nodeINS_12__value_typeINS_12basic_stringIcNS_11char_traitsIcEENS1_IcEEEEN8nlohmann16json_abi_v3_11_310basic_jsonINS_3mapENS_6vectorES8_bxydS1_NSA_14adl_serializerENSD_IhNS1_IhEEEEvEEEEPvEEEEE8max_sizeB8ne180100ISL_vEEmRKSL_, symObjAddr: 0x1B10C, symBinAddr: 0x100025A58, symSize: 0x24 }
  - { offset: 0x6B7A8, size: 0x8, addend: 0x0, symName: __ZNKSt3__16__treeINS_12__value_typeINS_12basic_stringIcNS_11char_traitsIcEENS_9allocatorIcEEEEN8nlohmann16json_abi_v3_11_310basic_jsonINS_3mapENS_6vectorES7_bxydS5_NS9_14adl_serializerENSC_IhNS5_IhEEEEvEEEENS_19__map_value_compareIS7_SH_NS_4lessIvEELb1EEENS5_ISH_EEE12__node_allocB8ne180100Ev, symObjAddr: 0x1B130, symBinAddr: 0x100025A7C, symSize: 0x28 }
  - { offset: 0x6B7CE, size: 0x8, addend: 0x0, symName: __ZNKSt3__19allocatorINS_11__tree_nodeINS_12__value_typeINS_12basic_stringIcNS_11char_traitsIcEENS0_IcEEEEN8nlohmann16json_abi_v3_11_310basic_jsonINS_3mapENS_6vectorES7_bxydS0_NS9_14adl_serializerENSC_IhNS0_IhEEEEvEEEEPvEEE8max_sizeB8ne180100Ev, symObjAddr: 0x1B158, symBinAddr: 0x100025AA4, symSize: 0x20 }
  - { offset: 0x6B7F4, size: 0x8, addend: 0x0, symName: __ZNKSt3__117__compressed_pairINS_15__tree_end_nodeIPNS_16__tree_node_baseIPvEEEENS_9allocatorINS_11__tree_nodeINS_12__value_typeINS_12basic_stringIcNS_11char_traitsIcEENS7_IcEEEEN8nlohmann16json_abi_v3_11_310basic_jsonINS_3mapENS_6vectorESE_bxydS7_NSG_14adl_serializerENSJ_IhNS7_IhEEEEvEEEES3_EEEEE6secondB8ne180100Ev, symObjAddr: 0x1B178, symBinAddr: 0x100025AC4, symSize: 0x24 }
  - { offset: 0x6B81A, size: 0x8, addend: 0x0, symName: __ZNKSt3__122__compressed_pair_elemINS_9allocatorINS_11__tree_nodeINS_12__value_typeINS_12basic_stringIcNS_11char_traitsIcEENS1_IcEEEEN8nlohmann16json_abi_v3_11_310basic_jsonINS_3mapENS_6vectorES8_bxydS1_NSA_14adl_serializerENSD_IhNS1_IhEEEEvEEEEPvEEEELi1ELb1EE5__getB8ne180100Ev, symObjAddr: 0x1B19C, symBinAddr: 0x100025AE8, symSize: 0x14 }
  - { offset: 0x6B840, size: 0x8, addend: 0x0, symName: __ZN8nlohmann16json_abi_v3_11_36detail9exception11diagnosticsINS0_10basic_jsonINSt3__13mapENS5_6vectorENS5_12basic_stringIcNS5_11char_traitsIcEENS5_9allocatorIcEEEEbxydSB_NS0_14adl_serializerENS7_IhNSB_IhEEEEvEEEESD_PKT_, symObjAddr: 0x1B1B0, symBinAddr: 0x100025AFC, symSize: 0x3C }
  - { offset: 0x6B86C, size: 0x8, addend: 0x0, symName: __ZN8nlohmann16json_abi_v3_11_36detail12out_of_rangeC1EiPKc, symObjAddr: 0x1B1EC, symBinAddr: 0x100025B38, symSize: 0x3C }
  - { offset: 0x6B8B2, size: 0x8, addend: 0x0, symName: __ZN8nlohmann16json_abi_v3_11_36detail12out_of_rangeC2EiPKc, symObjAddr: 0x1B228, symBinAddr: 0x100025B74, symSize: 0x4C }
  - { offset: 0x6B8F8, size: 0x8, addend: 0x0, symName: __ZN8nlohmann16json_abi_v3_11_36detail12out_of_rangeD0Ev, symObjAddr: 0x1B274, symBinAddr: 0x100025BC0, symSize: 0x30 }
  - { offset: 0x6B924, size: 0x8, addend: 0x0, symName: __ZN8nlohmann16json_abi_v3_11_310basic_jsonINSt3__13mapENS2_6vectorENS2_12basic_stringIcNS2_11char_traitsIcEENS2_9allocatorIcEEEEbxydS8_NS0_14adl_serializerENS4_IhNS8_IhEEEEvEC1ERKSE_, symObjAddr: 0x1B354, symBinAddr: 0x100025CA0, symSize: 0x34 }
  - { offset: 0x6B95D, size: 0x8, addend: 0x0, symName: __ZNSt3__16vectorIPN8nlohmann16json_abi_v3_11_310basic_jsonINS_3mapES0_NS_12basic_stringIcNS_11char_traitsIcEENS_9allocatorIcEEEEbxydS8_NS2_14adl_serializerENS0_IhNS8_IhEEEEvEENS8_ISF_EEE8pop_backEv, symObjAddr: 0x1B388, symBinAddr: 0x100025CD4, symSize: 0x2C }
  - { offset: 0x6B985, size: 0x8, addend: 0x0, symName: __ZNK8nlohmann16json_abi_v3_11_310basic_jsonINSt3__13mapENS2_6vectorENS2_12basic_stringIcNS2_11char_traitsIcEENS2_9allocatorIcEEEEbxydS8_NS0_14adl_serializerENS4_IhNS8_IhEEEEvE13is_structuredEv, symObjAddr: 0x1B3B4, symBinAddr: 0x100025D00, symSize: 0x50 }
  - { offset: 0x6B9AB, size: 0x8, addend: 0x0, symName: __ZNK8nlohmann16json_abi_v3_11_36detail9iter_implINS0_10basic_jsonINSt3__13mapENS4_6vectorENS4_12basic_stringIcNS4_11char_traitsIcEENS4_9allocatorIcEEEEbxydSA_NS0_14adl_serializerENS6_IhNSA_IhEEEEvEEEptEv, symObjAddr: 0x1B404, symBinAddr: 0x100025D50, symSize: 0x270 }
  - { offset: 0x6B9D1, size: 0x8, addend: 0x0, symName: __ZN8nlohmann16json_abi_v3_11_310basic_jsonINSt3__13mapENS2_6vectorENS2_12basic_stringIcNS2_11char_traitsIcEENS2_9allocatorIcEEEEbxydS8_NS0_14adl_serializerENS4_IhNS8_IhEEEEvE5eraseINS0_6detail9iter_implISE_EELi0EEET_SJ_, symObjAddr: 0x1B69C, symBinAddr: 0x100025FE8, symSize: 0x430 }
  - { offset: 0x6BA62, size: 0x8, addend: 0x0, symName: __ZN8nlohmann16json_abi_v3_11_36detail9iter_implINS0_10basic_jsonINSt3__13mapENS4_6vectorENS4_12basic_stringIcNS4_11char_traitsIcEENS4_9allocatorIcEEEEbxydSA_NS0_14adl_serializerENS6_IhNSA_IhEEEEvEEEC1ERKSH_, symObjAddr: 0x1BAF4, symBinAddr: 0x100026440, symSize: 0x34 }
  - { offset: 0x6BA9A, size: 0x8, addend: 0x0, symName: __ZN8nlohmann16json_abi_v3_11_310basic_jsonINSt3__13mapENS2_6vectorENS2_12basic_stringIcNS2_11char_traitsIcEENS2_9allocatorIcEEEEbxydS8_NS0_14adl_serializerENS4_IhNS8_IhEEEEvEC2ERKSE_, symObjAddr: 0x1BB28, symBinAddr: 0x100026474, symSize: 0x1F8 }
  - { offset: 0x6BAD3, size: 0x8, addend: 0x0, symName: __ZN8nlohmann16json_abi_v3_11_310basic_jsonINSt3__13mapENS2_6vectorENS2_12basic_stringIcNS2_11char_traitsIcEENS2_9allocatorIcEEEEbxydS8_NS0_14adl_serializerENS4_IhNS8_IhEEEEvE4dataC1Ev, symObjAddr: 0x1BD48, symBinAddr: 0x100026694, symSize: 0x2C }
  - { offset: 0x6BAFD, size: 0x8, addend: 0x0, symName: __ZN8nlohmann16json_abi_v3_11_310basic_jsonINSt3__13mapENS2_6vectorENS2_12basic_stringIcNS2_11char_traitsIcEENS2_9allocatorIcEEEEbxydS8_NS0_14adl_serializerENS4_IhNS8_IhEEEEvE10json_valueC1ERKNS3_ISA_SE_NS2_4lessIvEENS8_INS2_4pairIKSA_SE_EEEEEE, symObjAddr: 0x1BD74, symBinAddr: 0x1000266C0, symSize: 0x34 }
  - { offset: 0x6BB36, size: 0x8, addend: 0x0, symName: __ZN8nlohmann16json_abi_v3_11_310basic_jsonINSt3__13mapENS2_6vectorENS2_12basic_stringIcNS2_11char_traitsIcEENS2_9allocatorIcEEEEbxydS8_NS0_14adl_serializerENS4_IhNS8_IhEEEEvE10json_valueC1ERKNS4_ISE_NS8_ISE_EEEE, symObjAddr: 0x1BDA8, symBinAddr: 0x1000266F4, symSize: 0x34 }
  - { offset: 0x6BB6F, size: 0x8, addend: 0x0, symName: __ZN8nlohmann16json_abi_v3_11_310basic_jsonINSt3__13mapENS2_6vectorENS2_12basic_stringIcNS2_11char_traitsIcEENS2_9allocatorIcEEEEbxydS8_NS0_14adl_serializerENS4_IhNS8_IhEEEEvE10json_valueC1ERKSA_, symObjAddr: 0x1BDDC, symBinAddr: 0x100026728, symSize: 0x34 }
  - { offset: 0x6BBA8, size: 0x8, addend: 0x0, symName: __ZN8nlohmann16json_abi_v3_11_310basic_jsonINSt3__13mapENS2_6vectorENS2_12basic_stringIcNS2_11char_traitsIcEENS2_9allocatorIcEEEEbxydS8_NS0_14adl_serializerENS4_IhNS8_IhEEEEvE10json_valueC1Eb, symObjAddr: 0x1BE10, symBinAddr: 0x10002675C, symSize: 0x40 }
  - { offset: 0x6BBE1, size: 0x8, addend: 0x0, symName: __ZN8nlohmann16json_abi_v3_11_310basic_jsonINSt3__13mapENS2_6vectorENS2_12basic_stringIcNS2_11char_traitsIcEENS2_9allocatorIcEEEEbxydS8_NS0_14adl_serializerENS4_IhNS8_IhEEEEvE10json_valueC1Ex, symObjAddr: 0x1BE50, symBinAddr: 0x10002679C, symSize: 0x34 }
  - { offset: 0x6BC1A, size: 0x8, addend: 0x0, symName: __ZN8nlohmann16json_abi_v3_11_310basic_jsonINSt3__13mapENS2_6vectorENS2_12basic_stringIcNS2_11char_traitsIcEENS2_9allocatorIcEEEEbxydS8_NS0_14adl_serializerENS4_IhNS8_IhEEEEvE10json_valueC1Ey, symObjAddr: 0x1BE84, symBinAddr: 0x1000267D0, symSize: 0x34 }
  - { offset: 0x6BC53, size: 0x8, addend: 0x0, symName: __ZN8nlohmann16json_abi_v3_11_310basic_jsonINSt3__13mapENS2_6vectorENS2_12basic_stringIcNS2_11char_traitsIcEENS2_9allocatorIcEEEEbxydS8_NS0_14adl_serializerENS4_IhNS8_IhEEEEvE10json_valueC1Ed, symObjAddr: 0x1BEB8, symBinAddr: 0x100026804, symSize: 0x34 }
  - { offset: 0x6BC8C, size: 0x8, addend: 0x0, symName: __ZN8nlohmann16json_abi_v3_11_310basic_jsonINSt3__13mapENS2_6vectorENS2_12basic_stringIcNS2_11char_traitsIcEENS2_9allocatorIcEEEEbxydS8_NS0_14adl_serializerENS4_IhNS8_IhEEEEvE10json_valueC1ERKNS0_27byte_container_with_subtypeISD_EE, symObjAddr: 0x1BEEC, symBinAddr: 0x100026838, symSize: 0x34 }
  - { offset: 0x6BCC5, size: 0x8, addend: 0x0, symName: __ZN8nlohmann16json_abi_v3_11_310basic_jsonINSt3__13mapENS2_6vectorENS2_12basic_stringIcNS2_11char_traitsIcEENS2_9allocatorIcEEEEbxydS8_NS0_14adl_serializerENS4_IhNS8_IhEEEEvE4dataC2Ev, symObjAddr: 0x1BF20, symBinAddr: 0x10002686C, symSize: 0x1C }
  - { offset: 0x6BCEF, size: 0x8, addend: 0x0, symName: __ZN8nlohmann16json_abi_v3_11_310basic_jsonINSt3__13mapENS2_6vectorENS2_12basic_stringIcNS2_11char_traitsIcEENS2_9allocatorIcEEEEbxydS8_NS0_14adl_serializerENS4_IhNS8_IhEEEEvE10json_valueC2ERKNS3_ISA_SE_NS2_4lessIvEENS8_INS2_4pairIKSA_SE_EEEEEE, symObjAddr: 0x1BF3C, symBinAddr: 0x100026888, symSize: 0x3C }
  - { offset: 0x6BD28, size: 0x8, addend: 0x0, symName: __ZN8nlohmann16json_abi_v3_11_310basic_jsonINSt3__13mapENS2_6vectorENS2_12basic_stringIcNS2_11char_traitsIcEENS2_9allocatorIcEEEEbxydS8_NS0_14adl_serializerENS4_IhNS8_IhEEEEvE6createINS3_ISA_SE_NS2_4lessIvEENS8_INS2_4pairIKSA_SE_EEEEEEJRKSM_EEEPT_DpOT0_, symObjAddr: 0x1BF78, symBinAddr: 0x1000268C4, symSize: 0xF4 }
  - { offset: 0x6BE21, size: 0x8, addend: 0x0, symName: __ZNSt3__110unique_ptrINS_3mapINS_12basic_stringIcNS_11char_traitsIcEENS_9allocatorIcEEEEN8nlohmann16json_abi_v3_11_310basic_jsonIS1_NS_6vectorES7_bxydS5_NS9_14adl_serializerENSB_IhNS5_IhEEEEvEENS_4lessIvEENS5_INS_4pairIKS7_SF_EEEEEEZNSF_6createISM_JRKSM_EEEPT_DpOT0_EUlPSM_E_EC1B8ne180100ILb1EvEESV_NS_16__dependent_typeINS_27__unique_ptr_deleter_sfinaeISW_EEXT_EE15__lval_ref_typeE, symObjAddr: 0x1C06C, symBinAddr: 0x1000269B8, symSize: 0x3C }
  - { offset: 0x6BE72, size: 0x8, addend: 0x0, symName: __ZNSt3__116allocator_traitsINS_9allocatorINS_3mapINS_12basic_stringIcNS_11char_traitsIcEENS1_IcEEEEN8nlohmann16json_abi_v3_11_310basic_jsonIS2_NS_6vectorES7_bxydS1_NS9_14adl_serializerENSB_IhNS1_IhEEEEvEENS_4lessIvEENS1_INS_4pairIKS7_SF_EEEEEEEEE9constructB8ne180100ISM_JRKSM_EvEEvRSN_PT_DpOT0_, symObjAddr: 0x1C0A8, symBinAddr: 0x1000269F4, symSize: 0x34 }
  - { offset: 0x6BEC9, size: 0x8, addend: 0x0, symName: __ZNKSt3__110unique_ptrINS_3mapINS_12basic_stringIcNS_11char_traitsIcEENS_9allocatorIcEEEEN8nlohmann16json_abi_v3_11_310basic_jsonIS1_NS_6vectorES7_bxydS5_NS9_14adl_serializerENSB_IhNS5_IhEEEEvEENS_4lessIvEENS5_INS_4pairIKS7_SF_EEEEEEZNSF_6createISM_JRKSM_EEEPT_DpOT0_EUlPSM_E_E3getB8ne180100Ev, symObjAddr: 0x1C0DC, symBinAddr: 0x100026A28, symSize: 0x28 }
  - { offset: 0x6BEEF, size: 0x8, addend: 0x0, symName: __ZNSt3__110unique_ptrINS_3mapINS_12basic_stringIcNS_11char_traitsIcEENS_9allocatorIcEEEEN8nlohmann16json_abi_v3_11_310basic_jsonIS1_NS_6vectorES7_bxydS5_NS9_14adl_serializerENSB_IhNS5_IhEEEEvEENS_4lessIvEENS5_INS_4pairIKS7_SF_EEEEEEZNSF_6createISM_JRKSM_EEEPT_DpOT0_EUlPSM_E_E7releaseB8ne180100Ev, symObjAddr: 0x1C130, symBinAddr: 0x100026A7C, symSize: 0x44 }
  - { offset: 0x6BF24, size: 0x8, addend: 0x0, symName: __ZNSt3__110unique_ptrINS_3mapINS_12basic_stringIcNS_11char_traitsIcEENS_9allocatorIcEEEEN8nlohmann16json_abi_v3_11_310basic_jsonIS1_NS_6vectorES7_bxydS5_NS9_14adl_serializerENSB_IhNS5_IhEEEEvEENS_4lessIvEENS5_INS_4pairIKS7_SF_EEEEEEZNSF_6createISM_JRKSM_EEEPT_DpOT0_EUlPSM_E_ED1B8ne180100Ev, symObjAddr: 0x1C174, symBinAddr: 0x100026AC0, symSize: 0x2C }
  - { offset: 0x6BF4E, size: 0x8, addend: 0x0, symName: __ZNSt3__110unique_ptrINS_3mapINS_12basic_stringIcNS_11char_traitsIcEENS_9allocatorIcEEEEN8nlohmann16json_abi_v3_11_310basic_jsonIS1_NS_6vectorES7_bxydS5_NS9_14adl_serializerENSB_IhNS5_IhEEEEvEENS_4lessIvEENS5_INS_4pairIKS7_SF_EEEEEEZNSF_6createISM_JRKSM_EEEPT_DpOT0_EUlPSM_E_EC2B8ne180100ILb1EvEESV_NS_16__dependent_typeINS_27__unique_ptr_deleter_sfinaeISW_EEXT_EE15__lval_ref_typeE, symObjAddr: 0x1C1A0, symBinAddr: 0x100026AEC, symSize: 0x48 }
  - { offset: 0x6BF9F, size: 0x8, addend: 0x0, symName: __ZNSt3__117__compressed_pairIPNS_3mapINS_12basic_stringIcNS_11char_traitsIcEENS_9allocatorIcEEEEN8nlohmann16json_abi_v3_11_310basic_jsonIS1_NS_6vectorES7_bxydS5_NS9_14adl_serializerENSB_IhNS5_IhEEEEvEENS_4lessIvEENS5_INS_4pairIKS7_SF_EEEEEEZNSF_6createISM_JRKSM_EEEPT_DpOT0_EUlSN_E_EC1B8ne180100IRSN_RKSW_EEOSR_OT0_, symObjAddr: 0x1C1E8, symBinAddr: 0x100026B34, symSize: 0x3C }
  - { offset: 0x6BFF7, size: 0x8, addend: 0x0, symName: __ZNSt3__117__compressed_pairIPNS_3mapINS_12basic_stringIcNS_11char_traitsIcEENS_9allocatorIcEEEEN8nlohmann16json_abi_v3_11_310basic_jsonIS1_NS_6vectorES7_bxydS5_NS9_14adl_serializerENSB_IhNS5_IhEEEEvEENS_4lessIvEENS5_INS_4pairIKS7_SF_EEEEEEZNSF_6createISM_JRKSM_EEEPT_DpOT0_EUlSN_E_EC2B8ne180100IRSN_RKSW_EEOSR_OT0_, symObjAddr: 0x1C224, symBinAddr: 0x100026B70, symSize: 0x48 }
  - { offset: 0x6C04F, size: 0x8, addend: 0x0, symName: __ZNSt3__122__compressed_pair_elemIZN8nlohmann16json_abi_v3_11_310basic_jsonINS_3mapENS_6vectorENS_12basic_stringIcNS_11char_traitsIcEENS_9allocatorIcEEEEbxydS9_NS2_14adl_serializerENS5_IhNS9_IhEEEEvE6createINS4_ISB_SF_NS_4lessIvEENS9_INS_4pairIKSB_SF_EEEEEEJRKSN_EEEPT_DpOT0_EUlPSN_E_Li1ELb0EEC2B8ne180100IRKSW_vEEOSQ_, symObjAddr: 0x1C26C, symBinAddr: 0x100026BB8, symSize: 0x24 }
  - { offset: 0x6C091, size: 0x8, addend: 0x0, symName: __ZNSt3__19allocatorINS_3mapINS_12basic_stringIcNS_11char_traitsIcEENS0_IcEEEEN8nlohmann16json_abi_v3_11_310basic_jsonIS1_NS_6vectorES6_bxydS0_NS8_14adl_serializerENSA_IhNS0_IhEEEEvEENS_4lessIvEENS0_INS_4pairIKS6_SE_EEEEEEE9constructB8ne180100ISL_JRKSL_EEEvPT_DpOT0_, symObjAddr: 0x1C290, symBinAddr: 0x100026BDC, symSize: 0x30 }
  - { offset: 0x6C0E7, size: 0x8, addend: 0x0, symName: __ZNSt3__13mapINS_12basic_stringIcNS_11char_traitsIcEENS_9allocatorIcEEEEN8nlohmann16json_abi_v3_11_310basic_jsonIS0_NS_6vectorES6_bxydS4_NS8_14adl_serializerENSA_IhNS4_IhEEEEvEENS_4lessIvEENS4_INS_4pairIKS6_SE_EEEEEC1B8ne180100ERKSL_, symObjAddr: 0x1C2C0, symBinAddr: 0x100026C0C, symSize: 0x34 }
  - { offset: 0x6C120, size: 0x8, addend: 0x0, symName: __ZNSt3__13mapINS_12basic_stringIcNS_11char_traitsIcEENS_9allocatorIcEEEEN8nlohmann16json_abi_v3_11_310basic_jsonIS0_NS_6vectorES6_bxydS4_NS8_14adl_serializerENSA_IhNS4_IhEEEEvEENS_4lessIvEENS4_INS_4pairIKS6_SE_EEEEEC2B8ne180100ERKSL_, symObjAddr: 0x1C2F4, symBinAddr: 0x100026C40, symSize: 0x88 }
  - { offset: 0x6C159, size: 0x8, addend: 0x0, symName: __ZNSt3__16__treeINS_12__value_typeINS_12basic_stringIcNS_11char_traitsIcEENS_9allocatorIcEEEEN8nlohmann16json_abi_v3_11_310basic_jsonINS_3mapENS_6vectorES7_bxydS5_NS9_14adl_serializerENSC_IhNS5_IhEEEEvEEEENS_19__map_value_compareIS7_SH_NS_4lessIvEELb1EEENS5_ISH_EEEC1ERKSN_, symObjAddr: 0x1C37C, symBinAddr: 0x100026CC8, symSize: 0x34 }
  - { offset: 0x6C194, size: 0x8, addend: 0x0, symName: __ZNSt3__13mapINS_12basic_stringIcNS_11char_traitsIcEENS_9allocatorIcEEEEN8nlohmann16json_abi_v3_11_310basic_jsonIS0_NS_6vectorES6_bxydS4_NS8_14adl_serializerENSA_IhNS4_IhEEEEvEENS_4lessIvEENS4_INS_4pairIKS6_SE_EEEEE6insertB8ne180100INS_20__map_const_iteratorINS_21__tree_const_iteratorINS_12__value_typeIS6_SE_EEPNS_11__tree_nodeISQ_PvEElEEEEEEvT_SX_, symObjAddr: 0x1C3B0, symBinAddr: 0x100026CFC, symSize: 0x8C }
  - { offset: 0x6C1FE, size: 0x8, addend: 0x0, symName: __ZNKSt3__13mapINS_12basic_stringIcNS_11char_traitsIcEENS_9allocatorIcEEEEN8nlohmann16json_abi_v3_11_310basic_jsonIS0_NS_6vectorES6_bxydS4_NS8_14adl_serializerENSA_IhNS4_IhEEEEvEENS_4lessIvEENS4_INS_4pairIKS6_SE_EEEEE5beginB8ne180100Ev, symObjAddr: 0x1C43C, symBinAddr: 0x100026D88, symSize: 0x38 }
  - { offset: 0x6C224, size: 0x8, addend: 0x0, symName: __ZNKSt3__13mapINS_12basic_stringIcNS_11char_traitsIcEENS_9allocatorIcEEEEN8nlohmann16json_abi_v3_11_310basic_jsonIS0_NS_6vectorES6_bxydS4_NS8_14adl_serializerENSA_IhNS4_IhEEEEvEENS_4lessIvEENS4_INS_4pairIKS6_SE_EEEEE3endB8ne180100Ev, symObjAddr: 0x1C474, symBinAddr: 0x100026DC0, symSize: 0x38 }
  - { offset: 0x6C24A, size: 0x8, addend: 0x0, symName: __ZNSt3__16__treeINS_12__value_typeINS_12basic_stringIcNS_11char_traitsIcEENS_9allocatorIcEEEEN8nlohmann16json_abi_v3_11_310basic_jsonINS_3mapENS_6vectorES7_bxydS5_NS9_14adl_serializerENSC_IhNS5_IhEEEEvEEEENS_19__map_value_compareIS7_SH_NS_4lessIvEELb1EEENS5_ISH_EEEC2ERKSN_, symObjAddr: 0x1C4AC, symBinAddr: 0x100026DF8, symSize: 0x9C }
  - { offset: 0x6C285, size: 0x8, addend: 0x0, symName: __ZNSt3__116allocator_traitsINS_9allocatorINS_11__tree_nodeINS_12__value_typeINS_12basic_stringIcNS_11char_traitsIcEENS1_IcEEEEN8nlohmann16json_abi_v3_11_310basic_jsonINS_3mapENS_6vectorES8_bxydS1_NSA_14adl_serializerENSD_IhNS1_IhEEEEvEEEEPvEEEEE37select_on_container_copy_constructionB8ne180100ISL_vvEESL_RKSL_, symObjAddr: 0x1C548, symBinAddr: 0x100026E94, symSize: 0x10 }
  - { offset: 0x6C2BA, size: 0x8, addend: 0x0, symName: __ZNSt3__117__compressed_pairINS_15__tree_end_nodeIPNS_16__tree_node_baseIPvEEEENS_9allocatorINS_11__tree_nodeINS_12__value_typeINS_12basic_stringIcNS_11char_traitsIcEENS7_IcEEEEN8nlohmann16json_abi_v3_11_310basic_jsonINS_3mapENS_6vectorESE_bxydS7_NSG_14adl_serializerENSJ_IhNS7_IhEEEEvEEEES3_EEEEEC1B8ne180100INS_18__default_init_tagESQ_EEOT_OT0_, symObjAddr: 0x1C558, symBinAddr: 0x100026EA4, symSize: 0x3C }
  - { offset: 0x6C312, size: 0x8, addend: 0x0, symName: __ZNKSt3__16__treeINS_12__value_typeINS_12basic_stringIcNS_11char_traitsIcEENS_9allocatorIcEEEEN8nlohmann16json_abi_v3_11_310basic_jsonINS_3mapENS_6vectorES7_bxydS5_NS9_14adl_serializerENSC_IhNS5_IhEEEEvEEEENS_19__map_value_compareIS7_SH_NS_4lessIvEELb1EEENS5_ISH_EEE10value_compB8ne180100Ev, symObjAddr: 0x1C594, symBinAddr: 0x100026EE0, symSize: 0x28 }
  - { offset: 0x6C338, size: 0x8, addend: 0x0, symName: __ZNSt3__117__compressed_pairINS_15__tree_end_nodeIPNS_16__tree_node_baseIPvEEEENS_9allocatorINS_11__tree_nodeINS_12__value_typeINS_12basic_stringIcNS_11char_traitsIcEENS7_IcEEEEN8nlohmann16json_abi_v3_11_310basic_jsonINS_3mapENS_6vectorESE_bxydS7_NSG_14adl_serializerENSJ_IhNS7_IhEEEEvEEEES3_EEEEEC2B8ne180100INS_18__default_init_tagESQ_EEOT_OT0_, symObjAddr: 0x1C5BC, symBinAddr: 0x100026F08, symSize: 0x40 }
  - { offset: 0x6C390, size: 0x8, addend: 0x0, symName: __ZNSt3__122__compressed_pair_elemINS_15__tree_end_nodeIPNS_16__tree_node_baseIPvEEEELi0ELb0EEC2B8ne180100ENS_18__default_init_tagE, symObjAddr: 0x1C5FC, symBinAddr: 0x100026F48, symSize: 0x2C }
  - { offset: 0x6C3C5, size: 0x8, addend: 0x0, symName: __ZNSt3__122__compressed_pair_elemINS_9allocatorINS_11__tree_nodeINS_12__value_typeINS_12basic_stringIcNS_11char_traitsIcEENS1_IcEEEEN8nlohmann16json_abi_v3_11_310basic_jsonINS_3mapENS_6vectorES8_bxydS1_NSA_14adl_serializerENSD_IhNS1_IhEEEEvEEEEPvEEEELi1ELb1EEC2B8ne180100ISL_vEEOT_, symObjAddr: 0x1C628, symBinAddr: 0x100026F74, symSize: 0x18 }
  - { offset: 0x6C407, size: 0x8, addend: 0x0, symName: __ZNKSt3__117__compressed_pairImNS_19__map_value_compareINS_12basic_stringIcNS_11char_traitsIcEENS_9allocatorIcEEEENS_12__value_typeIS7_N8nlohmann16json_abi_v3_11_310basic_jsonINS_3mapENS_6vectorES7_bxydS5_NSA_14adl_serializerENSD_IhNS5_IhEEEEvEEEENS_4lessIvEELb1EEEE6secondB8ne180100Ev, symObjAddr: 0x1C640, symBinAddr: 0x100026F8C, symSize: 0x24 }
  - { offset: 0x6C42D, size: 0x8, addend: 0x0, symName: __ZNKSt3__122__compressed_pair_elemINS_19__map_value_compareINS_12basic_stringIcNS_11char_traitsIcEENS_9allocatorIcEEEENS_12__value_typeIS7_N8nlohmann16json_abi_v3_11_310basic_jsonINS_3mapENS_6vectorES7_bxydS5_NSA_14adl_serializerENSD_IhNS5_IhEEEEvEEEENS_4lessIvEELb1EEELi1ELb1EE5__getB8ne180100Ev, symObjAddr: 0x1C664, symBinAddr: 0x100026FB0, symSize: 0x14 }
  - { offset: 0x6C453, size: 0x8, addend: 0x0, symName: __ZNKSt3__13mapINS_12basic_stringIcNS_11char_traitsIcEENS_9allocatorIcEEEEN8nlohmann16json_abi_v3_11_310basic_jsonIS0_NS_6vectorES6_bxydS4_NS8_14adl_serializerENSA_IhNS4_IhEEEEvEENS_4lessIvEENS4_INS_4pairIKS6_SE_EEEEE4cendB8ne180100Ev, symObjAddr: 0x1C678, symBinAddr: 0x100026FC4, symSize: 0x2C }
  - { offset: 0x6C479, size: 0x8, addend: 0x0, symName: __ZNSt3__13mapINS_12basic_stringIcNS_11char_traitsIcEENS_9allocatorIcEEEEN8nlohmann16json_abi_v3_11_310basic_jsonIS0_NS_6vectorES6_bxydS4_NS8_14adl_serializerENSA_IhNS4_IhEEEEvEENS_4lessIvEENS4_INS_4pairIKS6_SE_EEEEE6insertB8ne180100ENS_20__map_const_iteratorINS_21__tree_const_iteratorINS_12__value_typeIS6_SE_EEPNS_11__tree_nodeISP_PvEElEEEERKSJ_, symObjAddr: 0x1C6D4, symBinAddr: 0x100027020, symSize: 0x50 }
  - { offset: 0x6C4BD, size: 0x8, addend: 0x0, symName: __ZNSt3__120__map_const_iteratorINS_21__tree_const_iteratorINS_12__value_typeINS_12basic_stringIcNS_11char_traitsIcEENS_9allocatorIcEEEEN8nlohmann16json_abi_v3_11_310basic_jsonINS_3mapENS_6vectorES8_bxydS6_NSA_14adl_serializerENSD_IhNS6_IhEEEEvEEEEPNS_11__tree_nodeISI_PvEElEEEC1B8ne180100ESN_, symObjAddr: 0x1C724, symBinAddr: 0x100027070, symSize: 0x34 }
  - { offset: 0x6C4F6, size: 0x8, addend: 0x0, symName: __ZNKSt3__120__map_const_iteratorINS_21__tree_const_iteratorINS_12__value_typeINS_12basic_stringIcNS_11char_traitsIcEENS_9allocatorIcEEEEN8nlohmann16json_abi_v3_11_310basic_jsonINS_3mapENS_6vectorES8_bxydS6_NSA_14adl_serializerENSD_IhNS6_IhEEEEvEEEEPNS_11__tree_nodeISI_PvEElEEEdeB8ne180100Ev, symObjAddr: 0x1C758, symBinAddr: 0x1000270A4, symSize: 0x28 }
  - { offset: 0x6C51C, size: 0x8, addend: 0x0, symName: __ZNSt3__120__map_const_iteratorINS_21__tree_const_iteratorINS_12__value_typeINS_12basic_stringIcNS_11char_traitsIcEENS_9allocatorIcEEEEN8nlohmann16json_abi_v3_11_310basic_jsonINS_3mapENS_6vectorES8_bxydS6_NSA_14adl_serializerENSD_IhNS6_IhEEEEvEEEEPNS_11__tree_nodeISI_PvEElEEEppB8ne180100Ev, symObjAddr: 0x1C780, symBinAddr: 0x1000270CC, symSize: 0x2C }
  - { offset: 0x6C542, size: 0x8, addend: 0x0, symName: __ZNSt3__16__treeINS_12__value_typeINS_12basic_stringIcNS_11char_traitsIcEENS_9allocatorIcEEEEN8nlohmann16json_abi_v3_11_310basic_jsonINS_3mapENS_6vectorES7_bxydS5_NS9_14adl_serializerENSC_IhNS5_IhEEEEvEEEENS_19__map_value_compareIS7_SH_NS_4lessIvEELb1EEENS5_ISH_EEE15__insert_uniqueB8ne180100ENS_21__tree_const_iteratorISH_PNS_11__tree_nodeISH_PvEElEERKNS_4pairIKS7_SG_EE, symObjAddr: 0x1C810, symBinAddr: 0x10002715C, symSize: 0x64 }
  - { offset: 0x6C586, size: 0x8, addend: 0x0, symName: __ZNSt3__16__treeINS_12__value_typeINS_12basic_stringIcNS_11char_traitsIcEENS_9allocatorIcEEEEN8nlohmann16json_abi_v3_11_310basic_jsonINS_3mapENS_6vectorES7_bxydS5_NS9_14adl_serializerENSC_IhNS5_IhEEEEvEEEENS_19__map_value_compareIS7_SH_NS_4lessIvEELb1EEENS5_ISH_EEE30__emplace_hint_unique_key_argsIS7_JRKNS_4pairIKS7_SG_EEEEENSP_INS_15__tree_iteratorISH_PNS_11__tree_nodeISH_PvEElEEbEENS_21__tree_const_iteratorISH_SY_lEERKT_DpOT0_, symObjAddr: 0x1C874, symBinAddr: 0x1000271C0, symSize: 0x104 }
  - { offset: 0x6C653, size: 0x8, addend: 0x0, symName: __ZNSt3__122__tree_key_value_typesINS_12__value_typeINS_12basic_stringIcNS_11char_traitsIcEENS_9allocatorIcEEEEN8nlohmann16json_abi_v3_11_310basic_jsonINS_3mapENS_6vectorES7_bxydS5_NS9_14adl_serializerENSC_IhNS5_IhEEEEvEEEEE9__get_keyB8ne180100IKNS_4pairIKS7_SG_EELi0EEERSL_RT_, symObjAddr: 0x1C978, symBinAddr: 0x1000272C4, symSize: 0x14 }
  - { offset: 0x6C686, size: 0x8, addend: 0x0, symName: __ZNSt3__16__treeINS_12__value_typeINS_12basic_stringIcNS_11char_traitsIcEENS_9allocatorIcEEEEN8nlohmann16json_abi_v3_11_310basic_jsonINS_3mapENS_6vectorES7_bxydS5_NS9_14adl_serializerENSC_IhNS5_IhEEEEvEEEENS_19__map_value_compareIS7_SH_NS_4lessIvEELb1EEENS5_ISH_EEE12__find_equalIS7_EERPNS_16__tree_node_baseIPvEENS_21__tree_const_iteratorISH_PNS_11__tree_nodeISH_SQ_EElEERPNS_15__tree_end_nodeISS_EEST_RKT_, symObjAddr: 0x1C98C, symBinAddr: 0x1000272D8, symSize: 0x304 }
  - { offset: 0x6C72F, size: 0x8, addend: 0x0, symName: __ZNSt3__16__treeINS_12__value_typeINS_12basic_stringIcNS_11char_traitsIcEENS_9allocatorIcEEEEN8nlohmann16json_abi_v3_11_310basic_jsonINS_3mapENS_6vectorES7_bxydS5_NS9_14adl_serializerENSC_IhNS5_IhEEEEvEEEENS_19__map_value_compareIS7_SH_NS_4lessIvEELb1EEENS5_ISH_EEE16__construct_nodeIJRKNS_4pairIKS7_SG_EEEEENS_10unique_ptrINS_11__tree_nodeISH_PvEENS_22__tree_node_destructorINS5_ISX_EEEEEEDpOT_, symObjAddr: 0x1CC90, symBinAddr: 0x1000275DC, symSize: 0x108 }
  - { offset: 0x6C790, size: 0x8, addend: 0x0, symName: __ZNSt3__16__treeINS_12__value_typeINS_12basic_stringIcNS_11char_traitsIcEENS_9allocatorIcEEEEN8nlohmann16json_abi_v3_11_310basic_jsonINS_3mapENS_6vectorES7_bxydS5_NS9_14adl_serializerENSC_IhNS5_IhEEEEvEEEENS_19__map_value_compareIS7_SH_NS_4lessIvEELb1EEENS5_ISH_EEE16__insert_node_atEPNS_15__tree_end_nodeIPNS_16__tree_node_baseIPvEEEERSS_SS_, symObjAddr: 0x1CD98, symBinAddr: 0x1000276E4, symSize: 0xCC }
  - { offset: 0x6C7E5, size: 0x8, addend: 0x0, symName: __ZNKSt3__110unique_ptrINS_11__tree_nodeINS_12__value_typeINS_12basic_stringIcNS_11char_traitsIcEENS_9allocatorIcEEEEN8nlohmann16json_abi_v3_11_310basic_jsonINS_3mapENS_6vectorES8_bxydS6_NSA_14adl_serializerENSD_IhNS6_IhEEEEvEEEEPvEENS_22__tree_node_destructorINS6_ISK_EEEEE3getB8ne180100Ev, symObjAddr: 0x1CE64, symBinAddr: 0x1000277B0, symSize: 0x28 }
  - { offset: 0x6C80B, size: 0x8, addend: 0x0, symName: __ZNSt3__110unique_ptrINS_11__tree_nodeINS_12__value_typeINS_12basic_stringIcNS_11char_traitsIcEENS_9allocatorIcEEEEN8nlohmann16json_abi_v3_11_310basic_jsonINS_3mapENS_6vectorES8_bxydS6_NSA_14adl_serializerENSD_IhNS6_IhEEEEvEEEEPvEENS_22__tree_node_destructorINS6_ISK_EEEEE7releaseB8ne180100Ev, symObjAddr: 0x1CE8C, symBinAddr: 0x1000277D8, symSize: 0x44 }
  - { offset: 0x6C840, size: 0x8, addend: 0x0, symName: __ZNSt3__110unique_ptrINS_11__tree_nodeINS_12__value_typeINS_12basic_stringIcNS_11char_traitsIcEENS_9allocatorIcEEEEN8nlohmann16json_abi_v3_11_310basic_jsonINS_3mapENS_6vectorES8_bxydS6_NSA_14adl_serializerENSD_IhNS6_IhEEEEvEEEEPvEENS_22__tree_node_destructorINS6_ISK_EEEEED1B8ne180100Ev, symObjAddr: 0x1CED0, symBinAddr: 0x10002781C, symSize: 0x2C }
  - { offset: 0x6C86A, size: 0x8, addend: 0x0, symName: __ZNSt3__115__tree_iteratorINS_12__value_typeINS_12basic_stringIcNS_11char_traitsIcEENS_9allocatorIcEEEEN8nlohmann16json_abi_v3_11_310basic_jsonINS_3mapENS_6vectorES7_bxydS5_NS9_14adl_serializerENSC_IhNS5_IhEEEEvEEEEPNS_11__tree_nodeISH_PvEElEC1B8ne180100ESL_, symObjAddr: 0x1CEFC, symBinAddr: 0x100027848, symSize: 0x34 }
  - { offset: 0x6C8A9, size: 0x8, addend: 0x0, symName: __ZNSt3__14pairINS_15__tree_iteratorINS_12__value_typeINS_12basic_stringIcNS_11char_traitsIcEENS_9allocatorIcEEEEN8nlohmann16json_abi_v3_11_310basic_jsonINS_3mapENS_6vectorES8_bxydS6_NSA_14adl_serializerENSD_IhNS6_IhEEEEvEEEEPNS_11__tree_nodeISI_PvEElEEbEC1B8ne180100ISN_RbLi0EEEOT_OT0_, symObjAddr: 0x1CF30, symBinAddr: 0x10002787C, symSize: 0x3C }
  - { offset: 0x6C907, size: 0x8, addend: 0x0, symName: __ZNSt3__121__tree_const_iteratorINS_12__value_typeINS_12basic_stringIcNS_11char_traitsIcEENS_9allocatorIcEEEEN8nlohmann16json_abi_v3_11_310basic_jsonINS_3mapENS_6vectorES7_bxydS5_NS9_14adl_serializerENSC_IhNS5_IhEEEEvEEEEPNS_11__tree_nodeISH_PvEElEC1B8ne180100ENS_15__tree_iteratorISH_SL_lEE, symObjAddr: 0x1CF6C, symBinAddr: 0x1000278B8, symSize: 0x34 }
  - { offset: 0x6C940, size: 0x8, addend: 0x0, symName: __ZNSt3__16__treeINS_12__value_typeINS_12basic_stringIcNS_11char_traitsIcEENS_9allocatorIcEEEEN8nlohmann16json_abi_v3_11_310basic_jsonINS_3mapENS_6vectorES7_bxydS5_NS9_14adl_serializerENSC_IhNS5_IhEEEEvEEEENS_19__map_value_compareIS7_SH_NS_4lessIvEELb1EEENS5_ISH_EEE10value_compB8ne180100Ev, symObjAddr: 0x1CFA0, symBinAddr: 0x1000278EC, symSize: 0x28 }
  - { offset: 0x6C966, size: 0x8, addend: 0x0, symName: __ZNKSt3__119__map_value_compareINS_12basic_stringIcNS_11char_traitsIcEENS_9allocatorIcEEEENS_12__value_typeIS6_N8nlohmann16json_abi_v3_11_310basic_jsonINS_3mapENS_6vectorES6_bxydS4_NS9_14adl_serializerENSC_IhNS4_IhEEEEvEEEENS_4lessIvEELb1EEclB8ne180100ERKS6_RKSH_, symObjAddr: 0x1CFC8, symBinAddr: 0x100027914, symSize: 0x50 }
  - { offset: 0x6C9AA, size: 0x8, addend: 0x0, symName: __ZNKSt3__121__tree_const_iteratorINS_12__value_typeINS_12basic_stringIcNS_11char_traitsIcEENS_9allocatorIcEEEEN8nlohmann16json_abi_v3_11_310basic_jsonINS_3mapENS_6vectorES7_bxydS5_NS9_14adl_serializerENSC_IhNS5_IhEEEEvEEEEPNS_11__tree_nodeISH_PvEElEdeB8ne180100Ev, symObjAddr: 0x1D018, symBinAddr: 0x100027964, symSize: 0x28 }
  - { offset: 0x6C9D0, size: 0x8, addend: 0x0, symName: __ZNKSt3__119__map_value_compareINS_12basic_stringIcNS_11char_traitsIcEENS_9allocatorIcEEEENS_12__value_typeIS6_N8nlohmann16json_abi_v3_11_310basic_jsonINS_3mapENS_6vectorES6_bxydS4_NS9_14adl_serializerENSC_IhNS4_IhEEEEvEEEENS_4lessIvEELb1EEclB8ne180100ERKSH_RKS6_, symObjAddr: 0x1D040, symBinAddr: 0x10002798C, symSize: 0x48 }
  - { offset: 0x6CA14, size: 0x8, addend: 0x0, symName: __ZNSt3__121__tree_const_iteratorINS_12__value_typeINS_12basic_stringIcNS_11char_traitsIcEENS_9allocatorIcEEEEN8nlohmann16json_abi_v3_11_310basic_jsonINS_3mapENS_6vectorES7_bxydS5_NS9_14adl_serializerENSC_IhNS5_IhEEEEvEEEEPNS_11__tree_nodeISH_PvEElEmmB8ne180100Ev, symObjAddr: 0x1D088, symBinAddr: 0x1000279D4, symSize: 0x38 }
  - { offset: 0x6CA3A, size: 0x8, addend: 0x0, symName: __ZNSt3__16__treeINS_12__value_typeINS_12basic_stringIcNS_11char_traitsIcEENS_9allocatorIcEEEEN8nlohmann16json_abi_v3_11_310basic_jsonINS_3mapENS_6vectorES7_bxydS5_NS9_14adl_serializerENSC_IhNS5_IhEEEEvEEEENS_19__map_value_compareIS7_SH_NS_4lessIvEELb1EEENS5_ISH_EEE12__find_equalIS7_EERPNS_16__tree_node_baseIPvEERPNS_15__tree_end_nodeISS_EERKT_, symObjAddr: 0x1D0C0, symBinAddr: 0x100027A0C, symSize: 0x184 }
  - { offset: 0x6CAA7, size: 0x8, addend: 0x0, symName: __ZNKSt3__121__tree_const_iteratorINS_12__value_typeINS_12basic_stringIcNS_11char_traitsIcEENS_9allocatorIcEEEEN8nlohmann16json_abi_v3_11_310basic_jsonINS_3mapENS_6vectorES7_bxydS5_NS9_14adl_serializerENSC_IhNS5_IhEEEEvEEEEPNS_11__tree_nodeISH_PvEElE8__get_npB8ne180100Ev, symObjAddr: 0x1D280, symBinAddr: 0x100027BCC, symSize: 0x18 }
  - { offset: 0x6CACD, size: 0x8, addend: 0x0, symName: __ZNSt3__121__tree_const_iteratorINS_12__value_typeINS_12basic_stringIcNS_11char_traitsIcEENS_9allocatorIcEEEEN8nlohmann16json_abi_v3_11_310basic_jsonINS_3mapENS_6vectorES7_bxydS5_NS9_14adl_serializerENSC_IhNS5_IhEEEEvEEEEPNS_11__tree_nodeISH_PvEElEC2B8ne180100ENS_15__tree_iteratorISH_SL_lEE, symObjAddr: 0x1D298, symBinAddr: 0x100027BE4, symSize: 0x20 }
  - { offset: 0x6CB06, size: 0x8, addend: 0x0, symName: __ZNSt3__117__compressed_pairImNS_19__map_value_compareINS_12basic_stringIcNS_11char_traitsIcEENS_9allocatorIcEEEENS_12__value_typeIS7_N8nlohmann16json_abi_v3_11_310basic_jsonINS_3mapENS_6vectorES7_bxydS5_NSA_14adl_serializerENSD_IhNS5_IhEEEEvEEEENS_4lessIvEELb1EEEE6secondB8ne180100Ev, symObjAddr: 0x1D2B8, symBinAddr: 0x100027C04, symSize: 0x24 }
  - { offset: 0x6CB2C, size: 0x8, addend: 0x0, symName: __ZNSt3__122__compressed_pair_elemINS_19__map_value_compareINS_12basic_stringIcNS_11char_traitsIcEENS_9allocatorIcEEEENS_12__value_typeIS7_N8nlohmann16json_abi_v3_11_310basic_jsonINS_3mapENS_6vectorES7_bxydS5_NSA_14adl_serializerENSD_IhNS5_IhEEEEvEEEENS_4lessIvEELb1EEELi1ELb1EE5__getB8ne180100Ev, symObjAddr: 0x1D2DC, symBinAddr: 0x100027C28, symSize: 0x14 }
  - { offset: 0x6CB57, size: 0x8, addend: 0x0, symName: __ZNKSt3__14lessIvEclB8ne180100IRKNS_12basic_stringIcNS_11char_traitsIcEENS_9allocatorIcEEEESA_EEDTltclsr3stdE7forwardIT_Efp_Eclsr3stdE7forwardIT0_Efp0_EEOSB_OSC_, symObjAddr: 0x1D2F0, symBinAddr: 0x100027C3C, symSize: 0x34 }
  - { offset: 0x6CBAD, size: 0x8, addend: 0x0, symName: __ZNKSt3__112__value_typeINS_12basic_stringIcNS_11char_traitsIcEENS_9allocatorIcEEEEN8nlohmann16json_abi_v3_11_310basic_jsonINS_3mapENS_6vectorES6_bxydS4_NS8_14adl_serializerENSB_IhNS4_IhEEEEvEEE11__get_valueB8ne180100Ev, symObjAddr: 0x1D324, symBinAddr: 0x100027C70, symSize: 0x24 }
  - { offset: 0x6CBD3, size: 0x8, addend: 0x0, symName: __ZNKSt3__112basic_stringIcNS_11char_traitsIcEENS_9allocatorIcEEE7compareB8ne180100ERKS5_, symObjAddr: 0x1D380, symBinAddr: 0x100027CCC, symSize: 0x4C }
  - { offset: 0x6CC0A, size: 0x8, addend: 0x0, symName: __ZNKSt3__112basic_stringIcNS_11char_traitsIcEENS_9allocatorIcEEE7compareINS_17basic_string_viewIcS2_EELi0EEEiRKT_, symObjAddr: 0x1D3CC, symBinAddr: 0x100027D18, symSize: 0x12C }
  - { offset: 0x6CC8D, size: 0x8, addend: 0x0, symName: __ZNKSt3__112basic_stringIcNS_11char_traitsIcEENS_9allocatorIcEEEcvNS_17basic_string_viewIcS2_EEB8ne180100Ev, symObjAddr: 0x1D4F8, symBinAddr: 0x100027E44, symSize: 0x50 }
  - { offset: 0x6CCB3, size: 0x8, addend: 0x0, symName: __ZNKSt3__117basic_string_viewIcNS_11char_traitsIcEEE4sizeB8ne180100Ev, symObjAddr: 0x1D548, symBinAddr: 0x100027E94, symSize: 0x18 }
  - { offset: 0x6CCD9, size: 0x8, addend: 0x0, symName: __ZNSt3__111char_traitsIcE7compareB8ne180100EPKcS3_m, symObjAddr: 0x1D560, symBinAddr: 0x100027EAC, symSize: 0x34 }
  - { offset: 0x6CD18, size: 0x8, addend: 0x0, symName: __ZNKSt3__117basic_string_viewIcNS_11char_traitsIcEEE4dataB8ne180100Ev, symObjAddr: 0x1D594, symBinAddr: 0x100027EE0, symSize: 0x18 }
  - { offset: 0x6CD3E, size: 0x8, addend: 0x0, symName: __ZNSt3__117basic_string_viewIcNS_11char_traitsIcEEEC1B8ne180100EPKcm, symObjAddr: 0x1D5AC, symBinAddr: 0x100027EF8, symSize: 0x3C }
  - { offset: 0x6CD86, size: 0x8, addend: 0x0, symName: __ZNSt3__117basic_string_viewIcNS_11char_traitsIcEEEC2B8ne180100EPKcm, symObjAddr: 0x1D5E8, symBinAddr: 0x100027F34, symSize: 0x2C }
  - { offset: 0x6CDCE, size: 0x8, addend: 0x0, symName: __ZNKSt3__16__treeINS_12__value_typeINS_12basic_stringIcNS_11char_traitsIcEENS_9allocatorIcEEEEN8nlohmann16json_abi_v3_11_310basic_jsonINS_3mapENS_6vectorES7_bxydS5_NS9_14adl_serializerENSC_IhNS5_IhEEEEvEEEENS_19__map_value_compareIS7_SH_NS_4lessIvEELb1EEENS5_ISH_EEE10__root_ptrB8ne180100Ev, symObjAddr: 0x1D714, symBinAddr: 0x100028060, symSize: 0x24 }
  - { offset: 0x6CDF4, size: 0x8, addend: 0x0, symName: __ZNSt3__121__tree_const_iteratorINS_12__value_typeINS_12basic_stringIcNS_11char_traitsIcEENS_9allocatorIcEEEEN8nlohmann16json_abi_v3_11_310basic_jsonINS_3mapENS_6vectorES7_bxydS5_NS9_14adl_serializerENSC_IhNS5_IhEEEEvEEEEPNS_11__tree_nodeISH_PvEElEppB8ne180100Ev, symObjAddr: 0x1D828, symBinAddr: 0x100028174, symSize: 0x38 }
  - { offset: 0x6CE1A, size: 0x8, addend: 0x0, symName: __ZNSt3__116allocator_traitsINS_9allocatorINS_11__tree_nodeINS_12__value_typeINS_12basic_stringIcNS_11char_traitsIcEENS1_IcEEEEN8nlohmann16json_abi_v3_11_310basic_jsonINS_3mapENS_6vectorES8_bxydS1_NSA_14adl_serializerENSD_IhNS1_IhEEEEvEEEEPvEEEEE8allocateB8ne180100ERSL_m, symObjAddr: 0x1D860, symBinAddr: 0x1000281AC, symSize: 0x2C }
  - { offset: 0x6CE4D, size: 0x8, addend: 0x0, symName: __ZNSt3__122__tree_node_destructorINS_9allocatorINS_11__tree_nodeINS_12__value_typeINS_12basic_stringIcNS_11char_traitsIcEENS1_IcEEEEN8nlohmann16json_abi_v3_11_310basic_jsonINS_3mapENS_6vectorES8_bxydS1_NSA_14adl_serializerENSD_IhNS1_IhEEEEvEEEEPvEEEEEC1B8ne180100ERSL_b, symObjAddr: 0x1D88C, symBinAddr: 0x1000281D8, symSize: 0x48 }
  - { offset: 0x6CE9B, size: 0x8, addend: 0x0, symName: __ZNSt3__110unique_ptrINS_11__tree_nodeINS_12__value_typeINS_12basic_stringIcNS_11char_traitsIcEENS_9allocatorIcEEEEN8nlohmann16json_abi_v3_11_310basic_jsonINS_3mapENS_6vectorES8_bxydS6_NSA_14adl_serializerENSD_IhNS6_IhEEEEvEEEEPvEENS_22__tree_node_destructorINS6_ISK_EEEEEC1B8ne180100ILb1EvEEPSK_NS_16__dependent_typeINS_27__unique_ptr_deleter_sfinaeISN_EEXT_EE20__good_rval_ref_typeE, symObjAddr: 0x1D8D4, symBinAddr: 0x100028220, symSize: 0x3C }
  - { offset: 0x6CEEC, size: 0x8, addend: 0x0, symName: __ZNSt3__116allocator_traitsINS_9allocatorINS_11__tree_nodeINS_12__value_typeINS_12basic_stringIcNS_11char_traitsIcEENS1_IcEEEEN8nlohmann16json_abi_v3_11_310basic_jsonINS_3mapENS_6vectorES8_bxydS1_NSA_14adl_serializerENSD_IhNS1_IhEEEEvEEEEPvEEEEE9constructB8ne180100INS_4pairIKS8_SH_EEJRKSQ_EvEEvRSL_PT_DpOT0_, symObjAddr: 0x1D910, symBinAddr: 0x10002825C, symSize: 0x34 }
  - { offset: 0x6CF43, size: 0x8, addend: 0x0, symName: __ZNKSt3__110unique_ptrINS_11__tree_nodeINS_12__value_typeINS_12basic_stringIcNS_11char_traitsIcEENS_9allocatorIcEEEEN8nlohmann16json_abi_v3_11_310basic_jsonINS_3mapENS_6vectorES8_bxydS6_NSA_14adl_serializerENSD_IhNS6_IhEEEEvEEEEPvEENS_22__tree_node_destructorINS6_ISK_EEEEEptB8ne180100Ev, symObjAddr: 0x1D944, symBinAddr: 0x100028290, symSize: 0x28 }
  - { offset: 0x6CF69, size: 0x8, addend: 0x0, symName: __ZNSt3__110unique_ptrINS_11__tree_nodeINS_12__value_typeINS_12basic_stringIcNS_11char_traitsIcEENS_9allocatorIcEEEEN8nlohmann16json_abi_v3_11_310basic_jsonINS_3mapENS_6vectorES8_bxydS6_NSA_14adl_serializerENSD_IhNS6_IhEEEEvEEEEPvEENS_22__tree_node_destructorINS6_ISK_EEEEE11get_deleterB8ne180100Ev, symObjAddr: 0x1D96C, symBinAddr: 0x1000282B8, symSize: 0x24 }
  - { offset: 0x6CF8F, size: 0x8, addend: 0x0, symName: __ZNSt3__19allocatorINS_11__tree_nodeINS_12__value_typeINS_12basic_stringIcNS_11char_traitsIcEENS0_IcEEEEN8nlohmann16json_abi_v3_11_310basic_jsonINS_3mapENS_6vectorES7_bxydS0_NS9_14adl_serializerENSC_IhNS0_IhEEEEvEEEEPvEEE8allocateB8ne180100Em, symObjAddr: 0x1D990, symBinAddr: 0x1000282DC, symSize: 0x5C }
  - { offset: 0x6CFC3, size: 0x8, addend: 0x0, symName: __ZNSt3__122__tree_node_destructorINS_9allocatorINS_11__tree_nodeINS_12__value_typeINS_12basic_stringIcNS_11char_traitsIcEENS1_IcEEEEN8nlohmann16json_abi_v3_11_310basic_jsonINS_3mapENS_6vectorES8_bxydS1_NSA_14adl_serializerENSD_IhNS1_IhEEEEvEEEEPvEEEEEC2B8ne180100ERSL_b, symObjAddr: 0x1D9EC, symBinAddr: 0x100028338, symSize: 0x38 }
  - { offset: 0x6D00B, size: 0x8, addend: 0x0, symName: __ZNSt3__110unique_ptrINS_11__tree_nodeINS_12__value_typeINS_12basic_stringIcNS_11char_traitsIcEENS_9allocatorIcEEEEN8nlohmann16json_abi_v3_11_310basic_jsonINS_3mapENS_6vectorES8_bxydS6_NSA_14adl_serializerENSD_IhNS6_IhEEEEvEEEEPvEENS_22__tree_node_destructorINS6_ISK_EEEEEC2B8ne180100ILb1EvEEPSK_NS_16__dependent_typeINS_27__unique_ptr_deleter_sfinaeISN_EEXT_EE20__good_rval_ref_typeE, symObjAddr: 0x1DA24, symBinAddr: 0x100028370, symSize: 0x48 }
  - { offset: 0x6D05C, size: 0x8, addend: 0x0, symName: __ZNSt3__117__compressed_pairIPNS_11__tree_nodeINS_12__value_typeINS_12basic_stringIcNS_11char_traitsIcEENS_9allocatorIcEEEEN8nlohmann16json_abi_v3_11_310basic_jsonINS_3mapENS_6vectorES8_bxydS6_NSA_14adl_serializerENSD_IhNS6_IhEEEEvEEEEPvEENS_22__tree_node_destructorINS6_ISK_EEEEEC1B8ne180100IRSL_SO_EEOT_OT0_, symObjAddr: 0x1DA6C, symBinAddr: 0x1000283B8, symSize: 0x3C }
  - { offset: 0x6D0B4, size: 0x8, addend: 0x0, symName: __ZNSt3__117__compressed_pairIPNS_11__tree_nodeINS_12__value_typeINS_12basic_stringIcNS_11char_traitsIcEENS_9allocatorIcEEEEN8nlohmann16json_abi_v3_11_310basic_jsonINS_3mapENS_6vectorES8_bxydS6_NSA_14adl_serializerENSD_IhNS6_IhEEEEvEEEEPvEENS_22__tree_node_destructorINS6_ISK_EEEEEC2B8ne180100IRSL_SO_EEOT_OT0_, symObjAddr: 0x1DAA8, symBinAddr: 0x1000283F4, symSize: 0x48 }
  - { offset: 0x6D10C, size: 0x8, addend: 0x0, symName: __ZNSt3__122__compressed_pair_elemIPNS_11__tree_nodeINS_12__value_typeINS_12basic_stringIcNS_11char_traitsIcEENS_9allocatorIcEEEEN8nlohmann16json_abi_v3_11_310basic_jsonINS_3mapENS_6vectorES8_bxydS6_NSA_14adl_serializerENSD_IhNS6_IhEEEEvEEEEPvEELi0ELb0EEC2B8ne180100IRSL_vEEOT_, symObjAddr: 0x1DAF0, symBinAddr: 0x10002843C, symSize: 0x24 }
  - { offset: 0x6D14E, size: 0x8, addend: 0x0, symName: __ZNSt3__122__compressed_pair_elemINS_22__tree_node_destructorINS_9allocatorINS_11__tree_nodeINS_12__value_typeINS_12basic_stringIcNS_11char_traitsIcEENS2_IcEEEEN8nlohmann16json_abi_v3_11_310basic_jsonINS_3mapENS_6vectorES9_bxydS2_NSB_14adl_serializerENSE_IhNS2_IhEEEEvEEEEPvEEEEEELi1ELb0EEC2B8ne180100ISN_vEEOT_, symObjAddr: 0x1DB14, symBinAddr: 0x100028460, symSize: 0x24 }
  - { offset: 0x6D190, size: 0x8, addend: 0x0, symName: __ZNSt3__19allocatorINS_11__tree_nodeINS_12__value_typeINS_12basic_stringIcNS_11char_traitsIcEENS0_IcEEEEN8nlohmann16json_abi_v3_11_310basic_jsonINS_3mapENS_6vectorES7_bxydS0_NS9_14adl_serializerENSC_IhNS0_IhEEEEvEEEEPvEEE9constructB8ne180100INS_4pairIKS7_SG_EEJRKSO_EEEvPT_DpOT0_, symObjAddr: 0x1DB38, symBinAddr: 0x100028484, symSize: 0x30 }
  - { offset: 0x6D1E6, size: 0x8, addend: 0x0, symName: __ZNSt3__14pairIKNS_12basic_stringIcNS_11char_traitsIcEENS_9allocatorIcEEEEN8nlohmann16json_abi_v3_11_310basic_jsonINS_3mapENS_6vectorES6_bxydS4_NS9_14adl_serializerENSC_IhNS4_IhEEEEvEEEC1B8ne180100ERKSH_, symObjAddr: 0x1DB68, symBinAddr: 0x1000284B4, symSize: 0x34 }
  - { offset: 0x6D21B, size: 0x8, addend: 0x0, symName: __ZNSt3__14pairIKNS_12basic_stringIcNS_11char_traitsIcEENS_9allocatorIcEEEEN8nlohmann16json_abi_v3_11_310basic_jsonINS_3mapENS_6vectorES6_bxydS4_NS9_14adl_serializerENSC_IhNS4_IhEEEEvEEEC2B8ne180100ERKSH_, symObjAddr: 0x1DB9C, symBinAddr: 0x1000284E8, symSize: 0x70 }
  - { offset: 0x6D250, size: 0x8, addend: 0x0, symName: __ZNKSt3__117__compressed_pairIPNS_11__tree_nodeINS_12__value_typeINS_12basic_stringIcNS_11char_traitsIcEENS_9allocatorIcEEEEN8nlohmann16json_abi_v3_11_310basic_jsonINS_3mapENS_6vectorES8_bxydS6_NSA_14adl_serializerENSD_IhNS6_IhEEEEvEEEEPvEENS_22__tree_node_destructorINS6_ISK_EEEEE5firstB8ne180100Ev, symObjAddr: 0x1DC0C, symBinAddr: 0x100028558, symSize: 0x24 }
  - { offset: 0x6D276, size: 0x8, addend: 0x0, symName: __ZNKSt3__122__compressed_pair_elemIPNS_11__tree_nodeINS_12__value_typeINS_12basic_stringIcNS_11char_traitsIcEENS_9allocatorIcEEEEN8nlohmann16json_abi_v3_11_310basic_jsonINS_3mapENS_6vectorES8_bxydS6_NSA_14adl_serializerENSD_IhNS6_IhEEEEvEEEEPvEELi0ELb0EE5__getB8ne180100Ev, symObjAddr: 0x1DC30, symBinAddr: 0x10002857C, symSize: 0x14 }
  - { offset: 0x6D29C, size: 0x8, addend: 0x0, symName: __ZNSt3__117__compressed_pairIPNS_11__tree_nodeINS_12__value_typeINS_12basic_stringIcNS_11char_traitsIcEENS_9allocatorIcEEEEN8nlohmann16json_abi_v3_11_310basic_jsonINS_3mapENS_6vectorES8_bxydS6_NSA_14adl_serializerENSD_IhNS6_IhEEEEvEEEEPvEENS_22__tree_node_destructorINS6_ISK_EEEEE6secondB8ne180100Ev, symObjAddr: 0x1DC44, symBinAddr: 0x100028590, symSize: 0x28 }
  - { offset: 0x6D2C2, size: 0x8, addend: 0x0, symName: __ZNSt3__122__compressed_pair_elemINS_22__tree_node_destructorINS_9allocatorINS_11__tree_nodeINS_12__value_typeINS_12basic_stringIcNS_11char_traitsIcEENS2_IcEEEEN8nlohmann16json_abi_v3_11_310basic_jsonINS_3mapENS_6vectorES9_bxydS2_NSB_14adl_serializerENSE_IhNS2_IhEEEEvEEEEPvEEEEEELi1ELb0EE5__getB8ne180100Ev, symObjAddr: 0x1DC6C, symBinAddr: 0x1000285B8, symSize: 0x14 }
  - { offset: 0x6D2E8, size: 0x8, addend: 0x0, symName: __ZNSt3__116__tree_node_baseIPvE12__set_parentB8ne180100EPS2_, symObjAddr: 0x1E0A0, symBinAddr: 0x1000289EC, symSize: 0x20 }
  - { offset: 0x6D31D, size: 0x8, addend: 0x0, symName: __ZNSt3__117__compressed_pairIPNS_11__tree_nodeINS_12__value_typeINS_12basic_stringIcNS_11char_traitsIcEENS_9allocatorIcEEEEN8nlohmann16json_abi_v3_11_310basic_jsonINS_3mapENS_6vectorES8_bxydS6_NSA_14adl_serializerENSD_IhNS6_IhEEEEvEEEEPvEENS_22__tree_node_destructorINS6_ISK_EEEEE5firstB8ne180100Ev, symObjAddr: 0x1E0C0, symBinAddr: 0x100028A0C, symSize: 0x24 }
  - { offset: 0x6D343, size: 0x8, addend: 0x0, symName: __ZNSt3__122__compressed_pair_elemIPNS_11__tree_nodeINS_12__value_typeINS_12basic_stringIcNS_11char_traitsIcEENS_9allocatorIcEEEEN8nlohmann16json_abi_v3_11_310basic_jsonINS_3mapENS_6vectorES8_bxydS6_NSA_14adl_serializerENSD_IhNS6_IhEEEEvEEEEPvEELi0ELb0EE5__getB8ne180100Ev, symObjAddr: 0x1E0E4, symBinAddr: 0x100028A30, symSize: 0x14 }
  - { offset: 0x6D369, size: 0x8, addend: 0x0, symName: __ZNSt3__110unique_ptrINS_11__tree_nodeINS_12__value_typeINS_12basic_stringIcNS_11char_traitsIcEENS_9allocatorIcEEEEN8nlohmann16json_abi_v3_11_310basic_jsonINS_3mapENS_6vectorES8_bxydS6_NSA_14adl_serializerENSD_IhNS6_IhEEEEvEEEEPvEENS_22__tree_node_destructorINS6_ISK_EEEEED2B8ne180100Ev, symObjAddr: 0x1E0F8, symBinAddr: 0x100028A44, symSize: 0x30 }
  - { offset: 0x6D393, size: 0x8, addend: 0x0, symName: __ZNSt3__110unique_ptrINS_11__tree_nodeINS_12__value_typeINS_12basic_stringIcNS_11char_traitsIcEENS_9allocatorIcEEEEN8nlohmann16json_abi_v3_11_310basic_jsonINS_3mapENS_6vectorES8_bxydS6_NSA_14adl_serializerENSD_IhNS6_IhEEEEvEEEEPvEENS_22__tree_node_destructorINS6_ISK_EEEEE5resetB8ne180100EPSK_, symObjAddr: 0x1E128, symBinAddr: 0x100028A74, symSize: 0x78 }
  - { offset: 0x6D3D7, size: 0x8, addend: 0x0, symName: __ZNSt3__122__tree_node_destructorINS_9allocatorINS_11__tree_nodeINS_12__value_typeINS_12basic_stringIcNS_11char_traitsIcEENS1_IcEEEEN8nlohmann16json_abi_v3_11_310basic_jsonINS_3mapENS_6vectorES8_bxydS1_NSA_14adl_serializerENSD_IhNS1_IhEEEEvEEEEPvEEEEEclB8ne180100EPSK_, symObjAddr: 0x1E1A0, symBinAddr: 0x100028AEC, symSize: 0x90 }
  - { offset: 0x6D40C, size: 0x8, addend: 0x0, symName: __ZNSt3__115__tree_iteratorINS_12__value_typeINS_12basic_stringIcNS_11char_traitsIcEENS_9allocatorIcEEEEN8nlohmann16json_abi_v3_11_310basic_jsonINS_3mapENS_6vectorES7_bxydS5_NS9_14adl_serializerENSC_IhNS5_IhEEEEvEEEEPNS_11__tree_nodeISH_PvEElEC2B8ne180100ESL_, symObjAddr: 0x1E230, symBinAddr: 0x100028B7C, symSize: 0x20 }
  - { offset: 0x6D445, size: 0x8, addend: 0x0, symName: __ZNSt3__14pairINS_15__tree_iteratorINS_12__value_typeINS_12basic_stringIcNS_11char_traitsIcEENS_9allocatorIcEEEEN8nlohmann16json_abi_v3_11_310basic_jsonINS_3mapENS_6vectorES8_bxydS6_NSA_14adl_serializerENSD_IhNS6_IhEEEEvEEEEPNS_11__tree_nodeISI_PvEElEEbEC2B8ne180100ISN_RbLi0EEEOT_OT0_, symObjAddr: 0x1E250, symBinAddr: 0x100028B9C, symSize: 0x38 }
  - { offset: 0x6D4A3, size: 0x8, addend: 0x0, symName: __ZNSt3__120__map_const_iteratorINS_21__tree_const_iteratorINS_12__value_typeINS_12basic_stringIcNS_11char_traitsIcEENS_9allocatorIcEEEEN8nlohmann16json_abi_v3_11_310basic_jsonINS_3mapENS_6vectorES8_bxydS6_NSA_14adl_serializerENSD_IhNS6_IhEEEEvEEEEPNS_11__tree_nodeISI_PvEElEEEC2B8ne180100ESN_, symObjAddr: 0x1E288, symBinAddr: 0x100028BD4, symSize: 0x20 }
  - { offset: 0x6D4DC, size: 0x8, addend: 0x0, symName: __ZNKSt3__121__tree_const_iteratorINS_12__value_typeINS_12basic_stringIcNS_11char_traitsIcEENS_9allocatorIcEEEEN8nlohmann16json_abi_v3_11_310basic_jsonINS_3mapENS_6vectorES7_bxydS5_NS9_14adl_serializerENSC_IhNS5_IhEEEEvEEEEPNS_11__tree_nodeISH_PvEElEptB8ne180100Ev, symObjAddr: 0x1E2A8, symBinAddr: 0x100028BF4, symSize: 0x2C }
  - { offset: 0x6D502, size: 0x8, addend: 0x0, symName: __ZNSt3__114pointer_traitsIPKNS_12__value_typeINS_12basic_stringIcNS_11char_traitsIcEENS_9allocatorIcEEEEN8nlohmann16json_abi_v3_11_310basic_jsonINS_3mapENS_6vectorES7_bxydS5_NS9_14adl_serializerENSC_IhNS5_IhEEEEvEEEEE10pointer_toB8ne180100ERSI_, symObjAddr: 0x1E2D4, symBinAddr: 0x100028C20, symSize: 0x14 }
